Archive member included because of file (symbol)

/home/nlv14991/workspaceLPC/STE-LPC1768-/CMSISv1p30_LPC17xx/Debug/libCMSISv1p30_LPC17xx.a(system_LPC17xx.o)
                              ./cr_startup_lpc17.o (SystemInit)
/home/nlv14991/workspaceLPC/STE-LPC1768-/FreeRTOS_Library/Debug/libFreeRTOS_Library.a(queue.o)
                              ./webserver/uIP_Task.o (xQueueCreate)
/home/nlv14991/workspaceLPC/STE-LPC1768-/FreeRTOS_Library/Debug/libFreeRTOS_Library.a(tasks.o)
                              ./main.o (xTaskGenericCreate)
/home/nlv14991/workspaceLPC/STE-LPC1768-/FreeRTOS_Library/Debug/libFreeRTOS_Library.a(heap_2.o)
                              /home/nlv14991/workspaceLPC/STE-LPC1768-/FreeRTOS_Library/Debug/libFreeRTOS_Library.a(queue.o) (pvPortMalloc)
/home/nlv14991/workspaceLPC/STE-LPC1768-/FreeRTOS_Library/Debug/libFreeRTOS_Library.a(port.o)
                              /home/nlv14991/workspaceLPC/STE-LPC1768-/FreeRTOS_Library/Debug/libFreeRTOS_Library.a(tasks.o) (pxPortInitialiseStack)
/home/nlv14991/workspaceLPC/STE-LPC1768-/FreeRTOS_Library/Debug/libFreeRTOS_Library.a(list.o)
                              /home/nlv14991/workspaceLPC/STE-LPC1768-/FreeRTOS_Library/Debug/libFreeRTOS_Library.a(queue.o) (vListInitialise)
/usr/local/lpcxpresso_4.2.3_255/lpcxpresso/tools/bin/../lib/gcc/arm-none-eabi/4.5.1/thumb2/libgcc.a(_aeabi_uldivmod.o)
                              ./driver_source/lpc17xx_i2s.o (__aeabi_uldivmod)
/usr/local/lpcxpresso_4.2.3_255/lpcxpresso/tools/bin/../lib/gcc/arm-none-eabi/4.5.1/thumb2/libgcc.a(bpabi.o)
                              /usr/local/lpcxpresso_4.2.3_255/lpcxpresso/tools/bin/../lib/gcc/arm-none-eabi/4.5.1/thumb2/libgcc.a(_aeabi_uldivmod.o) (__gnu_uldivmod_helper)
/usr/local/lpcxpresso_4.2.3_255/lpcxpresso/tools/bin/../lib/gcc/arm-none-eabi/4.5.1/thumb2/libgcc.a(_dvmd_tls.o)
                              /usr/local/lpcxpresso_4.2.3_255/lpcxpresso/tools/bin/../lib/gcc/arm-none-eabi/4.5.1/thumb2/libgcc.a(_aeabi_uldivmod.o) (__aeabi_ldiv0)
/usr/local/lpcxpresso_4.2.3_255/lpcxpresso/tools/bin/../lib/gcc/arm-none-eabi/4.5.1/thumb2/libgcc.a(_divdi3.o)
                              /usr/local/lpcxpresso_4.2.3_255/lpcxpresso/tools/bin/../lib/gcc/arm-none-eabi/4.5.1/thumb2/libgcc.a(bpabi.o) (__divdi3)
/usr/local/lpcxpresso_4.2.3_255/lpcxpresso/tools/bin/../lib/gcc/arm-none-eabi/4.5.1/thumb2/libgcc.a(_udivdi3.o)
                              /usr/local/lpcxpresso_4.2.3_255/lpcxpresso/tools/bin/../lib/gcc/arm-none-eabi/4.5.1/thumb2/libgcc.a(bpabi.o) (__udivdi3)
/usr/local/lpcxpresso_4.2.3_255/lpcxpresso/tools/bin/../lib/gcc/arm-none-eabi/4.5.1/thumb2/libgcc.a(_udivsi3.o)
                              /usr/local/lpcxpresso_4.2.3_255/lpcxpresso/tools/bin/../lib/gcc/arm-none-eabi/4.5.1/thumb2/libgcc.a(_divdi3.o) (__aeabi_uidiv)
/usr/local/lpcxpresso_4.2.3_255/lpcxpresso/tools/bin/../lib/gcc/arm-none-eabi/4.5.1/../../../../arm-none-eabi/lib/thumb2/libc.a(lib_a-memcmp.o)
                              /home/nlv14991/workspaceLPC/STE-LPC1768-/FreeRTOS_Library/Debug/libFreeRTOS_Library.a(tasks.o) (memcmp)
/usr/local/lpcxpresso_4.2.3_255/lpcxpresso/tools/bin/../lib/gcc/arm-none-eabi/4.5.1/../../../../arm-none-eabi/lib/thumb2/libc.a(lib_a-memcpy.o)
                              ./webserver/httpd.o (memcpy)
/usr/local/lpcxpresso_4.2.3_255/lpcxpresso/tools/bin/../lib/gcc/arm-none-eabi/4.5.1/../../../../arm-none-eabi/lib/thumb2/libc.a(lib_a-memset.o)
                              ./webserver/uip_arp.o (memset)
/usr/local/lpcxpresso_4.2.3_255/lpcxpresso/tools/bin/../lib/gcc/arm-none-eabi/4.5.1/../../../../arm-none-eabi/lib/thumb2/libc.a(lib_a-printf.o)
                              ./webserver/psock.o (printf)
/usr/local/lpcxpresso_4.2.3_255/lpcxpresso/tools/bin/../lib/gcc/arm-none-eabi/4.5.1/../../../../arm-none-eabi/lib/thumb2/libc.a(lib_a-snprintf.o)
                              ./webserver/httpd-cgi.o (snprintf)
/usr/local/lpcxpresso_4.2.3_255/lpcxpresso/tools/bin/../lib/gcc/arm-none-eabi/4.5.1/../../../../arm-none-eabi/lib/thumb2/libc.a(lib_a-sprintf.o)
                              ./cr_startup_lpc17.o (sprintf)
/usr/local/lpcxpresso_4.2.3_255/lpcxpresso/tools/bin/../lib/gcc/arm-none-eabi/4.5.1/../../../../arm-none-eabi/lib/thumb2/libc.a(lib_a-sscanf.o)
                              ./webserver/uIP_Task.o (sscanf)
/usr/local/lpcxpresso_4.2.3_255/lpcxpresso/tools/bin/../lib/gcc/arm-none-eabi/4.5.1/../../../../arm-none-eabi/lib/thumb2/libc.a(lib_a-stdio.o)
                              /usr/local/lpcxpresso_4.2.3_255/lpcxpresso/tools/bin/../lib/gcc/arm-none-eabi/4.5.1/../../../../arm-none-eabi/lib/thumb2/libc.a(lib_a-sscanf.o) (__seofread)
/usr/local/lpcxpresso_4.2.3_255/lpcxpresso/tools/bin/../lib/gcc/arm-none-eabi/4.5.1/../../../../arm-none-eabi/lib/thumb2/libc.a(lib_a-strcat.o)
                              ./webserver/httpd-cgi.o (strcat)
/usr/local/lpcxpresso_4.2.3_255/lpcxpresso/tools/bin/../lib/gcc/arm-none-eabi/4.5.1/../../../../arm-none-eabi/lib/thumb2/libc.a(lib_a-strchr.o)
                              ./webserver/httpd-cgi.o (strchr)
/usr/local/lpcxpresso_4.2.3_255/lpcxpresso/tools/bin/../lib/gcc/arm-none-eabi/4.5.1/../../../../arm-none-eabi/lib/thumb2/libc.a(lib_a-strcmp.o)
                              ./uip_ftp/Connections.o (strcmp)
/usr/local/lpcxpresso_4.2.3_255/lpcxpresso/tools/bin/../lib/gcc/arm-none-eabi/4.5.1/../../../../arm-none-eabi/lib/thumb2/libc.a(lib_a-strcpy.o)
                              ./webserver/httpd.o (strcpy)
/usr/local/lpcxpresso_4.2.3_255/lpcxpresso/tools/bin/../lib/gcc/arm-none-eabi/4.5.1/../../../../arm-none-eabi/lib/thumb2/libc.a(lib_a-strlen.o)
                              ./cr_startup_lpc17.o (strlen)
/usr/local/lpcxpresso_4.2.3_255/lpcxpresso/tools/bin/../lib/gcc/arm-none-eabi/4.5.1/../../../../arm-none-eabi/lib/thumb2/libc.a(lib_a-strncmp.o)
                              ./webserver/httpd-cgi.o (strncmp)
/usr/local/lpcxpresso_4.2.3_255/lpcxpresso/tools/bin/../lib/gcc/arm-none-eabi/4.5.1/../../../../arm-none-eabi/lib/thumb2/libc.a(lib_a-strncpy.o)
                              ./webserver/httpd.o (strncpy)
/usr/local/lpcxpresso_4.2.3_255/lpcxpresso/tools/bin/../lib/gcc/arm-none-eabi/4.5.1/../../../../arm-none-eabi/lib/thumb2/libc.a(lib_a-strrchr.o)
                              ./webserver/httpd.o (strrchr)
/usr/local/lpcxpresso_4.2.3_255/lpcxpresso/tools/bin/../lib/gcc/arm-none-eabi/4.5.1/../../../../arm-none-eabi/lib/thumb2/libc.a(lib_a-strstr.o)
                              ./webserver/uIP_Task.o (strstr)
/usr/local/lpcxpresso_4.2.3_255/lpcxpresso/tools/bin/../lib/gcc/arm-none-eabi/4.5.1/../../../../arm-none-eabi/lib/thumb2/libc.a(lib_a-svfprintf.o)
                              /usr/local/lpcxpresso_4.2.3_255/lpcxpresso/tools/bin/../lib/gcc/arm-none-eabi/4.5.1/../../../../arm-none-eabi/lib/thumb2/libc.a(lib_a-snprintf.o) (_svfprintf_r)
/usr/local/lpcxpresso_4.2.3_255/lpcxpresso/tools/bin/../lib/gcc/arm-none-eabi/4.5.1/../../../../arm-none-eabi/lib/thumb2/libc.a(lib_a-svfscanf.o)
                              /usr/local/lpcxpresso_4.2.3_255/lpcxpresso/tools/bin/../lib/gcc/arm-none-eabi/4.5.1/../../../../arm-none-eabi/lib/thumb2/libc.a(lib_a-sscanf.o) (__ssvfscanf_r)
/usr/local/lpcxpresso_4.2.3_255/lpcxpresso/tools/bin/../lib/gcc/arm-none-eabi/4.5.1/../../../../arm-none-eabi/lib/thumb2/libc.a(lib_a-vfprintf.o)
                              /usr/local/lpcxpresso_4.2.3_255/lpcxpresso/tools/bin/../lib/gcc/arm-none-eabi/4.5.1/../../../../arm-none-eabi/lib/thumb2/libc.a(lib_a-printf.o) (_vfprintf_r)
/usr/local/lpcxpresso_4.2.3_255/lpcxpresso/tools/bin/../lib/gcc/arm-none-eabi/4.5.1/../../../../arm-none-eabi/lib/thumb2/libc.a(lib_a-vsprintf.o)
                              ./UsbHost/Uart/usbhost_uart.o (vsprintf)
/usr/local/lpcxpresso_4.2.3_255/lpcxpresso/tools/bin/../lib/gcc/arm-none-eabi/4.5.1/../../../../arm-none-eabi/lib/thumb2/libc.a(lib_a-writer.o)
                              /usr/local/lpcxpresso_4.2.3_255/lpcxpresso/tools/bin/../lib/gcc/arm-none-eabi/4.5.1/../../../../arm-none-eabi/lib/thumb2/libc.a(lib_a-stdio.o) (_write_r)
/usr/local/lpcxpresso_4.2.3_255/lpcxpresso/tools/bin/../lib/gcc/arm-none-eabi/4.5.1/../../../../arm-none-eabi/lib/thumb2/libc.a(lib_a-wsetup.o)
                              /usr/local/lpcxpresso_4.2.3_255/lpcxpresso/tools/bin/../lib/gcc/arm-none-eabi/4.5.1/../../../../arm-none-eabi/lib/thumb2/libc.a(lib_a-vfprintf.o) (__swsetup_r)
/usr/local/lpcxpresso_4.2.3_255/lpcxpresso/tools/bin/../lib/gcc/arm-none-eabi/4.5.1/../../../../arm-none-eabi/lib/thumb2/libc.a(lib_a-closer.o)
                              /usr/local/lpcxpresso_4.2.3_255/lpcxpresso/tools/bin/../lib/gcc/arm-none-eabi/4.5.1/../../../../arm-none-eabi/lib/thumb2/libc.a(lib_a-stdio.o) (_close_r)
/usr/local/lpcxpresso_4.2.3_255/lpcxpresso/tools/bin/../lib/gcc/arm-none-eabi/4.5.1/../../../../arm-none-eabi/lib/thumb2/libc.a(lib_a-ctype_.o)
                              /usr/local/lpcxpresso_4.2.3_255/lpcxpresso/tools/bin/../lib/gcc/arm-none-eabi/4.5.1/../../../../arm-none-eabi/lib/thumb2/libc.a(lib_a-svfscanf.o) (__ctype_ptr__)
/usr/local/lpcxpresso_4.2.3_255/lpcxpresso/tools/bin/../lib/gcc/arm-none-eabi/4.5.1/../../../../arm-none-eabi/lib/thumb2/libc.a(lib_a-dtoa.o)
                              /usr/local/lpcxpresso_4.2.3_255/lpcxpresso/tools/bin/../lib/gcc/arm-none-eabi/4.5.1/../../../../arm-none-eabi/lib/thumb2/libc.a(lib_a-svfprintf.o) (_dtoa_r)
/usr/local/lpcxpresso_4.2.3_255/lpcxpresso/tools/bin/../lib/gcc/arm-none-eabi/4.5.1/../../../../arm-none-eabi/lib/thumb2/libc.a(lib_a-fflush.o)
                              /usr/local/lpcxpresso_4.2.3_255/lpcxpresso/tools/bin/../lib/gcc/arm-none-eabi/4.5.1/../../../../arm-none-eabi/lib/thumb2/libc.a(lib_a-vfprintf.o) (_fflush_r)
/usr/local/lpcxpresso_4.2.3_255/lpcxpresso/tools/bin/../lib/gcc/arm-none-eabi/4.5.1/../../../../arm-none-eabi/lib/thumb2/libc.a(lib_a-findfp.o)
                              /usr/local/lpcxpresso_4.2.3_255/lpcxpresso/tools/bin/../lib/gcc/arm-none-eabi/4.5.1/../../../../arm-none-eabi/lib/thumb2/libc.a(lib_a-printf.o) (__sinit)
/usr/local/lpcxpresso_4.2.3_255/lpcxpresso/tools/bin/../lib/gcc/arm-none-eabi/4.5.1/../../../../arm-none-eabi/lib/thumb2/libc.a(lib_a-freer.o)
                              /usr/local/lpcxpresso_4.2.3_255/lpcxpresso/tools/bin/../lib/gcc/arm-none-eabi/4.5.1/../../../../arm-none-eabi/lib/thumb2/libc.a(lib_a-wsetup.o) (_free_r)
/usr/local/lpcxpresso_4.2.3_255/lpcxpresso/tools/bin/../lib/gcc/arm-none-eabi/4.5.1/../../../../arm-none-eabi/lib/thumb2/libc.a(lib_a-fwalk.o)
                              /usr/local/lpcxpresso_4.2.3_255/lpcxpresso/tools/bin/../lib/gcc/arm-none-eabi/4.5.1/../../../../arm-none-eabi/lib/thumb2/libc.a(lib_a-findfp.o) (_fwalk)
/usr/local/lpcxpresso_4.2.3_255/lpcxpresso/tools/bin/../lib/gcc/arm-none-eabi/4.5.1/../../../../arm-none-eabi/lib/thumb2/libc.a(lib_a-impure.o)
                              /usr/local/lpcxpresso_4.2.3_255/lpcxpresso/tools/bin/../lib/gcc/arm-none-eabi/4.5.1/../../../../arm-none-eabi/lib/thumb2/libc.a(lib_a-printf.o) (_impure_ptr)
/usr/local/lpcxpresso_4.2.3_255/lpcxpresso/tools/bin/../lib/gcc/arm-none-eabi/4.5.1/../../../../arm-none-eabi/lib/thumb2/libc.a(lib_a-iswspace.o)
                              /usr/local/lpcxpresso_4.2.3_255/lpcxpresso/tools/bin/../lib/gcc/arm-none-eabi/4.5.1/../../../../arm-none-eabi/lib/thumb2/libc.a(lib_a-svfscanf.o) (iswspace)
/usr/local/lpcxpresso_4.2.3_255/lpcxpresso/tools/bin/../lib/gcc/arm-none-eabi/4.5.1/../../../../arm-none-eabi/lib/thumb2/libc.a(lib_a-locale.o)
                              /usr/local/lpcxpresso_4.2.3_255/lpcxpresso/tools/bin/../lib/gcc/arm-none-eabi/4.5.1/../../../../arm-none-eabi/lib/thumb2/libc.a(lib_a-svfscanf.o) (__locale_mb_cur_max)
/usr/local/lpcxpresso_4.2.3_255/lpcxpresso/tools/bin/../lib/gcc/arm-none-eabi/4.5.1/../../../../arm-none-eabi/lib/thumb2/libc.a(lib_a-lseekr.o)
                              /usr/local/lpcxpresso_4.2.3_255/lpcxpresso/tools/bin/../lib/gcc/arm-none-eabi/4.5.1/../../../../arm-none-eabi/lib/thumb2/libc.a(lib_a-stdio.o) (_lseek_r)
/usr/local/lpcxpresso_4.2.3_255/lpcxpresso/tools/bin/../lib/gcc/arm-none-eabi/4.5.1/../../../../arm-none-eabi/lib/thumb2/libc.a(lib_a-makebuf.o)
                              /usr/local/lpcxpresso_4.2.3_255/lpcxpresso/tools/bin/../lib/gcc/arm-none-eabi/4.5.1/../../../../arm-none-eabi/lib/thumb2/libc.a(lib_a-wsetup.o) (__smakebuf_r)
/usr/local/lpcxpresso_4.2.3_255/lpcxpresso/tools/bin/../lib/gcc/arm-none-eabi/4.5.1/../../../../arm-none-eabi/lib/thumb2/libc.a(lib_a-malloc.o)
                              /usr/local/lpcxpresso_4.2.3_255/lpcxpresso/tools/bin/../lib/gcc/arm-none-eabi/4.5.1/../../../../arm-none-eabi/lib/thumb2/libc.a(lib_a-dtoa.o) (malloc)
/usr/local/lpcxpresso_4.2.3_255/lpcxpresso/tools/bin/../lib/gcc/arm-none-eabi/4.5.1/../../../../arm-none-eabi/lib/thumb2/libc.a(lib_a-mallocr.o)
                              /usr/local/lpcxpresso_4.2.3_255/lpcxpresso/tools/bin/../lib/gcc/arm-none-eabi/4.5.1/../../../../arm-none-eabi/lib/thumb2/libc.a(lib_a-svfprintf.o) (_malloc_r)
/usr/local/lpcxpresso_4.2.3_255/lpcxpresso/tools/bin/../lib/gcc/arm-none-eabi/4.5.1/../../../../arm-none-eabi/lib/thumb2/libc.a(lib_a-mbrtowc.o)
                              /usr/local/lpcxpresso_4.2.3_255/lpcxpresso/tools/bin/../lib/gcc/arm-none-eabi/4.5.1/../../../../arm-none-eabi/lib/thumb2/libc.a(lib_a-svfscanf.o) (_mbrtowc_r)
/usr/local/lpcxpresso_4.2.3_255/lpcxpresso/tools/bin/../lib/gcc/arm-none-eabi/4.5.1/../../../../arm-none-eabi/lib/thumb2/libc.a(lib_a-mbtowc_r.o)
                              /usr/local/lpcxpresso_4.2.3_255/lpcxpresso/tools/bin/../lib/gcc/arm-none-eabi/4.5.1/../../../../arm-none-eabi/lib/thumb2/libc.a(lib_a-mbrtowc.o) (__mbtowc)
/usr/local/lpcxpresso_4.2.3_255/lpcxpresso/tools/bin/../lib/gcc/arm-none-eabi/4.5.1/../../../../arm-none-eabi/lib/thumb2/libc.a(lib_a-memchr.o)
                              /usr/local/lpcxpresso_4.2.3_255/lpcxpresso/tools/bin/../lib/gcc/arm-none-eabi/4.5.1/../../../../arm-none-eabi/lib/thumb2/libc.a(lib_a-strstr.o) (memchr)
/usr/local/lpcxpresso_4.2.3_255/lpcxpresso/tools/bin/../lib/gcc/arm-none-eabi/4.5.1/../../../../arm-none-eabi/lib/thumb2/libc.a(lib_a-mlock.o)
                              /usr/local/lpcxpresso_4.2.3_255/lpcxpresso/tools/bin/../lib/gcc/arm-none-eabi/4.5.1/../../../../arm-none-eabi/lib/thumb2/libc.a(lib_a-freer.o) (__malloc_lock)
/usr/local/lpcxpresso_4.2.3_255/lpcxpresso/tools/bin/../lib/gcc/arm-none-eabi/4.5.1/../../../../arm-none-eabi/lib/thumb2/libc.a(lib_a-mprec.o)
                              /usr/local/lpcxpresso_4.2.3_255/lpcxpresso/tools/bin/../lib/gcc/arm-none-eabi/4.5.1/../../../../arm-none-eabi/lib/thumb2/libc.a(lib_a-dtoa.o) (_Balloc)
/usr/local/lpcxpresso_4.2.3_255/lpcxpresso/tools/bin/../lib/gcc/arm-none-eabi/4.5.1/../../../../arm-none-eabi/lib/thumb2/libc.a(lib_a-readr.o)
                              /usr/local/lpcxpresso_4.2.3_255/lpcxpresso/tools/bin/../lib/gcc/arm-none-eabi/4.5.1/../../../../arm-none-eabi/lib/thumb2/libc.a(lib_a-stdio.o) (_read_r)
/usr/local/lpcxpresso_4.2.3_255/lpcxpresso/tools/bin/../lib/gcc/arm-none-eabi/4.5.1/../../../../arm-none-eabi/lib/thumb2/libc.a(lib_a-reent.o)
                              /usr/local/lpcxpresso_4.2.3_255/lpcxpresso/tools/bin/../lib/gcc/arm-none-eabi/4.5.1/../../../../arm-none-eabi/lib/thumb2/libc.a(lib_a-writer.o) (errno)
/usr/local/lpcxpresso_4.2.3_255/lpcxpresso/tools/bin/../lib/gcc/arm-none-eabi/4.5.1/../../../../arm-none-eabi/lib/thumb2/libc.a(lib_a-s_fpclassify.o)
                              /usr/local/lpcxpresso_4.2.3_255/lpcxpresso/tools/bin/../lib/gcc/arm-none-eabi/4.5.1/../../../../arm-none-eabi/lib/thumb2/libc.a(lib_a-svfprintf.o) (__fpclassifyd)
/usr/local/lpcxpresso_4.2.3_255/lpcxpresso/tools/bin/../lib/gcc/arm-none-eabi/4.5.1/../../../../arm-none-eabi/lib/thumb2/libc.a(lib_a-sbrkr.o)
                              /usr/local/lpcxpresso_4.2.3_255/lpcxpresso/tools/bin/../lib/gcc/arm-none-eabi/4.5.1/../../../../arm-none-eabi/lib/thumb2/libc.a(lib_a-freer.o) (_sbrk_r)
/usr/local/lpcxpresso_4.2.3_255/lpcxpresso/tools/bin/../lib/gcc/arm-none-eabi/4.5.1/../../../../arm-none-eabi/lib/thumb2/libc.a(lib_a-sccl.o)
                              /usr/local/lpcxpresso_4.2.3_255/lpcxpresso/tools/bin/../lib/gcc/arm-none-eabi/4.5.1/../../../../arm-none-eabi/lib/thumb2/libc.a(lib_a-svfscanf.o) (__sccl)
/usr/local/lpcxpresso_4.2.3_255/lpcxpresso/tools/bin/../lib/gcc/arm-none-eabi/4.5.1/../../../../arm-none-eabi/lib/thumb2/libc.a(lib_a-sf_nan.o)
                              /usr/local/lpcxpresso_4.2.3_255/lpcxpresso/tools/bin/../lib/gcc/arm-none-eabi/4.5.1/../../../../arm-none-eabi/lib/thumb2/libc.a(lib_a-svfscanf.o) (nanf)
/usr/local/lpcxpresso_4.2.3_255/lpcxpresso/tools/bin/../lib/gcc/arm-none-eabi/4.5.1/../../../../arm-none-eabi/lib/thumb2/libc.a(lib_a-strtod.o)
                              /usr/local/lpcxpresso_4.2.3_255/lpcxpresso/tools/bin/../lib/gcc/arm-none-eabi/4.5.1/../../../../arm-none-eabi/lib/thumb2/libc.a(lib_a-svfscanf.o) (_strtod_r)
/usr/local/lpcxpresso_4.2.3_255/lpcxpresso/tools/bin/../lib/gcc/arm-none-eabi/4.5.1/../../../../arm-none-eabi/lib/thumb2/libc.a(lib_a-strtol.o)
                              /usr/local/lpcxpresso_4.2.3_255/lpcxpresso/tools/bin/../lib/gcc/arm-none-eabi/4.5.1/../../../../arm-none-eabi/lib/thumb2/libc.a(lib_a-svfscanf.o) (_strtol_r)
/usr/local/lpcxpresso_4.2.3_255/lpcxpresso/tools/bin/../lib/gcc/arm-none-eabi/4.5.1/../../../../arm-none-eabi/lib/thumb2/libc.a(lib_a-strtoll_r.o)
                              /usr/local/lpcxpresso_4.2.3_255/lpcxpresso/tools/bin/../lib/gcc/arm-none-eabi/4.5.1/../../../../arm-none-eabi/lib/thumb2/libc.a(lib_a-svfscanf.o) (_strtoll_r)
/usr/local/lpcxpresso_4.2.3_255/lpcxpresso/tools/bin/../lib/gcc/arm-none-eabi/4.5.1/../../../../arm-none-eabi/lib/thumb2/libc.a(lib_a-strtoul.o)
                              /usr/local/lpcxpresso_4.2.3_255/lpcxpresso/tools/bin/../lib/gcc/arm-none-eabi/4.5.1/../../../../arm-none-eabi/lib/thumb2/libc.a(lib_a-svfscanf.o) (_strtoul_r)
/usr/local/lpcxpresso_4.2.3_255/lpcxpresso/tools/bin/../lib/gcc/arm-none-eabi/4.5.1/../../../../arm-none-eabi/lib/thumb2/libc.a(lib_a-strtoull_r.o)
                              /usr/local/lpcxpresso_4.2.3_255/lpcxpresso/tools/bin/../lib/gcc/arm-none-eabi/4.5.1/../../../../arm-none-eabi/lib/thumb2/libc.a(lib_a-svfscanf.o) (_strtoull_r)
/usr/local/lpcxpresso_4.2.3_255/lpcxpresso/tools/bin/../lib/gcc/arm-none-eabi/4.5.1/../../../../arm-none-eabi/lib/thumb2/libc.a(lib_a-svfiprintf.o)
                              /usr/local/lpcxpresso_4.2.3_255/lpcxpresso/tools/bin/../lib/gcc/arm-none-eabi/4.5.1/../../../../arm-none-eabi/lib/thumb2/libc.a(lib_a-svfprintf.o) (__ssprint_r)
/usr/local/lpcxpresso_4.2.3_255/lpcxpresso/tools/bin/../lib/gcc/arm-none-eabi/4.5.1/../../../../arm-none-eabi/lib/thumb2/libc.a(lib_a-svfiscanf.o)
                              /usr/local/lpcxpresso_4.2.3_255/lpcxpresso/tools/bin/../lib/gcc/arm-none-eabi/4.5.1/../../../../arm-none-eabi/lib/thumb2/libc.a(lib_a-svfscanf.o) (_sungetc_r)
/usr/local/lpcxpresso_4.2.3_255/lpcxpresso/tools/bin/../lib/gcc/arm-none-eabi/4.5.1/../../../../arm-none-eabi/lib/thumb2/libc.a(lib_a-ungetc.o)
                              /usr/local/lpcxpresso_4.2.3_255/lpcxpresso/tools/bin/../lib/gcc/arm-none-eabi/4.5.1/../../../../arm-none-eabi/lib/thumb2/libc.a(lib_a-svfiscanf.o) (__submore)
/usr/local/lpcxpresso_4.2.3_255/lpcxpresso/tools/bin/../lib/gcc/arm-none-eabi/4.5.1/../../../../arm-none-eabi/lib/thumb2/libc.a(lib_a-vfiprintf.o)
                              /usr/local/lpcxpresso_4.2.3_255/lpcxpresso/tools/bin/../lib/gcc/arm-none-eabi/4.5.1/../../../../arm-none-eabi/lib/thumb2/libc.a(lib_a-vfprintf.o) (__sprint_r)
/usr/local/lpcxpresso_4.2.3_255/lpcxpresso/tools/bin/../lib/gcc/arm-none-eabi/4.5.1/../../../../arm-none-eabi/lib/thumb2/libc.a(lib_a-callocr.o)
                              /usr/local/lpcxpresso_4.2.3_255/lpcxpresso/tools/bin/../lib/gcc/arm-none-eabi/4.5.1/../../../../arm-none-eabi/lib/thumb2/libc.a(lib_a-mprec.o) (_calloc_r)
/usr/local/lpcxpresso_4.2.3_255/lpcxpresso/tools/bin/../lib/gcc/arm-none-eabi/4.5.1/../../../../arm-none-eabi/lib/thumb2/libc.a(lib_a-fclose.o)
                              /usr/local/lpcxpresso_4.2.3_255/lpcxpresso/tools/bin/../lib/gcc/arm-none-eabi/4.5.1/../../../../arm-none-eabi/lib/thumb2/libc.a(lib_a-findfp.o) (fclose)
/usr/local/lpcxpresso_4.2.3_255/lpcxpresso/tools/bin/../lib/gcc/arm-none-eabi/4.5.1/../../../../arm-none-eabi/lib/thumb2/libc.a(lib_a-fputwc.o)
                              /usr/local/lpcxpresso_4.2.3_255/lpcxpresso/tools/bin/../lib/gcc/arm-none-eabi/4.5.1/../../../../arm-none-eabi/lib/thumb2/libc.a(lib_a-vfiprintf.o) (_fputwc_r)
/usr/local/lpcxpresso_4.2.3_255/lpcxpresso/tools/bin/../lib/gcc/arm-none-eabi/4.5.1/../../../../arm-none-eabi/lib/thumb2/libc.a(lib_a-fstatr.o)
                              /usr/local/lpcxpresso_4.2.3_255/lpcxpresso/tools/bin/../lib/gcc/arm-none-eabi/4.5.1/../../../../arm-none-eabi/lib/thumb2/libc.a(lib_a-makebuf.o) (_fstat_r)
/usr/local/lpcxpresso_4.2.3_255/lpcxpresso/tools/bin/../lib/gcc/arm-none-eabi/4.5.1/../../../../arm-none-eabi/lib/thumb2/libc.a(lib_a-fvwrite.o)
                              /usr/local/lpcxpresso_4.2.3_255/lpcxpresso/tools/bin/../lib/gcc/arm-none-eabi/4.5.1/../../../../arm-none-eabi/lib/thumb2/libc.a(lib_a-vfiprintf.o) (__sfvwrite_r)
/usr/local/lpcxpresso_4.2.3_255/lpcxpresso/tools/bin/../lib/gcc/arm-none-eabi/4.5.1/../../../../arm-none-eabi/lib/thumb2/libc.a(lib_a-gdtoa-gethex.o)
                              /usr/local/lpcxpresso_4.2.3_255/lpcxpresso/tools/bin/../lib/gcc/arm-none-eabi/4.5.1/../../../../arm-none-eabi/lib/thumb2/libc.a(lib_a-strtod.o) (__gethex)
/usr/local/lpcxpresso_4.2.3_255/lpcxpresso/tools/bin/../lib/gcc/arm-none-eabi/4.5.1/../../../../arm-none-eabi/lib/thumb2/libc.a(lib_a-gdtoa-hexnan.o)
                              /usr/local/lpcxpresso_4.2.3_255/lpcxpresso/tools/bin/../lib/gcc/arm-none-eabi/4.5.1/../../../../arm-none-eabi/lib/thumb2/libc.a(lib_a-strtod.o) (__hexnan)
/usr/local/lpcxpresso_4.2.3_255/lpcxpresso/tools/bin/../lib/gcc/arm-none-eabi/4.5.1/../../../../arm-none-eabi/lib/thumb2/libc.a(lib_a-isattyr.o)
                              /usr/local/lpcxpresso_4.2.3_255/lpcxpresso/tools/bin/../lib/gcc/arm-none-eabi/4.5.1/../../../../arm-none-eabi/lib/thumb2/libc.a(lib_a-makebuf.o) (_isatty_r)
/usr/local/lpcxpresso_4.2.3_255/lpcxpresso/tools/bin/../lib/gcc/arm-none-eabi/4.5.1/../../../../arm-none-eabi/lib/thumb2/libc.a(lib_a-memmove.o)
                              /usr/local/lpcxpresso_4.2.3_255/lpcxpresso/tools/bin/../lib/gcc/arm-none-eabi/4.5.1/../../../../arm-none-eabi/lib/thumb2/libc.a(lib_a-svfiprintf.o) (memmove)
/usr/local/lpcxpresso_4.2.3_255/lpcxpresso/tools/bin/../lib/gcc/arm-none-eabi/4.5.1/../../../../arm-none-eabi/lib/thumb2/libc.a(lib_a-reallocr.o)
                              /usr/local/lpcxpresso_4.2.3_255/lpcxpresso/tools/bin/../lib/gcc/arm-none-eabi/4.5.1/../../../../arm-none-eabi/lib/thumb2/libc.a(lib_a-svfiprintf.o) (_realloc_r)
/usr/local/lpcxpresso_4.2.3_255/lpcxpresso/tools/bin/../lib/gcc/arm-none-eabi/4.5.1/../../../../arm-none-eabi/lib/thumb2/libc.a(lib_a-wbuf.o)
                              /usr/local/lpcxpresso_4.2.3_255/lpcxpresso/tools/bin/../lib/gcc/arm-none-eabi/4.5.1/../../../../arm-none-eabi/lib/thumb2/libc.a(lib_a-fputwc.o) (__swbuf_r)
/usr/local/lpcxpresso_4.2.3_255/lpcxpresso/tools/bin/../lib/gcc/arm-none-eabi/4.5.1/../../../../arm-none-eabi/lib/thumb2/libc.a(lib_a-wcrtomb.o)
                              /usr/local/lpcxpresso_4.2.3_255/lpcxpresso/tools/bin/../lib/gcc/arm-none-eabi/4.5.1/../../../../arm-none-eabi/lib/thumb2/libc.a(lib_a-fputwc.o) (_wcrtomb_r)
/usr/local/lpcxpresso_4.2.3_255/lpcxpresso/tools/bin/../lib/gcc/arm-none-eabi/4.5.1/../../../../arm-none-eabi/lib/thumb2/libc.a(lib_a-wctomb_r.o)
                              /usr/local/lpcxpresso_4.2.3_255/lpcxpresso/tools/bin/../lib/gcc/arm-none-eabi/4.5.1/../../../../arm-none-eabi/lib/thumb2/libc.a(lib_a-wcrtomb.o) (__wctomb)
/usr/local/lpcxpresso_4.2.3_255/lpcxpresso/tools/bin/../lib/gcc/arm-none-eabi/4.5.1/../../../../arm-none-eabi/lib/thumb2/libcr_newlib_nohost.a(_cr_sbrk.o)
                              /usr/local/lpcxpresso_4.2.3_255/lpcxpresso/tools/bin/../lib/gcc/arm-none-eabi/4.5.1/../../../../arm-none-eabi/lib/thumb2/libc.a(lib_a-sbrkr.o) (_sbrk)
/usr/local/lpcxpresso_4.2.3_255/lpcxpresso/tools/bin/../lib/gcc/arm-none-eabi/4.5.1/../../../../arm-none-eabi/lib/thumb2/libcr_newlib_nohost.a(close.o)
                              /usr/local/lpcxpresso_4.2.3_255/lpcxpresso/tools/bin/../lib/gcc/arm-none-eabi/4.5.1/../../../../arm-none-eabi/lib/thumb2/libc.a(lib_a-closer.o) (_close)
/usr/local/lpcxpresso_4.2.3_255/lpcxpresso/tools/bin/../lib/gcc/arm-none-eabi/4.5.1/../../../../arm-none-eabi/lib/thumb2/libcr_newlib_nohost.a(fstat.o)
                              /usr/local/lpcxpresso_4.2.3_255/lpcxpresso/tools/bin/../lib/gcc/arm-none-eabi/4.5.1/../../../../arm-none-eabi/lib/thumb2/libc.a(lib_a-fstatr.o) (_fstat)
/usr/local/lpcxpresso_4.2.3_255/lpcxpresso/tools/bin/../lib/gcc/arm-none-eabi/4.5.1/../../../../arm-none-eabi/lib/thumb2/libcr_newlib_nohost.a(isatty.o)
                              /usr/local/lpcxpresso_4.2.3_255/lpcxpresso/tools/bin/../lib/gcc/arm-none-eabi/4.5.1/../../../../arm-none-eabi/lib/thumb2/libc.a(lib_a-isattyr.o) (_isatty)
/usr/local/lpcxpresso_4.2.3_255/lpcxpresso/tools/bin/../lib/gcc/arm-none-eabi/4.5.1/../../../../arm-none-eabi/lib/thumb2/libcr_newlib_nohost.a(lseek.o)
                              /usr/local/lpcxpresso_4.2.3_255/lpcxpresso/tools/bin/../lib/gcc/arm-none-eabi/4.5.1/../../../../arm-none-eabi/lib/thumb2/libc.a(lib_a-lseekr.o) (_lseek)
/usr/local/lpcxpresso_4.2.3_255/lpcxpresso/tools/bin/../lib/gcc/arm-none-eabi/4.5.1/../../../../arm-none-eabi/lib/thumb2/libcr_newlib_nohost.a(read.o)
                              /usr/local/lpcxpresso_4.2.3_255/lpcxpresso/tools/bin/../lib/gcc/arm-none-eabi/4.5.1/../../../../arm-none-eabi/lib/thumb2/libc.a(lib_a-readr.o) (_read)
/usr/local/lpcxpresso_4.2.3_255/lpcxpresso/tools/bin/../lib/gcc/arm-none-eabi/4.5.1/../../../../arm-none-eabi/lib/thumb2/libcr_newlib_nohost.a(write.o)
                              /usr/local/lpcxpresso_4.2.3_255/lpcxpresso/tools/bin/../lib/gcc/arm-none-eabi/4.5.1/../../../../arm-none-eabi/lib/thumb2/libc.a(lib_a-writer.o) (_write)
/usr/local/lpcxpresso_4.2.3_255/lpcxpresso/tools/bin/../lib/gcc/arm-none-eabi/4.5.1/../../../../arm-none-eabi/lib/thumb2/libcr_newlib_nohost.a(_cr_check_heap.o)
                              /usr/local/lpcxpresso_4.2.3_255/lpcxpresso/tools/bin/../lib/gcc/arm-none-eabi/4.5.1/../../../../arm-none-eabi/lib/thumb2/libcr_newlib_nohost.a(_cr_sbrk.o) (__check_heap_overflow)
/usr/local/lpcxpresso_4.2.3_255/lpcxpresso/tools/bin/../lib/gcc/arm-none-eabi/4.5.1/thumb2/libgcc.a(_arm_addsubdf3.o)
                              /usr/local/lpcxpresso_4.2.3_255/lpcxpresso/tools/bin/../lib/gcc/arm-none-eabi/4.5.1/../../../../arm-none-eabi/lib/thumb2/libc.a(lib_a-dtoa.o) (__aeabi_dsub)
/usr/local/lpcxpresso_4.2.3_255/lpcxpresso/tools/bin/../lib/gcc/arm-none-eabi/4.5.1/thumb2/libgcc.a(_arm_muldivdf3.o)
                              /usr/local/lpcxpresso_4.2.3_255/lpcxpresso/tools/bin/../lib/gcc/arm-none-eabi/4.5.1/../../../../arm-none-eabi/lib/thumb2/libc.a(lib_a-dtoa.o) (__aeabi_dmul)
/usr/local/lpcxpresso_4.2.3_255/lpcxpresso/tools/bin/../lib/gcc/arm-none-eabi/4.5.1/thumb2/libgcc.a(_arm_cmpdf2.o)
                              /usr/local/lpcxpresso_4.2.3_255/lpcxpresso/tools/bin/../lib/gcc/arm-none-eabi/4.5.1/../../../../arm-none-eabi/lib/thumb2/libc.a(lib_a-svfprintf.o) (__aeabi_dcmpeq)
/usr/local/lpcxpresso_4.2.3_255/lpcxpresso/tools/bin/../lib/gcc/arm-none-eabi/4.5.1/thumb2/libgcc.a(_arm_fixdfsi.o)
                              /usr/local/lpcxpresso_4.2.3_255/lpcxpresso/tools/bin/../lib/gcc/arm-none-eabi/4.5.1/../../../../arm-none-eabi/lib/thumb2/libc.a(lib_a-dtoa.o) (__aeabi_d2iz)
/usr/local/lpcxpresso_4.2.3_255/lpcxpresso/tools/bin/../lib/gcc/arm-none-eabi/4.5.1/thumb2/libgcc.a(_arm_fixunsdfsi.o)
                              /usr/local/lpcxpresso_4.2.3_255/lpcxpresso/tools/bin/../lib/gcc/arm-none-eabi/4.5.1/../../../../arm-none-eabi/lib/thumb2/libc.a(lib_a-strtod.o) (__aeabi_d2uiz)
/usr/local/lpcxpresso_4.2.3_255/lpcxpresso/tools/bin/../lib/gcc/arm-none-eabi/4.5.1/thumb2/libgcc.a(_arm_truncdfsf2.o)
                              /usr/local/lpcxpresso_4.2.3_255/lpcxpresso/tools/bin/../lib/gcc/arm-none-eabi/4.5.1/../../../../arm-none-eabi/lib/thumb2/libc.a(lib_a-svfscanf.o) (__aeabi_d2f)
/usr/local/lpcxpresso_4.2.3_255/lpcxpresso/tools/bin/../lib/gcc/arm-none-eabi/4.5.1/thumb2/libgcc.a(_arm_cmpsf2.o)
                              /usr/local/lpcxpresso_4.2.3_255/lpcxpresso/tools/bin/../lib/gcc/arm-none-eabi/4.5.1/../../../../arm-none-eabi/lib/thumb2/libc.a(lib_a-strtod.o) (__aeabi_fcmpeq)
/usr/local/lpcxpresso_4.2.3_255/lpcxpresso/tools/bin/../lib/gcc/arm-none-eabi/4.5.1/../../../../arm-none-eabi/lib/thumb2/libc.a(lib_a-errno.o)
                              /usr/local/lpcxpresso_4.2.3_255/lpcxpresso/tools/bin/../lib/gcc/arm-none-eabi/4.5.1/../../../../arm-none-eabi/lib/thumb2/libcr_newlib_nohost.a(_cr_sbrk.o) (__errno)

Allocating common symbols
Common symbol       size              file

ulString            0x4               ./webserver/httpd-cgi.o
TDBufNonVol         0x4               ./UsbHost/Host/usbhost_lpc17xx.o
File1               0x228             ./UsbHost/Main/usbhost_main.o
uip_len             0x2               ./webserver/uip.o
xCountingSemaphore  0x4               ./main.o
errno               0x4               /usr/local/lpcxpresso_4.2.3_255/lpcxpresso/tools/bin/../lib/gcc/arm-none-eabi/4.5.1/../../../../arm-none-eabi/lib/thumb2/libc.a(lib_a-reent.o)
USBFs               0x69c             ./UsbHost/Main/usbhost_main.o
driveAttached       0x1               ./uip_ftp/FTPD.o
pcStatus            0x4               ./webserver/httpd-cgi.o
uip_sappdata        0x4               ./webserver/uip.o
uip_acc32           0x4               ./webserver/uip.o
transferMCfg        0x2c              ./lcd_i2c.o
FATBuffer           0x4               ./UsbHost/Host/usbhost_lpc17xx.o
MS_BlkSize          0x4               ./UsbHost/MassStorage/usbhost_ms.o
uip_flags           0x1               ./webserver/uip.o
RTS_State_usb       0x4               ./UsbHost/Uart/usbhost_uart.o
__hexdig            0x100             /usr/local/lpcxpresso_4.2.3_255/lpcxpresso/tools/bin/../lib/gcc/arm-none-eabi/4.5.1/../../../../arm-none-eabi/lib/thumb2/libc.a(lib_a-gdtoa-gethex.o)
rb                  0x210             ./uart_fullmodem_test.o
Hcca                0x4               ./UsbHost/Host/usbhost_lpc17xx.o
SysTickCnt          0x4               ./LedBlinky.o
TxIntStat_usb       0x1               ./UsbHost/Uart/usbhost_uart.o
File2               0x228             ./UsbHost/Main/usbhost_main.o
uip_appdata         0x4               ./webserver/uip.o
uip_conn            0x4               ./webserver/uip.o
uip_conns           0x820             ./webserver/uip.o
master_test         0x2               ./lcd_i2c.o
TDTail              0x4               ./UsbHost/Host/usbhost_lpc17xx.o
Master_Buf          0x21              ./lcd_i2c.o
EDBulkOut           0x4               ./UsbHost/Host/usbhost_lpc17xx.o
UserBuffer          0x4               ./UsbHost/Host/usbhost_lpc17xx.o
gUSBConnected       0x4               ./UsbHost/Host/usbhost_lpc17xx.o
TDBuffer            0x4               ./UsbHost/Host/usbhost_lpc17xx.o
ftpd_state          0xb40             ./uip_ftp/FTPD.o
uip_listenports     0x50              ./webserver/uip.o
uip_draddr          0x4               ./webserver/uip.o
uip_stat            0x2c              ./webserver/uip.o
EDBulkIn            0x4               ./UsbHost/Host/usbhost_lpc17xx.o
EDCtrl              0x4               ./UsbHost/Host/usbhost_lpc17xx.o
rb_usb              0x210             ./UsbHost/Uart/usbhost_uart.o
TxIntStat           0x1               ./uart_fullmodem_test.o
TDHead              0x4               ./UsbHost/Host/usbhost_lpc17xx.o
RTS_State           0x4               ./uart_fullmodem_test.o
__end_of_heap       0x4               /usr/local/lpcxpresso_4.2.3_255/lpcxpresso/tools/bin/../lib/gcc/arm-none-eabi/4.5.1/../../../../arm-none-eabi/lib/thumb2/libcr_newlib_nohost.a(_cr_sbrk.o)
FULLCAN_ENABLE      0x1               ./driver_source/lpc17xx_can.o
uip_netmask         0x4               ./webserver/uip.o
uip_hostaddr        0x4               ./webserver/uip.o
tcp_appdata         0x1b8             ./uip_ftp/ftp_main.o
uip_buf             0x4               ./webserver/emac.o
uip_slen            0x2               ./webserver/uip.o

Discarded input sections

 .text          0x00000000        0x0 ./LedBlinky.o
 .data          0x00000000        0x0 ./LedBlinky.o
 .bss           0x00000000        0x0 ./LedBlinky.o
 .text.Delay    0x00000000       0x14 ./LedBlinky.o
 .text.entry_led
                0x00000000       0xa4 ./LedBlinky.o
 .text.vLEDTask
                0x00000000       0xa4 ./LedBlinky.o
 .rodata        0x00000000        0xc ./LedBlinky.o
 .text          0x00000000        0x0 ./cr_startup_lpc17.o
 .data          0x00000000        0x0 ./cr_startup_lpc17.o
 .bss           0x00000000        0x0 ./cr_startup_lpc17.o
 .text.SVCall_Handler
                0x00000000        0x4 ./cr_startup_lpc17.o
 .text.PendSV_Handler
                0x00000000        0x4 ./cr_startup_lpc17.o
 .text.SysTick_Handler
                0x00000000        0x4 ./cr_startup_lpc17.o
 .text          0x00000000        0x0 ./lcd_i2c.o
 .data          0x00000000        0x0 ./lcd_i2c.o
 .bss           0x00000000        0x0 ./lcd_i2c.o
 .text.Buffer_Init
                0x00000000       0x94 ./lcd_i2c.o
 .text.Error_Loop_S
                0x00000000        0x4 ./lcd_i2c.o
 .text.lcd_entry
                0x00000000      0x2b4 ./lcd_i2c.o
 .text.vLCDTask
                0x00000000        0x4 ./lcd_i2c.o
 .rodata.str1.4
                0x00000000        0x8 ./lcd_i2c.o
 .text          0x00000000        0x0 ./main.o
 .data          0x00000000        0x0 ./main.o
 .bss           0x00000000        0x0 ./main.o
 .text          0x00000000        0x0 ./uart_fullmodem_test.o
 .data          0x00000000       0x70 ./uart_fullmodem_test.o
 .bss           0x00000000        0x0 ./uart_fullmodem_test.o
 .text.UART1_IntErr
                0x00000000       0x24 ./uart_fullmodem_test.o
 .text.UART1_IntTransmit
                0x00000000       0xd4 ./uart_fullmodem_test.o
 .text.UART1_IntReceive
                0x00000000       0xa4 ./uart_fullmodem_test.o
 .text.print_menu
                0x00000000       0x44 ./uart_fullmodem_test.o
 .text.UART1_ModemCallBack
                0x00000000       0x24 ./uart_fullmodem_test.o
 .text.UARTSend
                0x00000000      0x1c0 ./uart_fullmodem_test.o
 .text.UARTReceive
                0x00000000      0x15c ./uart_fullmodem_test.o
 .text.entry    0x00000000      0x628 ./uart_fullmodem_test.o
 .text.vUARTTask
                0x00000000        0x4 ./uart_fullmodem_test.o
 COMMON         0x00000000      0x218 ./uart_fullmodem_test.o
 .text          0x00000000        0x0 ./webserver/emac.o
 .data          0x00000000        0x0 ./webserver/emac.o
 .text          0x00000000        0x0 ./webserver/http-strings.o
 .data          0x00000000        0x0 ./webserver/http-strings.o
 .bss           0x00000000        0x0 ./webserver/http-strings.o
 .text          0x00000000        0x0 ./webserver/httpd-cgi.o
 .text          0x00000000        0x0 ./webserver/httpd-fs.o
 .data          0x00000000        0x0 ./webserver/httpd-fs.o
 .text.httpd_fs_init
                0x00000000       0x1c ./webserver/httpd-fs.o
 .text          0x00000000        0x0 ./webserver/httpd.o
 .data          0x00000000        0x0 ./webserver/httpd.o
 .bss           0x00000000        0x0 ./webserver/httpd.o
 .text          0x00000000        0x0 ./webserver/psock.o
 .data          0x00000000        0x0 ./webserver/psock.o
 .bss           0x00000000        0x0 ./webserver/psock.o
 .text.psock_newdata
                0x00000000       0x30 ./webserver/psock.o
 .text.psock_readbuf
                0x00000000      0x10c ./webserver/psock.o
 .rodata.str1.4
                0x00000000       0x14 ./webserver/psock.o
 .text          0x00000000        0x0 ./webserver/timer.o
 .data          0x00000000        0x0 ./webserver/timer.o
 .bss           0x00000000        0x0 ./webserver/timer.o
 .text.timer_restart
                0x00000000        0xc ./webserver/timer.o
 .text          0x00000000        0x0 ./webserver/uIP_Task.o
 .data          0x00000000        0x0 ./webserver/uIP_Task.o
 .text.clock_init
                0x00000000        0x4 ./webserver/uIP_Task.o
 .text          0x00000000        0x0 ./webserver/uip.o
 .data          0x00000000        0x0 ./webserver/uip.o
 .text.uip_setipid
                0x00000000        0xc ./webserver/uip.o
 .text.uip_chksum
                0x00000000      0x134 ./webserver/uip.o
 .text.uip_ipchksum
                0x00000000      0x13c ./webserver/uip.o
 .text.uip_udpchksum
                0x00000000      0x1e8 ./webserver/uip.o
 .text          0x00000000        0x0 ./webserver/uip_arp.o
 .data          0x00000000        0x0 ./webserver/uip_arp.o
 .text.uip_arp_init
                0x00000000       0x34 ./webserver/uip_arp.o
 .text          0x00000000        0x0 ./uip_ftp/Connections.o
 .data          0x00000000        0x0 ./uip_ftp/Connections.o
 .text.Convert_to_upper
                0x00000000       0x10 ./uip_ftp/Connections.o
 .text.Closed_data_conn
                0x00000000       0x48 ./uip_ftp/Connections.o
 .text.Aborted_data_conn
                0x00000000       0x48 ./uip_ftp/Connections.o
 .text.CreateFile
                0x00000000       0x88 ./uip_ftp/Connections.o
 .text          0x00000000        0x0 ./uip_ftp/FTPD.o
 .data          0x00000000        0x0 ./uip_ftp/FTPD.o
 .bss           0x00000000        0x0 ./uip_ftp/FTPD.o
 .text          0x00000000        0x0 ./uip_ftp/FTP_Strings.o
 .data          0x00000000       0x44 ./uip_ftp/FTP_Strings.o
 .bss           0x00000000        0x0 ./uip_ftp/FTP_Strings.o
 .rodata.str1.4
                0x00000000      0x1f4 ./uip_ftp/FTP_Strings.o
 .text          0x00000000        0x0 ./uip_ftp/ftp_main.o
 .data          0x00000000        0x0 ./uip_ftp/ftp_main.o
 .bss           0x00000000        0x0 ./uip_ftp/ftp_main.o
 .text.ftp_main
                0x00000000      0x4a0 ./uip_ftp/ftp_main.o
 .text.uip_tcp_appcall
                0x00000000        0x4 ./uip_ftp/ftp_main.o
 .rodata.str1.4
                0x00000000       0x74 ./uip_ftp/ftp_main.o
 .text          0x00000000        0x0 ./driver_source/lpc17xx_adc.o
 .data          0x00000000        0x0 ./driver_source/lpc17xx_adc.o
 .bss           0x00000000        0x0 ./driver_source/lpc17xx_adc.o
 .text.ADC_Init
                0x00000000       0x60 ./driver_source/lpc17xx_adc.o
 .text.ADC_DeInit
                0x00000000       0x34 ./driver_source/lpc17xx_adc.o
 .text.ADC_GetData
                0x00000000       0x14 ./driver_source/lpc17xx_adc.o
 .text.ADC_StartCmd
                0x00000000       0x44 ./driver_source/lpc17xx_adc.o
 .text.ADC_BurstCmd
                0x00000000       0x34 ./driver_source/lpc17xx_adc.o
 .text.ADC_PowerdownCmd
                0x00000000       0x34 ./driver_source/lpc17xx_adc.o
 .text.ADC_EdgeStartConfig
                0x00000000       0x54 ./driver_source/lpc17xx_adc.o
 .text.ADC_IntConfig
                0x00000000       0x50 ./driver_source/lpc17xx_adc.o
 .text.ADC_ChannelCmd
                0x00000000       0x44 ./driver_source/lpc17xx_adc.o
 .text.ADC_ChannelGetData
                0x00000000       0x2c ./driver_source/lpc17xx_adc.o
 .text.ADC_ChannelGetStatus
                0x00000000       0x60 ./driver_source/lpc17xx_adc.o
 .text.ADC_GlobalGetData
                0x00000000       0x28 ./driver_source/lpc17xx_adc.o
 .text.ADC_GlobalGetStatus
                0x00000000       0x58 ./driver_source/lpc17xx_adc.o
 .rodata.str1.4
                0x00000000       0x20 ./driver_source/lpc17xx_adc.o
 .text          0x00000000        0x0 ./driver_source/lpc17xx_can.o
 .data          0x00000000       0x10 ./driver_source/lpc17xx_can.o
 .bss           0x00000000       0x3c ./driver_source/lpc17xx_can.o
 .text.CAN_SetBaudRate
                0x00000000       0xc0 ./driver_source/lpc17xx_can.o
 .text.CAN_Init
                0x00000000      0x17c ./driver_source/lpc17xx_can.o
 .text.CAN_DeInit
                0x00000000       0x68 ./driver_source/lpc17xx_can.o
 .text.CAN_SetupAFLUT
                0x00000000      0x5e0 ./driver_source/lpc17xx_can.o
 .text.CAN_LoadExplicitEntry
                0x00000000      0x704 ./driver_source/lpc17xx_can.o
 .text.CAN_LoadFullCANEntry
                0x00000000      0x6e0 ./driver_source/lpc17xx_can.o
 .text.CAN_LoadGroupEntry
                0x00000000      0x6b4 ./driver_source/lpc17xx_can.o
 .text.CAN_RemoveEntry
                0x00000000      0xcb4 ./driver_source/lpc17xx_can.o
 .text.CAN_SendMsg
                0x00000000      0x150 ./driver_source/lpc17xx_can.o
 .text.CAN_ReceiveMsg
                0x00000000       0x98 ./driver_source/lpc17xx_can.o
 .text.FCAN_ReadObj
                0x00000000      0x304 ./driver_source/lpc17xx_can.o
 .text.CAN_GetCTRLStatus
                0x00000000       0x6c ./driver_source/lpc17xx_can.o
 .text.CAN_GetCRStatus
                0x00000000       0x48 ./driver_source/lpc17xx_can.o
 .text.CAN_IRQCmd
                0x00000000       0xbc ./driver_source/lpc17xx_can.o
 .text.CAN_SetupCBS
                0x00000000       0x2c ./driver_source/lpc17xx_can.o
 .text.CAN_SetAFMode
                0x00000000       0x5c ./driver_source/lpc17xx_can.o
 .text.CAN_ModeConfig
                0x00000000      0x110 ./driver_source/lpc17xx_can.o
 .text.CAN_IntHandler
                0x00000000      0x16c ./driver_source/lpc17xx_can.o
 .rodata        0x00000000       0x44 ./driver_source/lpc17xx_can.o
 .rodata.str1.4
                0x00000000       0x20 ./driver_source/lpc17xx_can.o
 COMMON         0x00000000        0x1 ./driver_source/lpc17xx_can.o
 .text          0x00000000        0x0 ./driver_source/lpc17xx_clkpwr.o
 .data          0x00000000        0x0 ./driver_source/lpc17xx_clkpwr.o
 .bss           0x00000000        0x0 ./driver_source/lpc17xx_clkpwr.o
 .text.CLKPWR_GetPCLKSEL
                0x00000000       0x20 ./driver_source/lpc17xx_clkpwr.o
 .text.CLKPWR_Sleep
                0x00000000       0x14 ./driver_source/lpc17xx_clkpwr.o
 .text.CLKPWR_DeepSleep
                0x00000000       0x20 ./driver_source/lpc17xx_clkpwr.o
 .text.CLKPWR_PowerDown
                0x00000000       0x20 ./driver_source/lpc17xx_clkpwr.o
 .text.CLKPWR_DeepPowerDown
                0x00000000       0x20 ./driver_source/lpc17xx_clkpwr.o
 .text          0x00000000        0x0 ./driver_source/lpc17xx_dac.o
 .data          0x00000000        0x0 ./driver_source/lpc17xx_dac.o
 .bss           0x00000000        0x0 ./driver_source/lpc17xx_dac.o
 .text.DAC_Init
                0x00000000       0x30 ./driver_source/lpc17xx_dac.o
 .text.DAC_UpdateValue
                0x00000000       0x30 ./driver_source/lpc17xx_dac.o
 .text.DAC_SetBias
                0x00000000       0x34 ./driver_source/lpc17xx_dac.o
 .text.DAC_ConfigDAConverterControl
                0x00000000       0x50 ./driver_source/lpc17xx_dac.o
 .text.DAC_SetDMATimeOut
                0x00000000       0x28 ./driver_source/lpc17xx_dac.o
 .rodata.str1.4
                0x00000000       0x20 ./driver_source/lpc17xx_dac.o
 .text          0x00000000        0x0 ./driver_source/lpc17xx_emac.o
 .data          0x00000000        0x0 ./driver_source/lpc17xx_emac.o
 .bss           0x00000000     0x2a90 ./driver_source/lpc17xx_emac.o
 .text.setEmacAddr
                0x00000000       0x28 ./driver_source/lpc17xx_emac.o
 .text.EMAC_DeInit
                0x00000000       0x1c ./driver_source/lpc17xx_emac.o
 .text.EMAC_CheckPHYStatus
                0x00000000       0x74 ./driver_source/lpc17xx_emac.o
 .text.EMAC_SetPHYMode
                0x00000000      0x2f0 ./driver_source/lpc17xx_emac.o
 .text.EMAC_Init
                0x00000000      0x284 ./driver_source/lpc17xx_emac.o
 .text.EMAC_UpdatePHYStatus
                0x00000000       0xb0 ./driver_source/lpc17xx_emac.o
 .text.EMAC_SetHashFilter
                0x00000000      0x40c ./driver_source/lpc17xx_emac.o
 .text.EMAC_CRCCalc
                0x00000000       0xd8 ./driver_source/lpc17xx_emac.o
 .text.EMAC_SetFilterMode
                0x00000000       0x18 ./driver_source/lpc17xx_emac.o
 .text.EMAC_GetWoLStatus
                0x00000000       0x18 ./driver_source/lpc17xx_emac.o
 .text.EMAC_WritePacketBuffer
                0x00000000       0x98 ./driver_source/lpc17xx_emac.o
 .text.EMAC_ReadPacketBuffer
                0x00000000       0x88 ./driver_source/lpc17xx_emac.o
 .text.EMAC_StandardIRQHandler
                0x00000000       0xc4 ./driver_source/lpc17xx_emac.o
 .text.EMAC_SetupIntCBS
                0x00000000       0x90 ./driver_source/lpc17xx_emac.o
 .text.EMAC_IntCmd
                0x00000000       0x18 ./driver_source/lpc17xx_emac.o
 .text.EMAC_IntGetStatus
                0x00000000       0x18 ./driver_source/lpc17xx_emac.o
 .text.EMAC_CheckReceiveIndex
                0x00000000       0x14 ./driver_source/lpc17xx_emac.o
 .text.EMAC_CheckTransmitIndex
                0x00000000       0x18 ./driver_source/lpc17xx_emac.o
 .text.EMAC_CheckReceiveDataStatus
                0x00000000       0x24 ./driver_source/lpc17xx_emac.o
 .text.EMAC_GetReceiveDataSize
                0x00000000       0x20 ./driver_source/lpc17xx_emac.o
 .text.EMAC_UpdateRxConsumeIndex
                0x00000000       0x18 ./driver_source/lpc17xx_emac.o
 .text.EMAC_UpdateTxProduceIndex
                0x00000000       0x18 ./driver_source/lpc17xx_emac.o
 .rodata        0x00000000        0x8 ./driver_source/lpc17xx_emac.o
 .text          0x00000000        0x0 ./driver_source/lpc17xx_gpdma.o
 .data          0x00000000       0x20 ./driver_source/lpc17xx_gpdma.o
 .text.GPDMA_Init
                0x00000000       0x78 ./driver_source/lpc17xx_gpdma.o
 .text.GPDMA_Setup
                0x00000000      0x228 ./driver_source/lpc17xx_gpdma.o
 .text.GPDMA_ChannelCmd
                0x00000000       0x20 ./driver_source/lpc17xx_gpdma.o
 .rodata        0x00000000       0x90 ./driver_source/lpc17xx_gpdma.o
 .text          0x00000000        0x0 ./driver_source/lpc17xx_gpio.o
 .data          0x00000000        0x0 ./driver_source/lpc17xx_gpio.o
 .bss           0x00000000        0x0 ./driver_source/lpc17xx_gpio.o
 .text.FIO_SetDir
                0x00000000       0x28 ./driver_source/lpc17xx_gpio.o
 .text.FIO_SetValue
                0x00000000       0x18 ./driver_source/lpc17xx_gpio.o
 .text.FIO_ClearValue
                0x00000000       0x18 ./driver_source/lpc17xx_gpio.o
 .text.FIO_ReadValue
                0x00000000       0x1c ./driver_source/lpc17xx_gpio.o
 .text.FIO_SetMask
                0x00000000       0x28 ./driver_source/lpc17xx_gpio.o
 .text.FIO_HalfWordSetDir
                0x00000000       0x54 ./driver_source/lpc17xx_gpio.o
 .text.FIO_HalfWordSetMask
                0x00000000       0x54 ./driver_source/lpc17xx_gpio.o
 .text.FIO_HalfWordSetValue
                0x00000000       0x20 ./driver_source/lpc17xx_gpio.o
 .text.FIO_HalfWordClearValue
                0x00000000       0x20 ./driver_source/lpc17xx_gpio.o
 .text.FIO_HalfWordReadValue
                0x00000000       0x28 ./driver_source/lpc17xx_gpio.o
 .text.FIO_ByteSetDir
                0x00000000       0x38 ./driver_source/lpc17xx_gpio.o
 .text.FIO_ByteSetMask
                0x00000000       0x3c ./driver_source/lpc17xx_gpio.o
 .text.FIO_ByteSetValue
                0x00000000       0x20 ./driver_source/lpc17xx_gpio.o
 .text.FIO_ByteClearValue
                0x00000000       0x20 ./driver_source/lpc17xx_gpio.o
 .text.FIO_ByteReadValue
                0x00000000       0x28 ./driver_source/lpc17xx_gpio.o
 .text          0x00000000        0x0 ./driver_source/lpc17xx_i2c.o
 .data          0x00000000        0x0 ./driver_source/lpc17xx_i2c.o
 .text.I2C_SlaveHandler
                0x00000000      0x254 ./driver_source/lpc17xx_i2c.o
 .text.I2C_IntCmd
                0x00000000       0xb0 ./driver_source/lpc17xx_i2c.o
 .text.I2C_SetClock
                0x00000000       0x90 ./driver_source/lpc17xx_i2c.o
 .text.I2C_DeInit
                0x00000000       0x90 ./driver_source/lpc17xx_i2c.o
 .text.I2C_SlaveTransferData
                0x00000000      0x1d8 ./driver_source/lpc17xx_i2c.o
 .text.I2C_SetOwnSlaveAddr
                0x00000000       0xc8 ./driver_source/lpc17xx_i2c.o
 .text.I2C_MonitorModeConfig
                0x00000000       0x70 ./driver_source/lpc17xx_i2c.o
 .text.I2C_MonitorModeCmd
                0x00000000       0x6c ./driver_source/lpc17xx_i2c.o
 .text.I2C_MonitorGetDatabuffer
                0x00000000       0x44 ./driver_source/lpc17xx_i2c.o
 .text          0x00000000        0x0 ./driver_source/lpc17xx_i2s.o
 .data          0x00000000        0x0 ./driver_source/lpc17xx_i2s.o
 .text.I2S_GetWordWidth
                0x00000000       0x58 ./driver_source/lpc17xx_i2s.o
 .text.I2S_GetChannel
                0x00000000       0x58 ./driver_source/lpc17xx_i2s.o
 .text.I2S_Init
                0x00000000       0x38 ./driver_source/lpc17xx_i2s.o
 .text.I2S_Config
                0x00000000       0xe8 ./driver_source/lpc17xx_i2s.o
 .text.I2S_DeInit
                0x00000000       0x2c ./driver_source/lpc17xx_i2s.o
 .text.I2S_GetLevel
                0x00000000       0x48 ./driver_source/lpc17xx_i2s.o
 .text.I2S_Start
                0x00000000       0x2c ./driver_source/lpc17xx_i2s.o
 .text.I2S_Send
                0x00000000       0x24 ./driver_source/lpc17xx_i2s.o
 .text.I2S_Receive
                0x00000000       0x24 ./driver_source/lpc17xx_i2s.o
 .text.I2S_Pause
                0x00000000       0x50 ./driver_source/lpc17xx_i2s.o
 .text.I2S_Mute
                0x00000000       0x50 ./driver_source/lpc17xx_i2s.o
 .text.I2S_Stop
                0x00000000       0x68 ./driver_source/lpc17xx_i2s.o
 .text.I2S_FreqConfig
                0x00000000      0x274 ./driver_source/lpc17xx_i2s.o
 .text.I2S_SetBitRate
                0x00000000       0x60 ./driver_source/lpc17xx_i2s.o
 .text.I2S_ModeConfig
                0x00000000       0xfc ./driver_source/lpc17xx_i2s.o
 .text.I2S_DMAConfig
                0x00000000       0x9c ./driver_source/lpc17xx_i2s.o
 .text.I2S_DMACmd
                0x00000000       0xc4 ./driver_source/lpc17xx_i2s.o
 .text.I2S_IRQConfig
                0x00000000       0x70 ./driver_source/lpc17xx_i2s.o
 .text.I2S_IRQCmd
                0x00000000       0x60 ./driver_source/lpc17xx_i2s.o
 .rodata        0x00000000        0x4 ./driver_source/lpc17xx_i2s.o
 .rodata.str1.4
                0x00000000       0x20 ./driver_source/lpc17xx_i2s.o
 .text          0x00000000        0x0 ./driver_source/lpc17xx_libcfg_default.o
 .data          0x00000000        0x0 ./driver_source/lpc17xx_libcfg_default.o
 .bss           0x00000000        0x0 ./driver_source/lpc17xx_libcfg_default.o
 .text          0x00000000        0x0 ./driver_source/lpc17xx_mcpwm.o
 .data          0x00000000        0x0 ./driver_source/lpc17xx_mcpwm.o
 .bss           0x00000000        0x0 ./driver_source/lpc17xx_mcpwm.o
 .text.MCPWM_Init
                0x00000000       0x1c ./driver_source/lpc17xx_mcpwm.o
 .text.MCPWM_ConfigChannel
                0x00000000       0xdc ./driver_source/lpc17xx_mcpwm.o
 .text.MCPWM_WriteToShadow
                0x00000000       0x28 ./driver_source/lpc17xx_mcpwm.o
 .text.MCPWM_ConfigCapture
                0x00000000       0xe0 ./driver_source/lpc17xx_mcpwm.o
 .text.MCPWM_ClearCapture
                0x00000000       0x14 ./driver_source/lpc17xx_mcpwm.o
 .text.MCPWM_GetCapture
                0x00000000       0x18 ./driver_source/lpc17xx_mcpwm.o
 .text.MCPWM_CountConfig
                0x00000000       0xa0 ./driver_source/lpc17xx_mcpwm.o
 .text.MCPWM_Start
                0x00000000       0x28 ./driver_source/lpc17xx_mcpwm.o
 .text.MCPWM_Stop
                0x00000000       0x28 ./driver_source/lpc17xx_mcpwm.o
 .text.MCPWM_ACMode
                0x00000000       0x14 ./driver_source/lpc17xx_mcpwm.o
 .text.MCPWM_DCMode
                0x00000000       0x28 ./driver_source/lpc17xx_mcpwm.o
 .text.MCPWM_IntConfig
                0x00000000        0xc ./driver_source/lpc17xx_mcpwm.o
 .text.MCPWM_IntSet
                0x00000000        0x4 ./driver_source/lpc17xx_mcpwm.o
 .text.MCPWM_IntClear
                0x00000000        0x4 ./driver_source/lpc17xx_mcpwm.o
 .text.MCPWM_GetIntStatus
                0x00000000        0xc ./driver_source/lpc17xx_mcpwm.o
 .text          0x00000000        0x0 ./driver_source/lpc17xx_nvic.o
 .data          0x00000000        0x0 ./driver_source/lpc17xx_nvic.o
 .bss           0x00000000        0x0 ./driver_source/lpc17xx_nvic.o
 .text.NVIC_DeInit
                0x00000000       0x68 ./driver_source/lpc17xx_nvic.o
 .text.NVIC_SCBDeInit
                0x00000000       0x78 ./driver_source/lpc17xx_nvic.o
 .text.NVIC_SetVTOR
                0x00000000       0x14 ./driver_source/lpc17xx_nvic.o
 .text          0x00000000        0x0 ./driver_source/lpc17xx_pinsel.o
 .data          0x00000000        0x0 ./driver_source/lpc17xx_pinsel.o
 .bss           0x00000000        0x0 ./driver_source/lpc17xx_pinsel.o
 .text.PINSEL_SetPinFunc
                0x00000000       0x30 ./driver_source/lpc17xx_pinsel.o
 .text.PINSEL_ConfigTraceFunc
                0x00000000       0x30 ./driver_source/lpc17xx_pinsel.o
 .text.PINSEL_SetResistorMode
                0x00000000       0x30 ./driver_source/lpc17xx_pinsel.o
 .text.PINSEL_SetOpenDrainMode
                0x00000000       0x3c ./driver_source/lpc17xx_pinsel.o
 .text.PINSEL_SetI2C0Pins
                0x00000000       0x14 ./driver_source/lpc17xx_pinsel.o
 .text          0x00000000        0x0 ./driver_source/lpc17xx_pwm.o
 .data          0x00000000        0x0 ./driver_source/lpc17xx_pwm.o
 .bss           0x00000000        0x0 ./driver_source/lpc17xx_pwm.o
 .text.PWM_GetIntStatus
                0x00000000       0x90 ./driver_source/lpc17xx_pwm.o
 .text.PWM_ClearIntPending
                0x00000000       0x88 ./driver_source/lpc17xx_pwm.o
 .text.PWM_ConfigStructInit
                0x00000000       0x28 ./driver_source/lpc17xx_pwm.o
 .text.PWM_Init
                0x00000000      0x104 ./driver_source/lpc17xx_pwm.o
 .text.PWM_DeInit
                0x00000000       0x3c ./driver_source/lpc17xx_pwm.o
 .text.PWM_Cmd  0x00000000       0x48 ./driver_source/lpc17xx_pwm.o
 .text.PWM_CounterCmd
                0x00000000       0x4c ./driver_source/lpc17xx_pwm.o
 .text.PWM_ResetCounter
                0x00000000       0x34 ./driver_source/lpc17xx_pwm.o
 .text.PWM_ConfigMatch
                0x00000000      0x150 ./driver_source/lpc17xx_pwm.o
 .text.PWM_ConfigCapture
                0x00000000      0x158 ./driver_source/lpc17xx_pwm.o
 .text.PWM_GetCaptureValue
                0x00000000       0x48 ./driver_source/lpc17xx_pwm.o
 .text.PWM_MatchUpdate
                0x00000000       0xc8 ./driver_source/lpc17xx_pwm.o
 .text.PWM_ChannelConfig
                0x00000000       0x9c ./driver_source/lpc17xx_pwm.o
 .text.PWM_ChannelCmd
                0x00000000       0x84 ./driver_source/lpc17xx_pwm.o
 .rodata.str1.4
                0x00000000       0x20 ./driver_source/lpc17xx_pwm.o
 .text          0x00000000        0x0 ./driver_source/lpc17xx_qei.o
 .data          0x00000000        0x0 ./driver_source/lpc17xx_qei.o
 .bss           0x00000000        0x0 ./driver_source/lpc17xx_qei.o
 .text.QEI_Reset
                0x00000000       0x4c ./driver_source/lpc17xx_qei.o
 .text.QEI_Init
                0x00000000       0x5c ./driver_source/lpc17xx_qei.o
 .text.QEI_DeInit
                0x00000000       0x2c ./driver_source/lpc17xx_qei.o
 .text.QEI_ConfigStructInit
                0x00000000       0x14 ./driver_source/lpc17xx_qei.o
 .text.QEI_GetStatus
                0x00000000       0x40 ./driver_source/lpc17xx_qei.o
 .text.QEI_GetPosition
                0x00000000       0x24 ./driver_source/lpc17xx_qei.o
 .text.QEI_SetMaxPosition
                0x00000000       0x24 ./driver_source/lpc17xx_qei.o
 .text.QEI_SetPositionComp
                0x00000000       0x3c ./driver_source/lpc17xx_qei.o
 .text.QEI_GetIndex
                0x00000000       0x24 ./driver_source/lpc17xx_qei.o
 .text.QEI_SetIndexComp
                0x00000000       0x24 ./driver_source/lpc17xx_qei.o
 .text.QEI_SetTimerReload
                0x00000000       0x6c ./driver_source/lpc17xx_qei.o
 .text.QEI_GetTimer
                0x00000000       0x24 ./driver_source/lpc17xx_qei.o
 .text.QEI_GetVelocity
                0x00000000       0x24 ./driver_source/lpc17xx_qei.o
 .text.QEI_GetVelocityCap
                0x00000000       0x24 ./driver_source/lpc17xx_qei.o
 .text.QEI_SetVelocityComp
                0x00000000       0x28 ./driver_source/lpc17xx_qei.o
 .text.QEI_SetDigiFilter
                0x00000000       0x28 ./driver_source/lpc17xx_qei.o
 .text.QEI_GetIntStatus
                0x00000000       0xc4 ./driver_source/lpc17xx_qei.o
 .text.QEI_IntCmd
                0x00000000       0xe0 ./driver_source/lpc17xx_qei.o
 .text.QEI_IntSet
                0x00000000       0xbc ./driver_source/lpc17xx_qei.o
 .text.QEI_IntClear
                0x00000000       0xbc ./driver_source/lpc17xx_qei.o
 .text.QEI_CalculateRPM
                0x00000000       0x4c ./driver_source/lpc17xx_qei.o
 .rodata.str1.4
                0x00000000       0x20 ./driver_source/lpc17xx_qei.o
 .text          0x00000000        0x0 ./driver_source/lpc17xx_rit.o
 .data          0x00000000        0x0 ./driver_source/lpc17xx_rit.o
 .bss           0x00000000        0x0 ./driver_source/lpc17xx_rit.o
 .text.RIT_Init
                0x00000000       0x38 ./driver_source/lpc17xx_rit.o
 .text.RIT_DeInit
                0x00000000       0x38 ./driver_source/lpc17xx_rit.o
 .text.RIT_TimerConfig
                0x00000000       0x2c ./driver_source/lpc17xx_rit.o
 .text.RIT_Cmd  0x00000000       0x48 ./driver_source/lpc17xx_rit.o
 .text.RIT_TimerClearCmd
                0x00000000       0x48 ./driver_source/lpc17xx_rit.o
 .text.RIT_TimerEnableOnBreakCmd
                0x00000000       0x48 ./driver_source/lpc17xx_rit.o
 .text.RIT_GetIntStatus
                0x00000000       0x30 ./driver_source/lpc17xx_rit.o
 .rodata.str1.4
                0x00000000       0x20 ./driver_source/lpc17xx_rit.o
 .text          0x00000000        0x0 ./driver_source/lpc17xx_rtc.o
 .data          0x00000000        0x0 ./driver_source/lpc17xx_rtc.o
 .bss           0x00000000        0x0 ./driver_source/lpc17xx_rtc.o
 .text.RTC_DeInit
                0x00000000       0x30 ./driver_source/lpc17xx_rtc.o
 .text.RTC_CntIncrIntConfig
                0x00000000      0x11c ./driver_source/lpc17xx_rtc.o
 .text.RTC_AlarmIntConfig
                0x00000000      0x11c ./driver_source/lpc17xx_rtc.o
 .text.RTC_GetTime
                0x00000000       0x98 ./driver_source/lpc17xx_rtc.o
 .text.RTC_SetFullTime
                0x00000000       0x70 ./driver_source/lpc17xx_rtc.o
 .text.RTC_SetAlarmTime
                0x00000000      0x134 ./driver_source/lpc17xx_rtc.o
 .text.RTC_GetAlarmTime
                0x00000000       0x64 ./driver_source/lpc17xx_rtc.o
 .text.RTC_SetFullAlarmTime
                0x00000000       0x74 ./driver_source/lpc17xx_rtc.o
 .text.RTC_GetFullAlarmTime
                0x00000000       0x74 ./driver_source/lpc17xx_rtc.o
 .text.RTC_GetIntPending
                0x00000000       0x44 ./driver_source/lpc17xx_rtc.o
 .text.RTC_ClearIntPending
                0x00000000       0x40 ./driver_source/lpc17xx_rtc.o
 .text.RTC_CalibConfig
                0x00000000       0x6c ./driver_source/lpc17xx_rtc.o
 .text.RTC_WriteGPREG
                0x00000000       0x40 ./driver_source/lpc17xx_rtc.o
 .text.RTC_ReadGPREG
                0x00000000       0x40 ./driver_source/lpc17xx_rtc.o
 .text          0x00000000        0x0 ./driver_source/lpc17xx_sd.o
 .text.LPC17xx_SPI_Select
                0x00000000       0x14 ./driver_source/lpc17xx_sd.o
 .text.LPC17xx_SPI_DeSelect
                0x00000000       0x14 ./driver_source/lpc17xx_sd.o
 .text.LPC17xx_SPI_Release
                0x00000000       0x1c ./driver_source/lpc17xx_sd.o
 .text.disk_timerproc
                0x00000000       0x30 ./driver_source/lpc17xx_sd.o
 .text          0x00000000        0x0 ./driver_source/lpc17xx_spi.o
 .data          0x00000000        0x0 ./driver_source/lpc17xx_spi.o
 .text.SPI_SetClock
                0x00000000       0x88 ./driver_source/lpc17xx_spi.o
 .text.SPI_DeInit
                0x00000000       0x38 ./driver_source/lpc17xx_spi.o
 .text.SPI_ReadWrite
                0x00000000      0x20c ./driver_source/lpc17xx_spi.o
 .text.SPI_IntCmd
                0x00000000       0x50 ./driver_source/lpc17xx_spi.o
 .text.SPI_GetIntStatus
                0x00000000       0x28 ./driver_source/lpc17xx_spi.o
 .text.SPI_ClearIntPending
                0x00000000       0x24 ./driver_source/lpc17xx_spi.o
 .text.SPI_GetStatus
                0x00000000       0x28 ./driver_source/lpc17xx_spi.o
 .text.SPI_CheckStatus
                0x00000000       0x4c ./driver_source/lpc17xx_spi.o
 .text.SPI_StdIntHandler
                0x00000000       0x10 ./driver_source/lpc17xx_spi.o
 .text          0x00000000        0x0 ./driver_source/lpc17xx_ssp.o
 .data          0x00000000        0x0 ./driver_source/lpc17xx_ssp.o
 .text.SSP_IntHandler
                0x00000000      0x2e0 ./driver_source/lpc17xx_ssp.o
 .text.SSP_SetClock
                0x00000000       0xa4 ./driver_source/lpc17xx_ssp.o
 .text.SSP_DeInit
                0x00000000       0x6c ./driver_source/lpc17xx_ssp.o
 .text.SSP_Init
                0x00000000      0x150 ./driver_source/lpc17xx_ssp.o
 .text.SSP_ConfigStructInit
                0x00000000       0x1c ./driver_source/lpc17xx_ssp.o
 .text.SSP_Cmd  0x00000000       0x64 ./driver_source/lpc17xx_ssp.o
 .text.SSP_LoopBackCmd
                0x00000000       0x64 ./driver_source/lpc17xx_ssp.o
 .text.SSP_SlaveOutputCmd
                0x00000000       0x64 ./driver_source/lpc17xx_ssp.o
 .text.SSP_SendData
                0x00000000       0x3c ./driver_source/lpc17xx_ssp.o
 .text.SSP_ReceiveData
                0x00000000       0x3c ./driver_source/lpc17xx_ssp.o
 .text.SSP_ReadWrite
                0x00000000      0x4d4 ./driver_source/lpc17xx_ssp.o
 .text.SSP_GetStatus
                0x00000000       0x8c ./driver_source/lpc17xx_ssp.o
 .text.SSP_IntConfig
                0x00000000       0x78 ./driver_source/lpc17xx_ssp.o
 .text.SSP_GetRawIntStatus
                0x00000000       0x6c ./driver_source/lpc17xx_ssp.o
 .text.SSP_GetIntStatus
                0x00000000       0x6c ./driver_source/lpc17xx_ssp.o
 .text.SSP_ClearIntPending
                0x00000000       0x54 ./driver_source/lpc17xx_ssp.o
 .text.SSP_DMACmd
                0x00000000       0x7c ./driver_source/lpc17xx_ssp.o
 .rodata.str1.4
                0x00000000       0x20 ./driver_source/lpc17xx_ssp.o
 .text          0x00000000        0x0 ./driver_source/lpc17xx_timer.o
 .data          0x00000000        0x0 ./driver_source/lpc17xx_timer.o
 .bss           0x00000000        0x0 ./driver_source/lpc17xx_timer.o
 .text.TIM_GetPClock
                0x00000000       0x28 ./driver_source/lpc17xx_timer.o
 .text.TIM_ConverUSecToVal
                0x00000000       0x80 ./driver_source/lpc17xx_timer.o
 .text.TIM_ConverPtrToTimeNum
                0x00000000       0x44 ./driver_source/lpc17xx_timer.o
 .text.TIM_GetIntStatus
                0x00000000       0x84 ./driver_source/lpc17xx_timer.o
 .text.TIM_GetIntCaptureStatus
                0x00000000       0x84 ./driver_source/lpc17xx_timer.o
 .text.TIM_ClearIntPending
                0x00000000       0x78 ./driver_source/lpc17xx_timer.o
 .text.TIM_ClearIntCapturePending
                0x00000000       0x7c ./driver_source/lpc17xx_timer.o
 .text.TIM_ConfigStructInit
                0x00000000       0x10 ./driver_source/lpc17xx_timer.o
 .text.TIM_Init
                0x00000000      0x1b0 ./driver_source/lpc17xx_timer.o
 .text.TIM_DeInit
                0x00000000       0xac ./driver_source/lpc17xx_timer.o
 .text.TIM_Cmd  0x00000000       0x6c ./driver_source/lpc17xx_timer.o
 .text.TIM_ResetCounter
                0x00000000       0x6c ./driver_source/lpc17xx_timer.o
 .text.TIM_ConfigMatch
                0x00000000      0x118 ./driver_source/lpc17xx_timer.o
 .text.TIM_ConfigCapture
                0x00000000       0xc0 ./driver_source/lpc17xx_timer.o
 .text.TIM_GetCaptureValue
                0x00000000       0x7c ./driver_source/lpc17xx_timer.o
 .rodata.str1.4
                0x00000000       0x24 ./driver_source/lpc17xx_timer.o
 .text          0x00000000        0x0 ./driver_source/lpc17xx_uart.o
 .data          0x00000000        0x0 ./driver_source/lpc17xx_uart.o
 .text.UART_Send.clone.1
                0x00000000      0x1e8 ./driver_source/lpc17xx_uart.o
 .text.getUartNum
                0x00000000       0x30 ./driver_source/lpc17xx_uart.o
 .text.UART_DeInit
                0x00000000       0xd4 ./driver_source/lpc17xx_uart.o
 .text.UART_SendData
                0x00000000       0x60 ./driver_source/lpc17xx_uart.o
 .text.UART_ReceiveData
                0x00000000       0x60 ./driver_source/lpc17xx_uart.o
 .text.UART_ForceBreak
                0x00000000       0x6c ./driver_source/lpc17xx_uart.o
 .text.UART_IrDAInvtInputCmd
                0x00000000       0x5c ./driver_source/lpc17xx_uart.o
 .text.UART_IrDACmd
                0x00000000       0x54 ./driver_source/lpc17xx_uart.o
 .text.UART_IrDAPulseDivConfig
                0x00000000       0x54 ./driver_source/lpc17xx_uart.o
 .text.UART_GetLineStatus
                0x00000000       0x60 ./driver_source/lpc17xx_uart.o
 .text.UART_ABCmd
                0x00000000       0xfc ./driver_source/lpc17xx_uart.o
 .text.UART_FullModemConfigMode
                0x00000000       0x78 ./driver_source/lpc17xx_uart.o
 .text.UART_FullModemGetStatus
                0x00000000       0x24 ./driver_source/lpc17xx_uart.o
 .text.UART_RS485Config
                0x00000000      0x13c ./driver_source/lpc17xx_uart.o
 .text.UART_RS485ReceiverCmd
                0x00000000       0x18 ./driver_source/lpc17xx_uart.o
 .text.UART_RS485Send
                0x00000000       0x2c ./driver_source/lpc17xx_uart.o
 .text.UART_RS485SendSlvAddr
                0x00000000       0x2c ./driver_source/lpc17xx_uart.o
 .text.UART_RS485SendData
                0x00000000       0x14 ./driver_source/lpc17xx_uart.o
 .text          0x00000000        0x0 ./driver_source/lpc17xx_wdt.o
 .data          0x00000000        0x0 ./driver_source/lpc17xx_wdt.o
 .bss           0x00000000        0x0 ./driver_source/lpc17xx_wdt.o
 .text.WDT_SetTimeOut
                0x00000000       0xa0 ./driver_source/lpc17xx_wdt.o
 .text.WDT_Init
                0x00000000       0x80 ./driver_source/lpc17xx_wdt.o
 .text.WDT_Start
                0x00000000       0xa4 ./driver_source/lpc17xx_wdt.o
 .text.WDT_ReadTimeOutFlag
                0x00000000        0xc ./driver_source/lpc17xx_wdt.o
 .text.WDT_ClrTimeOutFlag
                0x00000000       0x10 ./driver_source/lpc17xx_wdt.o
 .text.WDT_UpdateTimeOut
                0x00000000       0x98 ./driver_source/lpc17xx_wdt.o
 .text.WDT_Feed
                0x00000000       0x14 ./driver_source/lpc17xx_wdt.o
 .text.WDT_GetCurrentCount
                0x00000000        0x8 ./driver_source/lpc17xx_wdt.o
 .rodata.str1.4
                0x00000000       0x20 ./driver_source/lpc17xx_wdt.o
 .text          0x00000000        0x0 ./UsbHost/Uart/usbhost_uart.o
 .data          0x00000000        0x0 ./UsbHost/Uart/usbhost_uart.o
 .text.UARTSend_usb
                0x00000000      0x1c0 ./UsbHost/Uart/usbhost_uart.o
 .text.UARTReceive_usb
                0x00000000      0x15c ./UsbHost/Uart/usbhost_uart.o
 .text.UART1_ModemCallBack_usb
                0x00000000       0x24 ./UsbHost/Uart/usbhost_uart.o
 .text.UART_PrintChar
                0x00000000       0x1c ./UsbHost/Uart/usbhost_uart.o
 .text.UART_PrintStr
                0x00000000       0x70 ./UsbHost/Uart/usbhost_uart.o
 .text          0x00000000        0x0 ./UsbHost/MassStorage/usbhost_ms.o
 .data          0x00000000        0x0 ./UsbHost/MassStorage/usbhost_ms.o
 .bss           0x00000000        0x0 ./UsbHost/MassStorage/usbhost_ms.o
 .text.MS_GetMaxLUN
                0x00000000       0x24 ./UsbHost/MassStorage/usbhost_ms.o
 .text.MS_GetSenseInfo
                0x00000000       0x78 ./UsbHost/MassStorage/usbhost_ms.o
 .text          0x00000000        0x0 ./UsbHost/Main/usbhost_main.o
 .data          0x00000000        0x0 ./UsbHost/Main/usbhost_main.o
 .text          0x00000000        0x0 ./UsbHost/Host/usb_ms_diskio.o
 .data          0x00000000        0x0 ./UsbHost/Host/usb_ms_diskio.o
 .text.FAT_GetFATType_USB
                0x00000000       0x10 ./UsbHost/Host/usb_ms_diskio.o
 .text.USB_disk_timerproc
                0x00000000       0x28 ./UsbHost/Host/usb_ms_diskio.o
 .text          0x00000000        0x0 ./UsbHost/Host/usbhost_lpc17xx.o
 .data          0x00000000        0x0 ./UsbHost/Host/usbhost_lpc17xx.o
 .text.Host_DelayMS
                0x00000000        0x4 ./UsbHost/Host/usbhost_lpc17xx.o
 .text.Host_DelayUS
                0x00000000        0x4 ./UsbHost/Host/usbhost_lpc17xx.o
 .text.Host_CtrlSend
                0x00000000      0x120 ./UsbHost/Host/usbhost_lpc17xx.o
 .text.Host_FillSetup
                0x00000000       0xd8 ./UsbHost/Host/usbhost_lpc17xx.o
 .text.Host_TDInit
                0x00000000        0xc ./UsbHost/Host/usbhost_lpc17xx.o
 .text.Host_EDInit
                0x00000000        0xc ./UsbHost/Host/usbhost_lpc17xx.o
 .text.Host_HCCAInit
                0x00000000       0x48 ./UsbHost/Host/usbhost_lpc17xx.o
 .text.Host_WDHWait
                0x00000000       0x1c ./UsbHost/Host/usbhost_lpc17xx.o
 .text.ReadLE32U
                0x00000000       0x24 ./UsbHost/Host/usbhost_lpc17xx.o
 .text.WriteLE16U
                0x00000000       0x10 ./UsbHost/Host/usbhost_lpc17xx.o
 .text.ReadBE16U
                0x00000000       0x18 ./UsbHost/Host/usbhost_lpc17xx.o
 .text          0x00000000        0x0 ./LPCUSB/USB_CDC.o
 .data          0x00000000        0x8 ./LPCUSB/USB_CDC.o
 .bss           0x00000000       0x50 ./LPCUSB/USB_CDC.o
 .text.USBFrameHandler
                0x00000000       0x20 ./LPCUSB/USB_CDC.o
 .text.BulkOut  0x00000000       0xcc ./LPCUSB/USB_CDC.o
 .text.BulkIn   0x00000000       0x98 ./LPCUSB/USB_CDC.o
 .text.HandleClassRequest
                0x00000000       0x40 ./LPCUSB/USB_CDC.o
 .text.VCOM_putchar
                0x00000000       0x2c ./LPCUSB/USB_CDC.o
 .text.VCOM_getchar
                0x00000000       0x24 ./LPCUSB/USB_CDC.o
 .text.USB_IRQHandler
                0x00000000        0x4 ./LPCUSB/USB_CDC.o
 .text.CPUcpsie
                0x00000000        0xc ./LPCUSB/USB_CDC.o
 .text.vUSBTask
                0x00000000      0x13c ./LPCUSB/USB_CDC.o
 .rodata        0x00000000       0x90 ./LPCUSB/USB_CDC.o
 .rodata.str1.4
                0x00000000       0x58 ./LPCUSB/USB_CDC.o
 .text          0x00000000        0x0 ./LPCUSB/usbcontrol.o
 .data          0x00000000        0x0 ./LPCUSB/usbcontrol.o
 .bss           0x00000000       0x34 ./LPCUSB/usbcontrol.o
 .text.USBHandleControlTransfer
                0x00000000      0x120 ./LPCUSB/usbcontrol.o
 .text.USBRegisterRequestHandler
                0x00000000       0x14 ./LPCUSB/usbcontrol.o
 .text          0x00000000        0x0 ./LPCUSB/usbhw_lpc.o
 .data          0x00000000        0x0 ./LPCUSB/usbhw_lpc.o
 .bss           0x00000000       0x48 ./LPCUSB/usbhw_lpc.o
 .text.USBHwEPConfig
                0x00000000       0x9c ./LPCUSB/usbhw_lpc.o
 .text.USBHwRegisterEPIntHandler
                0x00000000       0x44 ./LPCUSB/usbhw_lpc.o
 .text.USBHwRegisterDevIntHandler
                0x00000000       0x20 ./LPCUSB/usbhw_lpc.o
 .text.USBHwRegisterFrameHandler
                0x00000000       0x20 ./LPCUSB/usbhw_lpc.o
 .text.USBHwSetAddress
                0x00000000       0x5c ./LPCUSB/usbhw_lpc.o
 .text.USBHwConnect
                0x00000000       0x60 ./LPCUSB/usbhw_lpc.o
 .text.USBHwNakIntEnable
                0x00000000       0x58 ./LPCUSB/usbhw_lpc.o
 .text.USBHwEPGetStatus
                0x00000000       0x68 ./LPCUSB/usbhw_lpc.o
 .text.USBHwEPStall
                0x00000000       0x6c ./LPCUSB/usbhw_lpc.o
 .text.USBHwEPWrite
                0x00000000       0xb8 ./LPCUSB/usbhw_lpc.o
 .text.USBHwEPRead
                0x00000000      0x1d0 ./LPCUSB/usbhw_lpc.o
 .text.USBHwConfigDevice
                0x00000000       0x60 ./LPCUSB/usbhw_lpc.o
 .text.USBHwISR
                0x00000000      0x174 ./LPCUSB/usbhw_lpc.o
 .text.USBHwInit
                0x00000000      0x104 ./LPCUSB/usbhw_lpc.o
 .text          0x00000000        0x0 ./LPCUSB/usbinit.o
 .data          0x00000000        0x0 ./LPCUSB/usbinit.o
 .bss           0x00000000        0x8 ./LPCUSB/usbinit.o
 .text.HandleUsbReset
                0x00000000        0x4 ./LPCUSB/usbinit.o
 .text.USBInit  0x00000000       0x54 ./LPCUSB/usbinit.o
 .text          0x00000000        0x0 ./LPCUSB/usbstdreq.o
 .data          0x00000000        0x0 ./LPCUSB/usbstdreq.o
 .bss           0x00000000        0xc ./LPCUSB/usbstdreq.o
 .text.USBRegisterDescriptors
                0x00000000        0xc ./LPCUSB/usbstdreq.o
 .text.USBGetDescriptor
                0x00000000       0x58 ./LPCUSB/usbstdreq.o
 .text.USBHandleStandardRequest
                0x00000000      0x1c0 ./LPCUSB/usbstdreq.o
 .text.USBRegisterCustomReqHandler
                0x00000000        0xc ./LPCUSB/usbstdreq.o
 .text          0x00000000        0x0 ./FatFs/option/cc932.o
 .data          0x00000000        0x0 ./FatFs/option/cc932.o
 .bss           0x00000000        0x0 ./FatFs/option/cc932.o
 .text          0x00000000        0x0 ./FatFs/option/syncobj.o
 .data          0x00000000        0x0 ./FatFs/option/syncobj.o
 .bss           0x00000000        0x0 ./FatFs/option/syncobj.o
 .text          0x00000000        0x0 ./FatFs/option/syscall.o
 .data          0x00000000        0x0 ./FatFs/option/syscall.o
 .bss           0x00000000        0x0 ./FatFs/option/syscall.o
 .text          0x00000000        0x0 ./FatFs/diskio.o
 .data          0x00000000        0x0 ./FatFs/diskio.o
 .bss           0x00000000        0x0 ./FatFs/diskio.o
 .text          0x00000000        0x0 ./FatFs/ff.o
 .data          0x00000000        0x0 ./FatFs/ff.o
 .text.clust2sect
                0x00000000       0x18 ./FatFs/ff.o
 .text.gen_numname
                0x00000000      0x250 ./FatFs/ff.o
 .text.f_stat   0x00000000       0x4c ./FatFs/ff.o
 .text.f_getfree
                0x00000000      0x268 ./FatFs/ff.o
 .text.f_chmod  0x00000000       0x68 ./FatFs/ff.o
 .text.f_utime  0x00000000       0x70 ./FatFs/ff.o
 .text.f_rename
                0x00000000      0x30c ./FatFs/ff.o
 .text.f_mkfs   0x00000000      0x8d4 ./FatFs/ff.o
 .text          0x00000000        0x0 /home/nlv14991/workspaceLPC/STE-LPC1768-/CMSISv1p30_LPC17xx/Debug/libCMSISv1p30_LPC17xx.a(system_LPC17xx.o)
 .bss           0x00000000        0x0 /home/nlv14991/workspaceLPC/STE-LPC1768-/CMSISv1p30_LPC17xx/Debug/libCMSISv1p30_LPC17xx.a(system_LPC17xx.o)
 .text.SystemCoreClockUpdate
                0x00000000      0x1b4 /home/nlv14991/workspaceLPC/STE-LPC1768-/CMSISv1p30_LPC17xx/Debug/libCMSISv1p30_LPC17xx.a(system_LPC17xx.o)
 .data          0x00000000        0x0 /home/nlv14991/workspaceLPC/STE-LPC1768-/FreeRTOS_Library/Debug/libFreeRTOS_Library.a(queue.o)
 .bss           0x00000000        0x0 /home/nlv14991/workspaceLPC/STE-LPC1768-/FreeRTOS_Library/Debug/libFreeRTOS_Library.a(queue.o)
 .data          0x00000000        0x0 /home/nlv14991/workspaceLPC/STE-LPC1768-/FreeRTOS_Library/Debug/libFreeRTOS_Library.a(tasks.o)
 .data          0x00000000        0x0 /home/nlv14991/workspaceLPC/STE-LPC1768-/FreeRTOS_Library/Debug/libFreeRTOS_Library.a(heap_2.o)
 .bss           0x00000000        0x0 /home/nlv14991/workspaceLPC/STE-LPC1768-/FreeRTOS_Library/Debug/libFreeRTOS_Library.a(port.o)
 .rodata        0x00000000        0x4 /home/nlv14991/workspaceLPC/STE-LPC1768-/FreeRTOS_Library/Debug/libFreeRTOS_Library.a(port.o)
 .data          0x00000000        0x0 /home/nlv14991/workspaceLPC/STE-LPC1768-/FreeRTOS_Library/Debug/libFreeRTOS_Library.a(list.o)
 .bss           0x00000000        0x0 /home/nlv14991/workspaceLPC/STE-LPC1768-/FreeRTOS_Library/Debug/libFreeRTOS_Library.a(list.o)
 .data          0x00000000        0x0 /usr/local/lpcxpresso_4.2.3_255/lpcxpresso/tools/bin/../lib/gcc/arm-none-eabi/4.5.1/thumb2/libgcc.a(_aeabi_uldivmod.o)
 .bss           0x00000000        0x0 /usr/local/lpcxpresso_4.2.3_255/lpcxpresso/tools/bin/../lib/gcc/arm-none-eabi/4.5.1/thumb2/libgcc.a(_aeabi_uldivmod.o)
 .data          0x00000000        0x0 /usr/local/lpcxpresso_4.2.3_255/lpcxpresso/tools/bin/../lib/gcc/arm-none-eabi/4.5.1/thumb2/libgcc.a(bpabi.o)
 .bss           0x00000000        0x0 /usr/local/lpcxpresso_4.2.3_255/lpcxpresso/tools/bin/../lib/gcc/arm-none-eabi/4.5.1/thumb2/libgcc.a(bpabi.o)
 .data          0x00000000        0x0 /usr/local/lpcxpresso_4.2.3_255/lpcxpresso/tools/bin/../lib/gcc/arm-none-eabi/4.5.1/thumb2/libgcc.a(_dvmd_tls.o)
 .bss           0x00000000        0x0 /usr/local/lpcxpresso_4.2.3_255/lpcxpresso/tools/bin/../lib/gcc/arm-none-eabi/4.5.1/thumb2/libgcc.a(_dvmd_tls.o)
 .data          0x00000000        0x0 /usr/local/lpcxpresso_4.2.3_255/lpcxpresso/tools/bin/../lib/gcc/arm-none-eabi/4.5.1/thumb2/libgcc.a(_divdi3.o)
 .bss           0x00000000        0x0 /usr/local/lpcxpresso_4.2.3_255/lpcxpresso/tools/bin/../lib/gcc/arm-none-eabi/4.5.1/thumb2/libgcc.a(_divdi3.o)
 .ARM.extab     0x00000000        0x0 /usr/local/lpcxpresso_4.2.3_255/lpcxpresso/tools/bin/../lib/gcc/arm-none-eabi/4.5.1/thumb2/libgcc.a(_divdi3.o)
 .data          0x00000000        0x0 /usr/local/lpcxpresso_4.2.3_255/lpcxpresso/tools/bin/../lib/gcc/arm-none-eabi/4.5.1/thumb2/libgcc.a(_udivdi3.o)
 .bss           0x00000000        0x0 /usr/local/lpcxpresso_4.2.3_255/lpcxpresso/tools/bin/../lib/gcc/arm-none-eabi/4.5.1/thumb2/libgcc.a(_udivdi3.o)
 .ARM.extab     0x00000000        0x0 /usr/local/lpcxpresso_4.2.3_255/lpcxpresso/tools/bin/../lib/gcc/arm-none-eabi/4.5.1/thumb2/libgcc.a(_udivdi3.o)
 .data          0x00000000        0x0 /usr/local/lpcxpresso_4.2.3_255/lpcxpresso/tools/bin/../lib/gcc/arm-none-eabi/4.5.1/thumb2/libgcc.a(_udivsi3.o)
 .bss           0x00000000        0x0 /usr/local/lpcxpresso_4.2.3_255/lpcxpresso/tools/bin/../lib/gcc/arm-none-eabi/4.5.1/thumb2/libgcc.a(_udivsi3.o)
 .data          0x00000000        0x0 /usr/local/lpcxpresso_4.2.3_255/lpcxpresso/tools/bin/../lib/gcc/arm-none-eabi/4.5.1/../../../../arm-none-eabi/lib/thumb2/libc.a(lib_a-memcmp.o)
 .bss           0x00000000        0x0 /usr/local/lpcxpresso_4.2.3_255/lpcxpresso/tools/bin/../lib/gcc/arm-none-eabi/4.5.1/../../../../arm-none-eabi/lib/thumb2/libc.a(lib_a-memcmp.o)
 .data          0x00000000        0x0 /usr/local/lpcxpresso_4.2.3_255/lpcxpresso/tools/bin/../lib/gcc/arm-none-eabi/4.5.1/../../../../arm-none-eabi/lib/thumb2/libc.a(lib_a-memcpy.o)
 .bss           0x00000000        0x0 /usr/local/lpcxpresso_4.2.3_255/lpcxpresso/tools/bin/../lib/gcc/arm-none-eabi/4.5.1/../../../../arm-none-eabi/lib/thumb2/libc.a(lib_a-memcpy.o)
 .data          0x00000000        0x0 /usr/local/lpcxpresso_4.2.3_255/lpcxpresso/tools/bin/../lib/gcc/arm-none-eabi/4.5.1/../../../../arm-none-eabi/lib/thumb2/libc.a(lib_a-memset.o)
 .bss           0x00000000        0x0 /usr/local/lpcxpresso_4.2.3_255/lpcxpresso/tools/bin/../lib/gcc/arm-none-eabi/4.5.1/../../../../arm-none-eabi/lib/thumb2/libc.a(lib_a-memset.o)
 .text          0x00000000       0x64 /usr/local/lpcxpresso_4.2.3_255/lpcxpresso/tools/bin/../lib/gcc/arm-none-eabi/4.5.1/../../../../arm-none-eabi/lib/thumb2/libc.a(lib_a-printf.o)
 .data          0x00000000        0x0 /usr/local/lpcxpresso_4.2.3_255/lpcxpresso/tools/bin/../lib/gcc/arm-none-eabi/4.5.1/../../../../arm-none-eabi/lib/thumb2/libc.a(lib_a-printf.o)
 .bss           0x00000000        0x0 /usr/local/lpcxpresso_4.2.3_255/lpcxpresso/tools/bin/../lib/gcc/arm-none-eabi/4.5.1/../../../../arm-none-eabi/lib/thumb2/libc.a(lib_a-printf.o)
 .data          0x00000000        0x0 /usr/local/lpcxpresso_4.2.3_255/lpcxpresso/tools/bin/../lib/gcc/arm-none-eabi/4.5.1/../../../../arm-none-eabi/lib/thumb2/libc.a(lib_a-snprintf.o)
 .bss           0x00000000        0x0 /usr/local/lpcxpresso_4.2.3_255/lpcxpresso/tools/bin/../lib/gcc/arm-none-eabi/4.5.1/../../../../arm-none-eabi/lib/thumb2/libc.a(lib_a-snprintf.o)
 .data          0x00000000        0x0 /usr/local/lpcxpresso_4.2.3_255/lpcxpresso/tools/bin/../lib/gcc/arm-none-eabi/4.5.1/../../../../arm-none-eabi/lib/thumb2/libc.a(lib_a-sprintf.o)
 .bss           0x00000000        0x0 /usr/local/lpcxpresso_4.2.3_255/lpcxpresso/tools/bin/../lib/gcc/arm-none-eabi/4.5.1/../../../../arm-none-eabi/lib/thumb2/libc.a(lib_a-sprintf.o)
 .data          0x00000000        0x0 /usr/local/lpcxpresso_4.2.3_255/lpcxpresso/tools/bin/../lib/gcc/arm-none-eabi/4.5.1/../../../../arm-none-eabi/lib/thumb2/libc.a(lib_a-sscanf.o)
 .bss           0x00000000        0x0 /usr/local/lpcxpresso_4.2.3_255/lpcxpresso/tools/bin/../lib/gcc/arm-none-eabi/4.5.1/../../../../arm-none-eabi/lib/thumb2/libc.a(lib_a-sscanf.o)
 .data          0x00000000        0x0 /usr/local/lpcxpresso_4.2.3_255/lpcxpresso/tools/bin/../lib/gcc/arm-none-eabi/4.5.1/../../../../arm-none-eabi/lib/thumb2/libc.a(lib_a-stdio.o)
 .bss           0x00000000        0x0 /usr/local/lpcxpresso_4.2.3_255/lpcxpresso/tools/bin/../lib/gcc/arm-none-eabi/4.5.1/../../../../arm-none-eabi/lib/thumb2/libc.a(lib_a-stdio.o)
 .data          0x00000000        0x0 /usr/local/lpcxpresso_4.2.3_255/lpcxpresso/tools/bin/../lib/gcc/arm-none-eabi/4.5.1/../../../../arm-none-eabi/lib/thumb2/libc.a(lib_a-strcat.o)
 .bss           0x00000000        0x0 /usr/local/lpcxpresso_4.2.3_255/lpcxpresso/tools/bin/../lib/gcc/arm-none-eabi/4.5.1/../../../../arm-none-eabi/lib/thumb2/libc.a(lib_a-strcat.o)
 .data          0x00000000        0x0 /usr/local/lpcxpresso_4.2.3_255/lpcxpresso/tools/bin/../lib/gcc/arm-none-eabi/4.5.1/../../../../arm-none-eabi/lib/thumb2/libc.a(lib_a-strchr.o)
 .bss           0x00000000        0x0 /usr/local/lpcxpresso_4.2.3_255/lpcxpresso/tools/bin/../lib/gcc/arm-none-eabi/4.5.1/../../../../arm-none-eabi/lib/thumb2/libc.a(lib_a-strchr.o)
 .data          0x00000000        0x0 /usr/local/lpcxpresso_4.2.3_255/lpcxpresso/tools/bin/../lib/gcc/arm-none-eabi/4.5.1/../../../../arm-none-eabi/lib/thumb2/libc.a(lib_a-strcmp.o)
 .bss           0x00000000        0x0 /usr/local/lpcxpresso_4.2.3_255/lpcxpresso/tools/bin/../lib/gcc/arm-none-eabi/4.5.1/../../../../arm-none-eabi/lib/thumb2/libc.a(lib_a-strcmp.o)
 .data          0x00000000        0x0 /usr/local/lpcxpresso_4.2.3_255/lpcxpresso/tools/bin/../lib/gcc/arm-none-eabi/4.5.1/../../../../arm-none-eabi/lib/thumb2/libc.a(lib_a-strcpy.o)
 .bss           0x00000000        0x0 /usr/local/lpcxpresso_4.2.3_255/lpcxpresso/tools/bin/../lib/gcc/arm-none-eabi/4.5.1/../../../../arm-none-eabi/lib/thumb2/libc.a(lib_a-strcpy.o)
 .data          0x00000000        0x0 /usr/local/lpcxpresso_4.2.3_255/lpcxpresso/tools/bin/../lib/gcc/arm-none-eabi/4.5.1/../../../../arm-none-eabi/lib/thumb2/libc.a(lib_a-strlen.o)
 .bss           0x00000000        0x0 /usr/local/lpcxpresso_4.2.3_255/lpcxpresso/tools/bin/../lib/gcc/arm-none-eabi/4.5.1/../../../../arm-none-eabi/lib/thumb2/libc.a(lib_a-strlen.o)
 .data          0x00000000        0x0 /usr/local/lpcxpresso_4.2.3_255/lpcxpresso/tools/bin/../lib/gcc/arm-none-eabi/4.5.1/../../../../arm-none-eabi/lib/thumb2/libc.a(lib_a-strncmp.o)
 .bss           0x00000000        0x0 /usr/local/lpcxpresso_4.2.3_255/lpcxpresso/tools/bin/../lib/gcc/arm-none-eabi/4.5.1/../../../../arm-none-eabi/lib/thumb2/libc.a(lib_a-strncmp.o)
 .data          0x00000000        0x0 /usr/local/lpcxpresso_4.2.3_255/lpcxpresso/tools/bin/../lib/gcc/arm-none-eabi/4.5.1/../../../../arm-none-eabi/lib/thumb2/libc.a(lib_a-strncpy.o)
 .bss           0x00000000        0x0 /usr/local/lpcxpresso_4.2.3_255/lpcxpresso/tools/bin/../lib/gcc/arm-none-eabi/4.5.1/../../../../arm-none-eabi/lib/thumb2/libc.a(lib_a-strncpy.o)
 .data          0x00000000        0x0 /usr/local/lpcxpresso_4.2.3_255/lpcxpresso/tools/bin/../lib/gcc/arm-none-eabi/4.5.1/../../../../arm-none-eabi/lib/thumb2/libc.a(lib_a-strrchr.o)
 .bss           0x00000000        0x0 /usr/local/lpcxpresso_4.2.3_255/lpcxpresso/tools/bin/../lib/gcc/arm-none-eabi/4.5.1/../../../../arm-none-eabi/lib/thumb2/libc.a(lib_a-strrchr.o)
 .data          0x00000000        0x0 /usr/local/lpcxpresso_4.2.3_255/lpcxpresso/tools/bin/../lib/gcc/arm-none-eabi/4.5.1/../../../../arm-none-eabi/lib/thumb2/libc.a(lib_a-strstr.o)
 .bss           0x00000000        0x0 /usr/local/lpcxpresso_4.2.3_255/lpcxpresso/tools/bin/../lib/gcc/arm-none-eabi/4.5.1/../../../../arm-none-eabi/lib/thumb2/libc.a(lib_a-strstr.o)
 .data          0x00000000        0x0 /usr/local/lpcxpresso_4.2.3_255/lpcxpresso/tools/bin/../lib/gcc/arm-none-eabi/4.5.1/../../../../arm-none-eabi/lib/thumb2/libc.a(lib_a-svfprintf.o)
 .bss           0x00000000        0x0 /usr/local/lpcxpresso_4.2.3_255/lpcxpresso/tools/bin/../lib/gcc/arm-none-eabi/4.5.1/../../../../arm-none-eabi/lib/thumb2/libc.a(lib_a-svfprintf.o)
 .data          0x00000000        0x0 /usr/local/lpcxpresso_4.2.3_255/lpcxpresso/tools/bin/../lib/gcc/arm-none-eabi/4.5.1/../../../../arm-none-eabi/lib/thumb2/libc.a(lib_a-svfscanf.o)
 .bss           0x00000000        0x0 /usr/local/lpcxpresso_4.2.3_255/lpcxpresso/tools/bin/../lib/gcc/arm-none-eabi/4.5.1/../../../../arm-none-eabi/lib/thumb2/libc.a(lib_a-svfscanf.o)
 .text          0x00000000     0x1998 /usr/local/lpcxpresso_4.2.3_255/lpcxpresso/tools/bin/../lib/gcc/arm-none-eabi/4.5.1/../../../../arm-none-eabi/lib/thumb2/libc.a(lib_a-vfprintf.o)
 .data          0x00000000        0x0 /usr/local/lpcxpresso_4.2.3_255/lpcxpresso/tools/bin/../lib/gcc/arm-none-eabi/4.5.1/../../../../arm-none-eabi/lib/thumb2/libc.a(lib_a-vfprintf.o)
 .bss           0x00000000        0x0 /usr/local/lpcxpresso_4.2.3_255/lpcxpresso/tools/bin/../lib/gcc/arm-none-eabi/4.5.1/../../../../arm-none-eabi/lib/thumb2/libc.a(lib_a-vfprintf.o)
 .rodata        0x00000000       0x20 /usr/local/lpcxpresso_4.2.3_255/lpcxpresso/tools/bin/../lib/gcc/arm-none-eabi/4.5.1/../../../../arm-none-eabi/lib/thumb2/libc.a(lib_a-vfprintf.o)
 .rodata.str1.4
                0x00000000       0x44 /usr/local/lpcxpresso_4.2.3_255/lpcxpresso/tools/bin/../lib/gcc/arm-none-eabi/4.5.1/../../../../arm-none-eabi/lib/thumb2/libc.a(lib_a-vfprintf.o)
 .data          0x00000000        0x0 /usr/local/lpcxpresso_4.2.3_255/lpcxpresso/tools/bin/../lib/gcc/arm-none-eabi/4.5.1/../../../../arm-none-eabi/lib/thumb2/libc.a(lib_a-vsprintf.o)
 .bss           0x00000000        0x0 /usr/local/lpcxpresso_4.2.3_255/lpcxpresso/tools/bin/../lib/gcc/arm-none-eabi/4.5.1/../../../../arm-none-eabi/lib/thumb2/libc.a(lib_a-vsprintf.o)
 .data          0x00000000        0x0 /usr/local/lpcxpresso_4.2.3_255/lpcxpresso/tools/bin/../lib/gcc/arm-none-eabi/4.5.1/../../../../arm-none-eabi/lib/thumb2/libc.a(lib_a-writer.o)
 .bss           0x00000000        0x0 /usr/local/lpcxpresso_4.2.3_255/lpcxpresso/tools/bin/../lib/gcc/arm-none-eabi/4.5.1/../../../../arm-none-eabi/lib/thumb2/libc.a(lib_a-writer.o)
 .text          0x00000000      0x104 /usr/local/lpcxpresso_4.2.3_255/lpcxpresso/tools/bin/../lib/gcc/arm-none-eabi/4.5.1/../../../../arm-none-eabi/lib/thumb2/libc.a(lib_a-wsetup.o)
 .data          0x00000000        0x0 /usr/local/lpcxpresso_4.2.3_255/lpcxpresso/tools/bin/../lib/gcc/arm-none-eabi/4.5.1/../../../../arm-none-eabi/lib/thumb2/libc.a(lib_a-wsetup.o)
 .bss           0x00000000        0x0 /usr/local/lpcxpresso_4.2.3_255/lpcxpresso/tools/bin/../lib/gcc/arm-none-eabi/4.5.1/../../../../arm-none-eabi/lib/thumb2/libc.a(lib_a-wsetup.o)
 .data          0x00000000        0x0 /usr/local/lpcxpresso_4.2.3_255/lpcxpresso/tools/bin/../lib/gcc/arm-none-eabi/4.5.1/../../../../arm-none-eabi/lib/thumb2/libc.a(lib_a-closer.o)
 .bss           0x00000000        0x0 /usr/local/lpcxpresso_4.2.3_255/lpcxpresso/tools/bin/../lib/gcc/arm-none-eabi/4.5.1/../../../../arm-none-eabi/lib/thumb2/libc.a(lib_a-closer.o)
 .text          0x00000000        0x0 /usr/local/lpcxpresso_4.2.3_255/lpcxpresso/tools/bin/../lib/gcc/arm-none-eabi/4.5.1/../../../../arm-none-eabi/lib/thumb2/libc.a(lib_a-ctype_.o)
 .bss           0x00000000        0x0 /usr/local/lpcxpresso_4.2.3_255/lpcxpresso/tools/bin/../lib/gcc/arm-none-eabi/4.5.1/../../../../arm-none-eabi/lib/thumb2/libc.a(lib_a-ctype_.o)
 .data          0x00000000        0x0 /usr/local/lpcxpresso_4.2.3_255/lpcxpresso/tools/bin/../lib/gcc/arm-none-eabi/4.5.1/../../../../arm-none-eabi/lib/thumb2/libc.a(lib_a-dtoa.o)
 .bss           0x00000000        0x0 /usr/local/lpcxpresso_4.2.3_255/lpcxpresso/tools/bin/../lib/gcc/arm-none-eabi/4.5.1/../../../../arm-none-eabi/lib/thumb2/libc.a(lib_a-dtoa.o)
 .data          0x00000000        0x0 /usr/local/lpcxpresso_4.2.3_255/lpcxpresso/tools/bin/../lib/gcc/arm-none-eabi/4.5.1/../../../../arm-none-eabi/lib/thumb2/libc.a(lib_a-fflush.o)
 .bss           0x00000000        0x0 /usr/local/lpcxpresso_4.2.3_255/lpcxpresso/tools/bin/../lib/gcc/arm-none-eabi/4.5.1/../../../../arm-none-eabi/lib/thumb2/libc.a(lib_a-fflush.o)
 .data          0x00000000        0x0 /usr/local/lpcxpresso_4.2.3_255/lpcxpresso/tools/bin/../lib/gcc/arm-none-eabi/4.5.1/../../../../arm-none-eabi/lib/thumb2/libc.a(lib_a-findfp.o)
 .bss           0x00000000        0x0 /usr/local/lpcxpresso_4.2.3_255/lpcxpresso/tools/bin/../lib/gcc/arm-none-eabi/4.5.1/../../../../arm-none-eabi/lib/thumb2/libc.a(lib_a-findfp.o)
 .data          0x00000000        0x0 /usr/local/lpcxpresso_4.2.3_255/lpcxpresso/tools/bin/../lib/gcc/arm-none-eabi/4.5.1/../../../../arm-none-eabi/lib/thumb2/libc.a(lib_a-freer.o)
 .bss           0x00000000        0x0 /usr/local/lpcxpresso_4.2.3_255/lpcxpresso/tools/bin/../lib/gcc/arm-none-eabi/4.5.1/../../../../arm-none-eabi/lib/thumb2/libc.a(lib_a-freer.o)
 .data          0x00000000        0x0 /usr/local/lpcxpresso_4.2.3_255/lpcxpresso/tools/bin/../lib/gcc/arm-none-eabi/4.5.1/../../../../arm-none-eabi/lib/thumb2/libc.a(lib_a-fwalk.o)
 .bss           0x00000000        0x0 /usr/local/lpcxpresso_4.2.3_255/lpcxpresso/tools/bin/../lib/gcc/arm-none-eabi/4.5.1/../../../../arm-none-eabi/lib/thumb2/libc.a(lib_a-fwalk.o)
 .text          0x00000000        0x0 /usr/local/lpcxpresso_4.2.3_255/lpcxpresso/tools/bin/../lib/gcc/arm-none-eabi/4.5.1/../../../../arm-none-eabi/lib/thumb2/libc.a(lib_a-impure.o)
 .bss           0x00000000        0x0 /usr/local/lpcxpresso_4.2.3_255/lpcxpresso/tools/bin/../lib/gcc/arm-none-eabi/4.5.1/../../../../arm-none-eabi/lib/thumb2/libc.a(lib_a-impure.o)
 .data          0x00000000        0x0 /usr/local/lpcxpresso_4.2.3_255/lpcxpresso/tools/bin/../lib/gcc/arm-none-eabi/4.5.1/../../../../arm-none-eabi/lib/thumb2/libc.a(lib_a-iswspace.o)
 .bss           0x00000000        0x0 /usr/local/lpcxpresso_4.2.3_255/lpcxpresso/tools/bin/../lib/gcc/arm-none-eabi/4.5.1/../../../../arm-none-eabi/lib/thumb2/libc.a(lib_a-iswspace.o)
 .bss           0x00000000        0xc /usr/local/lpcxpresso_4.2.3_255/lpcxpresso/tools/bin/../lib/gcc/arm-none-eabi/4.5.1/../../../../arm-none-eabi/lib/thumb2/libc.a(lib_a-locale.o)
 .data          0x00000000        0x0 /usr/local/lpcxpresso_4.2.3_255/lpcxpresso/tools/bin/../lib/gcc/arm-none-eabi/4.5.1/../../../../arm-none-eabi/lib/thumb2/libc.a(lib_a-lseekr.o)
 .bss           0x00000000        0x0 /usr/local/lpcxpresso_4.2.3_255/lpcxpresso/tools/bin/../lib/gcc/arm-none-eabi/4.5.1/../../../../arm-none-eabi/lib/thumb2/libc.a(lib_a-lseekr.o)
 .text          0x00000000       0xec /usr/local/lpcxpresso_4.2.3_255/lpcxpresso/tools/bin/../lib/gcc/arm-none-eabi/4.5.1/../../../../arm-none-eabi/lib/thumb2/libc.a(lib_a-makebuf.o)
 .data          0x00000000        0x0 /usr/local/lpcxpresso_4.2.3_255/lpcxpresso/tools/bin/../lib/gcc/arm-none-eabi/4.5.1/../../../../arm-none-eabi/lib/thumb2/libc.a(lib_a-makebuf.o)
 .bss           0x00000000        0x0 /usr/local/lpcxpresso_4.2.3_255/lpcxpresso/tools/bin/../lib/gcc/arm-none-eabi/4.5.1/../../../../arm-none-eabi/lib/thumb2/libc.a(lib_a-makebuf.o)
 .data          0x00000000        0x0 /usr/local/lpcxpresso_4.2.3_255/lpcxpresso/tools/bin/../lib/gcc/arm-none-eabi/4.5.1/../../../../arm-none-eabi/lib/thumb2/libc.a(lib_a-malloc.o)
 .bss           0x00000000        0x0 /usr/local/lpcxpresso_4.2.3_255/lpcxpresso/tools/bin/../lib/gcc/arm-none-eabi/4.5.1/../../../../arm-none-eabi/lib/thumb2/libc.a(lib_a-malloc.o)
 .data          0x00000000        0x0 /usr/local/lpcxpresso_4.2.3_255/lpcxpresso/tools/bin/../lib/gcc/arm-none-eabi/4.5.1/../../../../arm-none-eabi/lib/thumb2/libc.a(lib_a-mbrtowc.o)
 .bss           0x00000000        0x0 /usr/local/lpcxpresso_4.2.3_255/lpcxpresso/tools/bin/../lib/gcc/arm-none-eabi/4.5.1/../../../../arm-none-eabi/lib/thumb2/libc.a(lib_a-mbrtowc.o)
 .bss           0x00000000        0x0 /usr/local/lpcxpresso_4.2.3_255/lpcxpresso/tools/bin/../lib/gcc/arm-none-eabi/4.5.1/../../../../arm-none-eabi/lib/thumb2/libc.a(lib_a-mbtowc_r.o)
 .data          0x00000000        0x0 /usr/local/lpcxpresso_4.2.3_255/lpcxpresso/tools/bin/../lib/gcc/arm-none-eabi/4.5.1/../../../../arm-none-eabi/lib/thumb2/libc.a(lib_a-memchr.o)
 .bss           0x00000000        0x0 /usr/local/lpcxpresso_4.2.3_255/lpcxpresso/tools/bin/../lib/gcc/arm-none-eabi/4.5.1/../../../../arm-none-eabi/lib/thumb2/libc.a(lib_a-memchr.o)
 .data          0x00000000        0x0 /usr/local/lpcxpresso_4.2.3_255/lpcxpresso/tools/bin/../lib/gcc/arm-none-eabi/4.5.1/../../../../arm-none-eabi/lib/thumb2/libc.a(lib_a-mlock.o)
 .bss           0x00000000        0x0 /usr/local/lpcxpresso_4.2.3_255/lpcxpresso/tools/bin/../lib/gcc/arm-none-eabi/4.5.1/../../../../arm-none-eabi/lib/thumb2/libc.a(lib_a-mlock.o)
 .data          0x00000000        0x0 /usr/local/lpcxpresso_4.2.3_255/lpcxpresso/tools/bin/../lib/gcc/arm-none-eabi/4.5.1/../../../../arm-none-eabi/lib/thumb2/libc.a(lib_a-mprec.o)
 .bss           0x00000000        0x0 /usr/local/lpcxpresso_4.2.3_255/lpcxpresso/tools/bin/../lib/gcc/arm-none-eabi/4.5.1/../../../../arm-none-eabi/lib/thumb2/libc.a(lib_a-mprec.o)
 .data          0x00000000        0x0 /usr/local/lpcxpresso_4.2.3_255/lpcxpresso/tools/bin/../lib/gcc/arm-none-eabi/4.5.1/../../../../arm-none-eabi/lib/thumb2/libc.a(lib_a-readr.o)
 .bss           0x00000000        0x0 /usr/local/lpcxpresso_4.2.3_255/lpcxpresso/tools/bin/../lib/gcc/arm-none-eabi/4.5.1/../../../../arm-none-eabi/lib/thumb2/libc.a(lib_a-readr.o)
 .text          0x00000000      0x114 /usr/local/lpcxpresso_4.2.3_255/lpcxpresso/tools/bin/../lib/gcc/arm-none-eabi/4.5.1/../../../../arm-none-eabi/lib/thumb2/libc.a(lib_a-reent.o)
 .data          0x00000000        0x0 /usr/local/lpcxpresso_4.2.3_255/lpcxpresso/tools/bin/../lib/gcc/arm-none-eabi/4.5.1/../../../../arm-none-eabi/lib/thumb2/libc.a(lib_a-reent.o)
 .bss           0x00000000        0x0 /usr/local/lpcxpresso_4.2.3_255/lpcxpresso/tools/bin/../lib/gcc/arm-none-eabi/4.5.1/../../../../arm-none-eabi/lib/thumb2/libc.a(lib_a-reent.o)
 .data          0x00000000        0x0 /usr/local/lpcxpresso_4.2.3_255/lpcxpresso/tools/bin/../lib/gcc/arm-none-eabi/4.5.1/../../../../arm-none-eabi/lib/thumb2/libc.a(lib_a-s_fpclassify.o)
 .bss           0x00000000        0x0 /usr/local/lpcxpresso_4.2.3_255/lpcxpresso/tools/bin/../lib/gcc/arm-none-eabi/4.5.1/../../../../arm-none-eabi/lib/thumb2/libc.a(lib_a-s_fpclassify.o)
 .data          0x00000000        0x0 /usr/local/lpcxpresso_4.2.3_255/lpcxpresso/tools/bin/../lib/gcc/arm-none-eabi/4.5.1/../../../../arm-none-eabi/lib/thumb2/libc.a(lib_a-sbrkr.o)
 .bss           0x00000000        0x0 /usr/local/lpcxpresso_4.2.3_255/lpcxpresso/tools/bin/../lib/gcc/arm-none-eabi/4.5.1/../../../../arm-none-eabi/lib/thumb2/libc.a(lib_a-sbrkr.o)
 .data          0x00000000        0x0 /usr/local/lpcxpresso_4.2.3_255/lpcxpresso/tools/bin/../lib/gcc/arm-none-eabi/4.5.1/../../../../arm-none-eabi/lib/thumb2/libc.a(lib_a-sccl.o)
 .bss           0x00000000        0x0 /usr/local/lpcxpresso_4.2.3_255/lpcxpresso/tools/bin/../lib/gcc/arm-none-eabi/4.5.1/../../../../arm-none-eabi/lib/thumb2/libc.a(lib_a-sccl.o)
 .data          0x00000000        0x0 /usr/local/lpcxpresso_4.2.3_255/lpcxpresso/tools/bin/../lib/gcc/arm-none-eabi/4.5.1/../../../../arm-none-eabi/lib/thumb2/libc.a(lib_a-sf_nan.o)
 .bss           0x00000000        0x0 /usr/local/lpcxpresso_4.2.3_255/lpcxpresso/tools/bin/../lib/gcc/arm-none-eabi/4.5.1/../../../../arm-none-eabi/lib/thumb2/libc.a(lib_a-sf_nan.o)
 .bss           0x00000000        0x0 /usr/local/lpcxpresso_4.2.3_255/lpcxpresso/tools/bin/../lib/gcc/arm-none-eabi/4.5.1/../../../../arm-none-eabi/lib/thumb2/libc.a(lib_a-strtod.o)
 .data          0x00000000        0x0 /usr/local/lpcxpresso_4.2.3_255/lpcxpresso/tools/bin/../lib/gcc/arm-none-eabi/4.5.1/../../../../arm-none-eabi/lib/thumb2/libc.a(lib_a-strtol.o)
 .bss           0x00000000        0x0 /usr/local/lpcxpresso_4.2.3_255/lpcxpresso/tools/bin/../lib/gcc/arm-none-eabi/4.5.1/../../../../arm-none-eabi/lib/thumb2/libc.a(lib_a-strtol.o)
 .data          0x00000000        0x0 /usr/local/lpcxpresso_4.2.3_255/lpcxpresso/tools/bin/../lib/gcc/arm-none-eabi/4.5.1/../../../../arm-none-eabi/lib/thumb2/libc.a(lib_a-strtoll_r.o)
 .bss           0x00000000        0x0 /usr/local/lpcxpresso_4.2.3_255/lpcxpresso/tools/bin/../lib/gcc/arm-none-eabi/4.5.1/../../../../arm-none-eabi/lib/thumb2/libc.a(lib_a-strtoll_r.o)
 .data          0x00000000        0x0 /usr/local/lpcxpresso_4.2.3_255/lpcxpresso/tools/bin/../lib/gcc/arm-none-eabi/4.5.1/../../../../arm-none-eabi/lib/thumb2/libc.a(lib_a-strtoul.o)
 .bss           0x00000000        0x0 /usr/local/lpcxpresso_4.2.3_255/lpcxpresso/tools/bin/../lib/gcc/arm-none-eabi/4.5.1/../../../../arm-none-eabi/lib/thumb2/libc.a(lib_a-strtoul.o)
 .data          0x00000000        0x0 /usr/local/lpcxpresso_4.2.3_255/lpcxpresso/tools/bin/../lib/gcc/arm-none-eabi/4.5.1/../../../../arm-none-eabi/lib/thumb2/libc.a(lib_a-strtoull_r.o)
 .bss           0x00000000        0x0 /usr/local/lpcxpresso_4.2.3_255/lpcxpresso/tools/bin/../lib/gcc/arm-none-eabi/4.5.1/../../../../arm-none-eabi/lib/thumb2/libc.a(lib_a-strtoull_r.o)
 .data          0x00000000        0x0 /usr/local/lpcxpresso_4.2.3_255/lpcxpresso/tools/bin/../lib/gcc/arm-none-eabi/4.5.1/../../../../arm-none-eabi/lib/thumb2/libc.a(lib_a-svfiprintf.o)
 .bss           0x00000000        0x0 /usr/local/lpcxpresso_4.2.3_255/lpcxpresso/tools/bin/../lib/gcc/arm-none-eabi/4.5.1/../../../../arm-none-eabi/lib/thumb2/libc.a(lib_a-svfiprintf.o)
 .data          0x00000000        0x0 /usr/local/lpcxpresso_4.2.3_255/lpcxpresso/tools/bin/../lib/gcc/arm-none-eabi/4.5.1/../../../../arm-none-eabi/lib/thumb2/libc.a(lib_a-svfiscanf.o)
 .bss           0x00000000        0x0 /usr/local/lpcxpresso_4.2.3_255/lpcxpresso/tools/bin/../lib/gcc/arm-none-eabi/4.5.1/../../../../arm-none-eabi/lib/thumb2/libc.a(lib_a-svfiscanf.o)
 .data          0x00000000        0x0 /usr/local/lpcxpresso_4.2.3_255/lpcxpresso/tools/bin/../lib/gcc/arm-none-eabi/4.5.1/../../../../arm-none-eabi/lib/thumb2/libc.a(lib_a-ungetc.o)
 .bss           0x00000000        0x0 /usr/local/lpcxpresso_4.2.3_255/lpcxpresso/tools/bin/../lib/gcc/arm-none-eabi/4.5.1/../../../../arm-none-eabi/lib/thumb2/libc.a(lib_a-ungetc.o)
 .text          0x00000000      0xdc0 /usr/local/lpcxpresso_4.2.3_255/lpcxpresso/tools/bin/../lib/gcc/arm-none-eabi/4.5.1/../../../../arm-none-eabi/lib/thumb2/libc.a(lib_a-vfiprintf.o)
 .data          0x00000000        0x0 /usr/local/lpcxpresso_4.2.3_255/lpcxpresso/tools/bin/../lib/gcc/arm-none-eabi/4.5.1/../../../../arm-none-eabi/lib/thumb2/libc.a(lib_a-vfiprintf.o)
 .bss           0x00000000        0x0 /usr/local/lpcxpresso_4.2.3_255/lpcxpresso/tools/bin/../lib/gcc/arm-none-eabi/4.5.1/../../../../arm-none-eabi/lib/thumb2/libc.a(lib_a-vfiprintf.o)
 .rodata        0x00000000       0x20 /usr/local/lpcxpresso_4.2.3_255/lpcxpresso/tools/bin/../lib/gcc/arm-none-eabi/4.5.1/../../../../arm-none-eabi/lib/thumb2/libc.a(lib_a-vfiprintf.o)
 .rodata.str1.4
                0x00000000       0x30 /usr/local/lpcxpresso_4.2.3_255/lpcxpresso/tools/bin/../lib/gcc/arm-none-eabi/4.5.1/../../../../arm-none-eabi/lib/thumb2/libc.a(lib_a-vfiprintf.o)
 .data          0x00000000        0x0 /usr/local/lpcxpresso_4.2.3_255/lpcxpresso/tools/bin/../lib/gcc/arm-none-eabi/4.5.1/../../../../arm-none-eabi/lib/thumb2/libc.a(lib_a-callocr.o)
 .bss           0x00000000        0x0 /usr/local/lpcxpresso_4.2.3_255/lpcxpresso/tools/bin/../lib/gcc/arm-none-eabi/4.5.1/../../../../arm-none-eabi/lib/thumb2/libc.a(lib_a-callocr.o)
 .data          0x00000000        0x0 /usr/local/lpcxpresso_4.2.3_255/lpcxpresso/tools/bin/../lib/gcc/arm-none-eabi/4.5.1/../../../../arm-none-eabi/lib/thumb2/libc.a(lib_a-fclose.o)
 .bss           0x00000000        0x0 /usr/local/lpcxpresso_4.2.3_255/lpcxpresso/tools/bin/../lib/gcc/arm-none-eabi/4.5.1/../../../../arm-none-eabi/lib/thumb2/libc.a(lib_a-fclose.o)
 .text          0x00000000      0x140 /usr/local/lpcxpresso_4.2.3_255/lpcxpresso/tools/bin/../lib/gcc/arm-none-eabi/4.5.1/../../../../arm-none-eabi/lib/thumb2/libc.a(lib_a-fputwc.o)
 .data          0x00000000        0x0 /usr/local/lpcxpresso_4.2.3_255/lpcxpresso/tools/bin/../lib/gcc/arm-none-eabi/4.5.1/../../../../arm-none-eabi/lib/thumb2/libc.a(lib_a-fputwc.o)
 .bss           0x00000000        0x0 /usr/local/lpcxpresso_4.2.3_255/lpcxpresso/tools/bin/../lib/gcc/arm-none-eabi/4.5.1/../../../../arm-none-eabi/lib/thumb2/libc.a(lib_a-fputwc.o)
 .text          0x00000000       0x2c /usr/local/lpcxpresso_4.2.3_255/lpcxpresso/tools/bin/../lib/gcc/arm-none-eabi/4.5.1/../../../../arm-none-eabi/lib/thumb2/libc.a(lib_a-fstatr.o)
 .data          0x00000000        0x0 /usr/local/lpcxpresso_4.2.3_255/lpcxpresso/tools/bin/../lib/gcc/arm-none-eabi/4.5.1/../../../../arm-none-eabi/lib/thumb2/libc.a(lib_a-fstatr.o)
 .bss           0x00000000        0x0 /usr/local/lpcxpresso_4.2.3_255/lpcxpresso/tools/bin/../lib/gcc/arm-none-eabi/4.5.1/../../../../arm-none-eabi/lib/thumb2/libc.a(lib_a-fstatr.o)
 .text          0x00000000      0x338 /usr/local/lpcxpresso_4.2.3_255/lpcxpresso/tools/bin/../lib/gcc/arm-none-eabi/4.5.1/../../../../arm-none-eabi/lib/thumb2/libc.a(lib_a-fvwrite.o)
 .data          0x00000000        0x0 /usr/local/lpcxpresso_4.2.3_255/lpcxpresso/tools/bin/../lib/gcc/arm-none-eabi/4.5.1/../../../../arm-none-eabi/lib/thumb2/libc.a(lib_a-fvwrite.o)
 .bss           0x00000000        0x0 /usr/local/lpcxpresso_4.2.3_255/lpcxpresso/tools/bin/../lib/gcc/arm-none-eabi/4.5.1/../../../../arm-none-eabi/lib/thumb2/libc.a(lib_a-fvwrite.o)
 .data          0x00000000        0x0 /usr/local/lpcxpresso_4.2.3_255/lpcxpresso/tools/bin/../lib/gcc/arm-none-eabi/4.5.1/../../../../arm-none-eabi/lib/thumb2/libc.a(lib_a-gdtoa-gethex.o)
 .bss           0x00000000        0x0 /usr/local/lpcxpresso_4.2.3_255/lpcxpresso/tools/bin/../lib/gcc/arm-none-eabi/4.5.1/../../../../arm-none-eabi/lib/thumb2/libc.a(lib_a-gdtoa-gethex.o)
 .data          0x00000000        0x0 /usr/local/lpcxpresso_4.2.3_255/lpcxpresso/tools/bin/../lib/gcc/arm-none-eabi/4.5.1/../../../../arm-none-eabi/lib/thumb2/libc.a(lib_a-gdtoa-hexnan.o)
 .bss           0x00000000        0x0 /usr/local/lpcxpresso_4.2.3_255/lpcxpresso/tools/bin/../lib/gcc/arm-none-eabi/4.5.1/../../../../arm-none-eabi/lib/thumb2/libc.a(lib_a-gdtoa-hexnan.o)
 .text          0x00000000       0x28 /usr/local/lpcxpresso_4.2.3_255/lpcxpresso/tools/bin/../lib/gcc/arm-none-eabi/4.5.1/../../../../arm-none-eabi/lib/thumb2/libc.a(lib_a-isattyr.o)
 .data          0x00000000        0x0 /usr/local/lpcxpresso_4.2.3_255/lpcxpresso/tools/bin/../lib/gcc/arm-none-eabi/4.5.1/../../../../arm-none-eabi/lib/thumb2/libc.a(lib_a-isattyr.o)
 .bss           0x00000000        0x0 /usr/local/lpcxpresso_4.2.3_255/lpcxpresso/tools/bin/../lib/gcc/arm-none-eabi/4.5.1/../../../../arm-none-eabi/lib/thumb2/libc.a(lib_a-isattyr.o)
 .data          0x00000000        0x0 /usr/local/lpcxpresso_4.2.3_255/lpcxpresso/tools/bin/../lib/gcc/arm-none-eabi/4.5.1/../../../../arm-none-eabi/lib/thumb2/libc.a(lib_a-memmove.o)
 .bss           0x00000000        0x0 /usr/local/lpcxpresso_4.2.3_255/lpcxpresso/tools/bin/../lib/gcc/arm-none-eabi/4.5.1/../../../../arm-none-eabi/lib/thumb2/libc.a(lib_a-memmove.o)
 .data          0x00000000        0x0 /usr/local/lpcxpresso_4.2.3_255/lpcxpresso/tools/bin/../lib/gcc/arm-none-eabi/4.5.1/../../../../arm-none-eabi/lib/thumb2/libc.a(lib_a-reallocr.o)
 .bss           0x00000000        0x0 /usr/local/lpcxpresso_4.2.3_255/lpcxpresso/tools/bin/../lib/gcc/arm-none-eabi/4.5.1/../../../../arm-none-eabi/lib/thumb2/libc.a(lib_a-reallocr.o)
 .text          0x00000000       0xfc /usr/local/lpcxpresso_4.2.3_255/lpcxpresso/tools/bin/../lib/gcc/arm-none-eabi/4.5.1/../../../../arm-none-eabi/lib/thumb2/libc.a(lib_a-wbuf.o)
 .data          0x00000000        0x0 /usr/local/lpcxpresso_4.2.3_255/lpcxpresso/tools/bin/../lib/gcc/arm-none-eabi/4.5.1/../../../../arm-none-eabi/lib/thumb2/libc.a(lib_a-wbuf.o)
 .bss           0x00000000        0x0 /usr/local/lpcxpresso_4.2.3_255/lpcxpresso/tools/bin/../lib/gcc/arm-none-eabi/4.5.1/../../../../arm-none-eabi/lib/thumb2/libc.a(lib_a-wbuf.o)
 .text          0x00000000       0xd0 /usr/local/lpcxpresso_4.2.3_255/lpcxpresso/tools/bin/../lib/gcc/arm-none-eabi/4.5.1/../../../../arm-none-eabi/lib/thumb2/libc.a(lib_a-wcrtomb.o)
 .data          0x00000000        0x0 /usr/local/lpcxpresso_4.2.3_255/lpcxpresso/tools/bin/../lib/gcc/arm-none-eabi/4.5.1/../../../../arm-none-eabi/lib/thumb2/libc.a(lib_a-wcrtomb.o)
 .bss           0x00000000        0x0 /usr/local/lpcxpresso_4.2.3_255/lpcxpresso/tools/bin/../lib/gcc/arm-none-eabi/4.5.1/../../../../arm-none-eabi/lib/thumb2/libc.a(lib_a-wcrtomb.o)
 .text          0x00000000       0x4c /usr/local/lpcxpresso_4.2.3_255/lpcxpresso/tools/bin/../lib/gcc/arm-none-eabi/4.5.1/../../../../arm-none-eabi/lib/thumb2/libc.a(lib_a-wctomb_r.o)
 .data          0x00000000        0x4 /usr/local/lpcxpresso_4.2.3_255/lpcxpresso/tools/bin/../lib/gcc/arm-none-eabi/4.5.1/../../../../arm-none-eabi/lib/thumb2/libc.a(lib_a-wctomb_r.o)
 .bss           0x00000000        0x0 /usr/local/lpcxpresso_4.2.3_255/lpcxpresso/tools/bin/../lib/gcc/arm-none-eabi/4.5.1/../../../../arm-none-eabi/lib/thumb2/libc.a(lib_a-wctomb_r.o)
 .data          0x00000000        0x0 /usr/local/lpcxpresso_4.2.3_255/lpcxpresso/tools/bin/../lib/gcc/arm-none-eabi/4.5.1/../../../../arm-none-eabi/lib/thumb2/libcr_newlib_nohost.a(_cr_sbrk.o)
 .bss           0x00000000        0x0 /usr/local/lpcxpresso_4.2.3_255/lpcxpresso/tools/bin/../lib/gcc/arm-none-eabi/4.5.1/../../../../arm-none-eabi/lib/thumb2/libcr_newlib_nohost.a(_cr_sbrk.o)
 .data          0x00000000        0x0 /usr/local/lpcxpresso_4.2.3_255/lpcxpresso/tools/bin/../lib/gcc/arm-none-eabi/4.5.1/../../../../arm-none-eabi/lib/thumb2/libcr_newlib_nohost.a(close.o)
 .bss           0x00000000        0x0 /usr/local/lpcxpresso_4.2.3_255/lpcxpresso/tools/bin/../lib/gcc/arm-none-eabi/4.5.1/../../../../arm-none-eabi/lib/thumb2/libcr_newlib_nohost.a(close.o)
 .text          0x00000000       0x10 /usr/local/lpcxpresso_4.2.3_255/lpcxpresso/tools/bin/../lib/gcc/arm-none-eabi/4.5.1/../../../../arm-none-eabi/lib/thumb2/libcr_newlib_nohost.a(fstat.o)
 .data          0x00000000        0x0 /usr/local/lpcxpresso_4.2.3_255/lpcxpresso/tools/bin/../lib/gcc/arm-none-eabi/4.5.1/../../../../arm-none-eabi/lib/thumb2/libcr_newlib_nohost.a(fstat.o)
 .bss           0x00000000        0x0 /usr/local/lpcxpresso_4.2.3_255/lpcxpresso/tools/bin/../lib/gcc/arm-none-eabi/4.5.1/../../../../arm-none-eabi/lib/thumb2/libcr_newlib_nohost.a(fstat.o)
 .text          0x00000000       0x10 /usr/local/lpcxpresso_4.2.3_255/lpcxpresso/tools/bin/../lib/gcc/arm-none-eabi/4.5.1/../../../../arm-none-eabi/lib/thumb2/libcr_newlib_nohost.a(isatty.o)
 .data          0x00000000        0x0 /usr/local/lpcxpresso_4.2.3_255/lpcxpresso/tools/bin/../lib/gcc/arm-none-eabi/4.5.1/../../../../arm-none-eabi/lib/thumb2/libcr_newlib_nohost.a(isatty.o)
 .bss           0x00000000        0x0 /usr/local/lpcxpresso_4.2.3_255/lpcxpresso/tools/bin/../lib/gcc/arm-none-eabi/4.5.1/../../../../arm-none-eabi/lib/thumb2/libcr_newlib_nohost.a(isatty.o)
 .data          0x00000000        0x0 /usr/local/lpcxpresso_4.2.3_255/lpcxpresso/tools/bin/../lib/gcc/arm-none-eabi/4.5.1/../../../../arm-none-eabi/lib/thumb2/libcr_newlib_nohost.a(lseek.o)
 .bss           0x00000000        0x0 /usr/local/lpcxpresso_4.2.3_255/lpcxpresso/tools/bin/../lib/gcc/arm-none-eabi/4.5.1/../../../../arm-none-eabi/lib/thumb2/libcr_newlib_nohost.a(lseek.o)
 .data          0x00000000        0x0 /usr/local/lpcxpresso_4.2.3_255/lpcxpresso/tools/bin/../lib/gcc/arm-none-eabi/4.5.1/../../../../arm-none-eabi/lib/thumb2/libcr_newlib_nohost.a(read.o)
 .bss           0x00000000        0x0 /usr/local/lpcxpresso_4.2.3_255/lpcxpresso/tools/bin/../lib/gcc/arm-none-eabi/4.5.1/../../../../arm-none-eabi/lib/thumb2/libcr_newlib_nohost.a(read.o)
 .data          0x00000000        0x0 /usr/local/lpcxpresso_4.2.3_255/lpcxpresso/tools/bin/../lib/gcc/arm-none-eabi/4.5.1/../../../../arm-none-eabi/lib/thumb2/libcr_newlib_nohost.a(write.o)
 .bss           0x00000000        0x0 /usr/local/lpcxpresso_4.2.3_255/lpcxpresso/tools/bin/../lib/gcc/arm-none-eabi/4.5.1/../../../../arm-none-eabi/lib/thumb2/libcr_newlib_nohost.a(write.o)
 .data          0x00000000        0x0 /usr/local/lpcxpresso_4.2.3_255/lpcxpresso/tools/bin/../lib/gcc/arm-none-eabi/4.5.1/../../../../arm-none-eabi/lib/thumb2/libcr_newlib_nohost.a(_cr_check_heap.o)
 .bss           0x00000000        0x0 /usr/local/lpcxpresso_4.2.3_255/lpcxpresso/tools/bin/../lib/gcc/arm-none-eabi/4.5.1/../../../../arm-none-eabi/lib/thumb2/libcr_newlib_nohost.a(_cr_check_heap.o)
 .data          0x00000000        0x0 /usr/local/lpcxpresso_4.2.3_255/lpcxpresso/tools/bin/../lib/gcc/arm-none-eabi/4.5.1/thumb2/libgcc.a(_arm_addsubdf3.o)
 .bss           0x00000000        0x0 /usr/local/lpcxpresso_4.2.3_255/lpcxpresso/tools/bin/../lib/gcc/arm-none-eabi/4.5.1/thumb2/libgcc.a(_arm_addsubdf3.o)
 .data          0x00000000        0x0 /usr/local/lpcxpresso_4.2.3_255/lpcxpresso/tools/bin/../lib/gcc/arm-none-eabi/4.5.1/thumb2/libgcc.a(_arm_muldivdf3.o)
 .bss           0x00000000        0x0 /usr/local/lpcxpresso_4.2.3_255/lpcxpresso/tools/bin/../lib/gcc/arm-none-eabi/4.5.1/thumb2/libgcc.a(_arm_muldivdf3.o)
 .data          0x00000000        0x0 /usr/local/lpcxpresso_4.2.3_255/lpcxpresso/tools/bin/../lib/gcc/arm-none-eabi/4.5.1/thumb2/libgcc.a(_arm_cmpdf2.o)
 .bss           0x00000000        0x0 /usr/local/lpcxpresso_4.2.3_255/lpcxpresso/tools/bin/../lib/gcc/arm-none-eabi/4.5.1/thumb2/libgcc.a(_arm_cmpdf2.o)
 .data          0x00000000        0x0 /usr/local/lpcxpresso_4.2.3_255/lpcxpresso/tools/bin/../lib/gcc/arm-none-eabi/4.5.1/thumb2/libgcc.a(_arm_fixdfsi.o)
 .bss           0x00000000        0x0 /usr/local/lpcxpresso_4.2.3_255/lpcxpresso/tools/bin/../lib/gcc/arm-none-eabi/4.5.1/thumb2/libgcc.a(_arm_fixdfsi.o)
 .data          0x00000000        0x0 /usr/local/lpcxpresso_4.2.3_255/lpcxpresso/tools/bin/../lib/gcc/arm-none-eabi/4.5.1/thumb2/libgcc.a(_arm_fixunsdfsi.o)
 .bss           0x00000000        0x0 /usr/local/lpcxpresso_4.2.3_255/lpcxpresso/tools/bin/../lib/gcc/arm-none-eabi/4.5.1/thumb2/libgcc.a(_arm_fixunsdfsi.o)
 .data          0x00000000        0x0 /usr/local/lpcxpresso_4.2.3_255/lpcxpresso/tools/bin/../lib/gcc/arm-none-eabi/4.5.1/thumb2/libgcc.a(_arm_truncdfsf2.o)
 .bss           0x00000000        0x0 /usr/local/lpcxpresso_4.2.3_255/lpcxpresso/tools/bin/../lib/gcc/arm-none-eabi/4.5.1/thumb2/libgcc.a(_arm_truncdfsf2.o)
 .data          0x00000000        0x0 /usr/local/lpcxpresso_4.2.3_255/lpcxpresso/tools/bin/../lib/gcc/arm-none-eabi/4.5.1/thumb2/libgcc.a(_arm_cmpsf2.o)
 .bss           0x00000000        0x0 /usr/local/lpcxpresso_4.2.3_255/lpcxpresso/tools/bin/../lib/gcc/arm-none-eabi/4.5.1/thumb2/libgcc.a(_arm_cmpsf2.o)
 .data          0x00000000        0x0 /usr/local/lpcxpresso_4.2.3_255/lpcxpresso/tools/bin/../lib/gcc/arm-none-eabi/4.5.1/../../../../arm-none-eabi/lib/thumb2/libc.a(lib_a-errno.o)
 .bss           0x00000000        0x0 /usr/local/lpcxpresso_4.2.3_255/lpcxpresso/tools/bin/../lib/gcc/arm-none-eabi/4.5.1/../../../../arm-none-eabi/lib/thumb2/libc.a(lib_a-errno.o)

Memory Configuration

Name             Origin             Length             Attributes
MFlash512        0x00000000         0x00080000         xr
RamLoc32         0x10000000         0x00008000         xrw
RamAHB32         0x2007c000         0x00008000         xrw
*default*        0x00000000         0xffffffff

Linker script and memory map

LOAD ./LedBlinky.o
LOAD ./cr_startup_lpc17.o
LOAD ./lcd_i2c.o
LOAD ./main.o
LOAD ./uart_fullmodem_test.o
LOAD ./webserver/emac.o
LOAD ./webserver/http-strings.o
LOAD ./webserver/httpd-cgi.o
LOAD ./webserver/httpd-fs.o
LOAD ./webserver/httpd.o
LOAD ./webserver/psock.o
LOAD ./webserver/timer.o
LOAD ./webserver/uIP_Task.o
LOAD ./webserver/uip.o
LOAD ./webserver/uip_arp.o
LOAD ./uip_ftp/Connections.o
LOAD ./uip_ftp/FTPD.o
LOAD ./uip_ftp/FTP_Strings.o
LOAD ./uip_ftp/ftp_main.o
LOAD ./driver_source/lpc17xx_adc.o
LOAD ./driver_source/lpc17xx_can.o
LOAD ./driver_source/lpc17xx_clkpwr.o
LOAD ./driver_source/lpc17xx_dac.o
LOAD ./driver_source/lpc17xx_emac.o
LOAD ./driver_source/lpc17xx_gpdma.o
LOAD ./driver_source/lpc17xx_gpio.o
LOAD ./driver_source/lpc17xx_i2c.o
LOAD ./driver_source/lpc17xx_i2s.o
LOAD ./driver_source/lpc17xx_libcfg_default.o
LOAD ./driver_source/lpc17xx_mcpwm.o
LOAD ./driver_source/lpc17xx_nvic.o
LOAD ./driver_source/lpc17xx_pinsel.o
LOAD ./driver_source/lpc17xx_pwm.o
LOAD ./driver_source/lpc17xx_qei.o
LOAD ./driver_source/lpc17xx_rit.o
LOAD ./driver_source/lpc17xx_rtc.o
LOAD ./driver_source/lpc17xx_sd.o
LOAD ./driver_source/lpc17xx_spi.o
LOAD ./driver_source/lpc17xx_ssp.o
LOAD ./driver_source/lpc17xx_timer.o
LOAD ./driver_source/lpc17xx_uart.o
LOAD ./driver_source/lpc17xx_wdt.o
LOAD ./UsbHost/Uart/usbhost_uart.o
LOAD ./UsbHost/MassStorage/usbhost_ms.o
LOAD ./UsbHost/Main/usbhost_main.o
LOAD ./UsbHost/Host/usb_ms_diskio.o
LOAD ./UsbHost/Host/usbhost_lpc17xx.o
LOAD ./LPCUSB/USB_CDC.o
LOAD ./LPCUSB/usbcontrol.o
LOAD ./LPCUSB/usbhw_lpc.o
LOAD ./LPCUSB/usbinit.o
LOAD ./LPCUSB/usbstdreq.o
LOAD ./FatFs/option/cc932.o
LOAD ./FatFs/option/syncobj.o
LOAD ./FatFs/option/syscall.o
LOAD ./FatFs/diskio.o
LOAD ./FatFs/ff.o
LOAD /home/nlv14991/workspaceLPC/STE-LPC1768-/CMSISv1p30_LPC17xx/Debug/libCMSISv1p30_LPC17xx.a
LOAD /home/nlv14991/workspaceLPC/STE-LPC1768-/FreeRTOS_Library/Debug/libFreeRTOS_Library.a
START GROUP
LOAD /usr/local/lpcxpresso_4.2.3_255/lpcxpresso/tools/bin/../lib/gcc/arm-none-eabi/4.5.1/thumb2/libgcc.a
LOAD /usr/local/lpcxpresso_4.2.3_255/lpcxpresso/tools/bin/../lib/gcc/arm-none-eabi/4.5.1/../../../../arm-none-eabi/lib/thumb2/libc.a
LOAD /usr/local/lpcxpresso_4.2.3_255/lpcxpresso/tools/bin/../lib/gcc/arm-none-eabi/4.5.1/../../../../arm-none-eabi/lib/thumb2/libm.a
LOAD /usr/local/lpcxpresso_4.2.3_255/lpcxpresso/tools/bin/../lib/gcc/arm-none-eabi/4.5.1/../../../../arm-none-eabi/lib/thumb2/libcr_newlib_nohost.a
END GROUP
                0x00080000                __top_MFlash512 = 0x80000
                0x10008000                __top_RamLoc32 = 0x10008000
                0x20084000                __top_RamAHB32 = 0x20084000

.text           0x00000000    0x30968
 FILL mask 0xff
 *(.isr_vector)
 .isr_vector    0x00000000       0xc4 ./cr_startup_lpc17.o
                0x00000000                g_pfnVectors
                0x000000c4                . = ALIGN (0x4)
                0x000000c4                __section_table_start = .
                0x000000c4                __data_section_table = .
                0x000000c4        0x4 LONG 0x30970 LOADADDR (.data)
                0x000000c8        0x4 LONG 0x10000000 ADDR (.data)
                0x000000cc        0x4 LONG 0x5dc SIZEOF (.data)
                0x000000d0        0x4 LONG 0x30970 LOADADDR (.data_RAM2)
                0x000000d4        0x4 LONG 0x2007c000 ADDR (.data_RAM2)
                0x000000d8        0x4 LONG 0x0 SIZEOF (.data_RAM2)
                0x000000dc                __data_section_table_end = .
                0x000000dc                __bss_section_table = .
                0x000000dc        0x4 LONG 0x100005e0 ADDR (.bss)
                0x000000e0        0x4 LONG 0x5948 SIZEOF (.bss)
                0x000000e4        0x4 LONG 0x2007c000 ADDR (.bss_RAM2)
                0x000000e8        0x4 LONG 0x0 SIZEOF (.bss_RAM2)
                0x000000ec                __bss_section_table_end = .
                0x000000ec                __section_table_end = .
 *(.after_vectors*)
 *(.text*)
 .text.SysTick_Handler
                0x000000ec       0x10 ./LedBlinky.o
                0x000000ec                SysTick_Handler
 .text.NMI_Handler
                0x000000fc        0x4 ./cr_startup_lpc17.o
                0x000000fc                NMI_Handler
 .text.HardFault_Handler
                0x00000100       0x14 ./cr_startup_lpc17.o
                0x00000100                HardFault_Handler
 .text.MemManage_Handler
                0x00000114        0x4 ./cr_startup_lpc17.o
                0x00000114                MemManage_Handler
 .text.BusFault_Handler
                0x00000118        0x4 ./cr_startup_lpc17.o
                0x00000118                BusFault_Handler
 .text.UsageFault_Handler
                0x0000011c        0x4 ./cr_startup_lpc17.o
                0x0000011c                UsageFault_Handler
 .text.DebugMon_Handler
                0x00000120        0x4 ./cr_startup_lpc17.o
                0x00000120                DebugMon_Handler
 .text.Reset_Handler
                0x00000124       0xbc ./cr_startup_lpc17.o
                0x00000124                Reset_Handler
                0x00000124                ResetISR
 .text.hard_fault_handler_c
                0x000001e0       0x84 ./cr_startup_lpc17.o
                0x000001e0                hard_fault_handler_c
 .text.IntDefaultHandler
                0x00000264       0x18 ./cr_startup_lpc17.o
                0x00000264                TIMER2_IRQHandler
                0x00000264                RIT_IRQHandler
                0x00000264                PWM1_IRQHandler
                0x00000264                EINT2_IRQHandler
                0x00000264                EINT3_IRQHandler
                0x00000264                TIMER3_IRQHandler
                0x00000264                PLL0_IRQHandler
                0x00000264                CAN_IRQHandler
                0x00000264                PLL1_IRQHandler
                0x00000264                RTC_IRQHandler
                0x00000264                TIMER0_IRQHandler
                0x00000264                EINT1_IRQHandler
                0x00000264                TIMER1_IRQHandler
                0x00000264                ADC_IRQHandler
                0x00000264                BOD_IRQHandler
                0x00000264                WDT_IRQHandler
                0x00000264                QEI_IRQHandler
                0x00000264                EINT0_IRQHandler
                0x00000264                MCPWM_IRQHandler
 .text.LCD_Init
                0x0000027c       0xc8 ./lcd_i2c.o
                0x0000027c                LCD_Init
 .text.LCD_ClearScreen
                0x00000344       0xd4 ./lcd_i2c.o
                0x00000344                LCD_ClearScreen
 .text.LCD_PrintText
                0x00000418      0x120 ./lcd_i2c.o
                0x00000418                LCD_PrintText
 .text.main     0x00000538       0x7c ./main.o
                0x00000538                main
 .text.vSoftwareInterruptHandler
                0x000005b4       0x54 ./main.o
                0x000005b4                vSoftwareInterruptHandler
 .text.vApplicationMallocFailedHook
                0x00000608        0x4 ./main.o
                0x00000608                vApplicationMallocFailedHook
 .text.vApplicationStackOverflowHook
                0x0000060c       0x10 ./main.o
                0x0000060c                vApplicationStackOverflowHook
 .text.vApplicationIdleHook
                0x0000061c        0x4 ./main.o
                0x0000061c                vApplicationIdleHook
 .text.vApplicationTickHook
                0x00000620        0x4 ./main.o
                0x00000620                vApplicationTickHook
 .text.lEMACInit
                0x00000624      0x988 ./webserver/emac.o
                0x00000624                lEMACInit
 .text.ulGetEMACRxData
                0x00000fac      0x228 ./webserver/emac.o
                0x00000fac                ulGetEMACRxData
 .text.vSendEMACTxData
                0x000011d4      0x234 ./webserver/emac.o
                0x000011d4                vSendEMACTxData
 .text.vEMAC_ISR
                0x00001408       0xfc ./webserver/emac.o
                0x00001408                vEMAC_ISR
 .text.nullfunction
                0x00001504        0x8 ./webserver/httpd-cgi.o
 .text.lcd_io   0x0000150c       0x4c ./webserver/httpd-cgi.o
 .text.led_io   0x00001558       0x4c ./webserver/httpd-cgi.o
 .text.run_time
                0x000015a4       0x4c ./webserver/httpd-cgi.o
 .text.rtos_stats
                0x000015f0       0x48 ./webserver/httpd-cgi.o
 .text.net_stats
                0x00001638       0x4c ./webserver/httpd-cgi.o
 .text.tcp_stats
                0x00001684       0x5c ./webserver/httpd-cgi.o
 .text.generate_lcd_txt
                0x000016e0       0x24 ./webserver/httpd-cgi.o
 .text.generate_io_state
                0x00001704       0x3c ./webserver/httpd-cgi.o
 .text.generate_runtime_stats
                0x00001740       0x3c ./webserver/httpd-cgi.o
 .text.generate_rtos_stats
                0x0000177c       0x44 ./webserver/httpd-cgi.o
 .text.generate_net_stats
                0x000017c0       0x30 ./webserver/httpd-cgi.o
 .text.generate_tcp_stats
                0x000017f0       0xd4 ./webserver/httpd-cgi.o
 .text.file_stats
                0x000018c4       0x54 ./webserver/httpd-cgi.o
 .text.generate_file_stats
                0x00001918       0x28 ./webserver/httpd-cgi.o
 .text.httpd_cgi
                0x00001940       0x48 ./webserver/httpd-cgi.o
                0x00001940                httpd_cgi
 .text.httpd_fs_open
                0x00001988       0x70 ./webserver/httpd-fs.o
                0x00001988                httpd_fs_open
 .text.httpd_fs_count
                0x000019f8       0x60 ./webserver/httpd-fs.o
                0x000019f8                httpd_fs_count
 .text.handle_input
                0x00001a58      0x118 ./webserver/httpd.o
 .text.send_headers
                0x00001b70      0x214 ./webserver/httpd.o
 .text.generate_part_of_file
                0x00001d84       0x3c ./webserver/httpd.o
 .text.handle_output
                0x00001dc0      0x320 ./webserver/httpd.o
 .text.httpd_appcall
                0x000020e0       0xa4 ./webserver/httpd.o
                0x000020e0                httpd_appcall
 .text.networkd_appcall
                0x00002184       0x1c ./webserver/httpd.o
                0x00002184                networkd_appcall
 .text.httpd_init
                0x000021a0        0x8 ./webserver/httpd.o
                0x000021a0                httpd_init
 .text.psock_send
                0x000021a8       0xc8 ./webserver/psock.o
                0x000021a8                psock_send
 .text.psock_generator_send
                0x00002270      0x130 ./webserver/psock.o
                0x00002270                psock_generator_send
 .text.psock_datalen
                0x000023a0        0xc ./webserver/psock.o
                0x000023a0                psock_datalen
 .text.psock_readto
                0x000023ac      0x188 ./webserver/psock.o
                0x000023ac                psock_readto
 .text.psock_init
                0x00002534       0x18 ./webserver/psock.o
                0x00002534                psock_init
 .text.psock_sink_receive
                0x0000254c       0x9c ./webserver/psock.o
                0x0000254c                psock_sink_receive
 .text.timer_set
                0x000025e8       0x10 ./webserver/timer.o
                0x000025e8                timer_set
 .text.timer_reset
                0x000025f8        0xc ./webserver/timer.o
                0x000025f8                timer_reset
 .text.timer_expired
                0x00002604       0x18 ./webserver/timer.o
                0x00002604                timer_expired
 .text.clock_time
                0x0000261c        0x4 ./webserver/uIP_Task.o
                0x0000261c                clock_time
 .text.vuIP_Task
                0x00002620      0x414 ./webserver/uIP_Task.o
                0x00002620                vuIP_Task
 .text.vApplicationProcessFormInput
                0x00002a34      0x1cc ./webserver/uIP_Task.o
                0x00002a34                vApplicationProcessFormInput
 .text.uip_add_rcv_nxt
                0x00002c00       0xa0 ./webserver/uip.o
 .text.uip_add32
                0x00002ca0       0x64 ./webserver/uip.o
                0x00002ca0                uip_add32
 .text.uip_tcpchksum
                0x00002d04      0x1e8 ./webserver/uip.o
                0x00002d04                uip_tcpchksum
 .text.uip_init
                0x00002eec       0x64 ./webserver/uip.o
                0x00002eec                uip_init
 .text.uip_connect
                0x00002f50      0x384 ./webserver/uip.o
                0x00002f50                uip_connect
 .text.uip_unlisten
                0x000032d4       0xac ./webserver/uip.o
                0x000032d4                uip_unlisten
 .text.uip_listen
                0x00003380       0xa4 ./webserver/uip.o
                0x00003380                uip_listen
 .text.uip_process
                0x00003424     0x1ac0 ./webserver/uip.o
                0x00003424                uip_process
 .text.htons    0x00004ee4        0xc ./webserver/uip.o
                0x00004ee4                htons
 .text.uip_send
                0x00004ef0       0x30 ./webserver/uip.o
                0x00004ef0                uip_send
 .text.uip_arp_update
                0x00004f20      0x32c ./webserver/uip_arp.o
 .text.uip_arp_timer
                0x0000524c       0x64 ./webserver/uip_arp.o
                0x0000524c                uip_arp_timer
 .text.uip_arp_ipin
                0x000052b0       0x68 ./webserver/uip_arp.o
                0x000052b0                uip_arp_ipin
 .text.uip_arp_arpin
                0x00005318      0x150 ./webserver/uip_arp.o
                0x00005318                uip_arp_arpin
 .text.uip_arp_out
                0x00005468      0x2c0 ./webserver/uip_arp.o
                0x00005468                uip_arp_out
 .text.Append_part_of_file
                0x00005728       0x68 ./uip_ftp/Connections.o
 .text.Generate_part_of_file
                0x00005790       0x78 ./uip_ftp/Connections.o
 .text.Generate_list_data
                0x00005808      0x14c ./uip_ftp/Connections.o
 .text.Generate_help_data
                0x00005954       0x68 ./uip_ftp/Connections.o
 .text.Send_257_response
                0x000059bc       0x20 ./uip_ftp/Connections.o
 .text.Cmd_syst
                0x000059dc       0xcc ./uip_ftp/Connections.o
                0x000059dc                Cmd_syst
 .text.Cmd_help
                0x00005aa8       0xd0 ./uip_ftp/Connections.o
                0x00005aa8                Cmd_help
 .text.Cmd_stru
                0x00005b78       0x8c ./uip_ftp/Connections.o
                0x00005b78                Cmd_stru
 .text.Cmd_mode
                0x00005c04       0x8c ./uip_ftp/Connections.o
                0x00005c04                Cmd_mode
 .text.Cmd_abor
                0x00005c90       0x60 ./uip_ftp/Connections.o
                0x00005c90                Cmd_abor
 .text.Cmd_type
                0x00005cf0       0xa4 ./uip_ftp/Connections.o
                0x00005cf0                Cmd_type
 .text.Cmd_noop
                0x00005d94       0x4c ./uip_ftp/Connections.o
                0x00005d94                Cmd_noop
 .text.Cmd_quit
                0x00005de0       0x58 ./uip_ftp/Connections.o
                0x00005de0                Cmd_quit
 .text.Cmd_user
                0x00005e38       0x8c ./uip_ftp/Connections.o
                0x00005e38                Cmd_user
 .text.Cmd_ukwn
                0x00005ec4       0x48 ./uip_ftp/Connections.o
                0x00005ec4                Cmd_ukwn
 .text.Cmd_cdup
                0x00005f0c      0x108 ./uip_ftp/Connections.o
                0x00005f0c                Cmd_cdup
 .text.Cmd_pwd  0x00006014       0x70 ./uip_ftp/Connections.o
                0x00006014                Cmd_pwd
 .text.Cmd_cwd  0x00006084      0x194 ./uip_ftp/Connections.o
                0x00006084                Cmd_cwd
 .text.Cmd_rmd  0x00006218      0x310 ./uip_ftp/Connections.o
                0x00006218                Cmd_rmd
 .text.Cmd_dele
                0x00006528      0x314 ./uip_ftp/Connections.o
                0x00006528                Cmd_dele
 .text.Cmd_mkd  0x0000683c      0x224 ./uip_ftp/Connections.o
                0x0000683c                Cmd_mkd
 .text.Send_PASV_response
                0x00006a60       0x8c ./uip_ftp/Connections.o
 .text.Cmd_stor
                0x00006aec      0x1c8 ./uip_ftp/Connections.o
                0x00006aec                Cmd_stor
 .text.Cmd_retr
                0x00006cb4      0x258 ./uip_ftp/Connections.o
                0x00006cb4                Cmd_retr
 .text.Cmd_list
                0x00006f0c      0x258 ./uip_ftp/Connections.o
                0x00006f0c                Cmd_list
 .text.Cmd_port
                0x00007164      0x190 ./uip_ftp/Connections.o
                0x00007164                Cmd_port
 .text.Cmd_pasv
                0x000072f4       0x84 ./uip_ftp/Connections.o
                0x000072f4                Cmd_pasv
 .text.handle_cmd_input
                0x00007378      0x128 ./uip_ftp/Connections.o
                0x00007378                handle_cmd_input
 .text.handle_cmd_output
                0x000074a0      0x11c ./uip_ftp/Connections.o
                0x000074a0                handle_cmd_output
 .text.CloseFile
                0x000075bc       0x1c ./uip_ftp/Connections.o
                0x000075bc                CloseFile
 .text.handle_data_connection
                0x000075d8      0x1dc ./uip_ftp/Connections.o
                0x000075d8                handle_data_connection
 .text.ftpd_appcall
                0x000077b4      0x498 ./uip_ftp/FTPD.o
                0x000077b4                ftpd_appcall
 .text.ftpd_init
                0x00007c4c       0x28 ./uip_ftp/FTPD.o
                0x00007c4c                ftpd_init
 .text.appdata_init
                0x00007c74       0x78 ./uip_ftp/ftp_main.o
                0x00007c74                appdata_init
 .text.CLKPWR_SetPCLKDiv
                0x00007cec       0x5c ./driver_source/lpc17xx_clkpwr.o
                0x00007cec                CLKPWR_SetPCLKDiv
 .text.CLKPWR_GetPCLK
                0x00007d48       0x44 ./driver_source/lpc17xx_clkpwr.o
                0x00007d48                CLKPWR_GetPCLK
 .text.CLKPWR_ConfigPPWR
                0x00007d8c       0x4c ./driver_source/lpc17xx_clkpwr.o
                0x00007d8c                CLKPWR_ConfigPPWR
 .text.GPDMA_IntHandler
                0x00007dd8      0x2c0 ./driver_source/lpc17xx_gpdma.o
                0x00007dd8                GPDMA_IntHandler
 .text.GPIO_SetDir
                0x00008098       0x28 ./driver_source/lpc17xx_gpio.o
                0x00008098                GPIO_SetDir
 .text.GPIO_SetValue
                0x000080c0       0x18 ./driver_source/lpc17xx_gpio.o
                0x000080c0                GPIO_SetValue
 .text.GPIO_ClearValue
                0x000080d8       0x18 ./driver_source/lpc17xx_gpio.o
                0x000080d8                GPIO_ClearValue
 .text.GPIO_ReadValue
                0x000080f0       0x1c ./driver_source/lpc17xx_gpio.o
                0x000080f0                GPIO_ReadValue
 .text.I2C_MasterHandler
                0x0000810c      0x264 ./driver_source/lpc17xx_i2c.o
                0x0000810c                I2C_MasterHandler
 .text.I2C_Init
                0x00008370      0x104 ./driver_source/lpc17xx_i2c.o
                0x00008370                I2C_Init
 .text.I2C_Cmd  0x00008474       0x64 ./driver_source/lpc17xx_i2c.o
                0x00008474                I2C_Cmd
 .text.I2C_MasterTransferData
                0x000084d8      0x328 ./driver_source/lpc17xx_i2c.o
                0x000084d8                I2C_MasterTransferData
 .text.I2C0_StdIntHandler
                0x00008800       0x18 ./driver_source/lpc17xx_i2c.o
                0x00008800                I2C0_StdIntHandler
 .text.I2C1_StdIntHandler
                0x00008818       0x18 ./driver_source/lpc17xx_i2c.o
                0x00008818                I2C1_StdIntHandler
 .text.I2C2_StdIntHandler
                0x00008830       0x18 ./driver_source/lpc17xx_i2c.o
                0x00008830                I2C2_StdIntHandler
 .text.I2S_IntHandler
                0x00008848       0x5c ./driver_source/lpc17xx_i2s.o
                0x00008848                I2S_IntHandler
 .text.check_failed
                0x000088a4        0x4 ./driver_source/lpc17xx_libcfg_default.o
                0x000088a4                check_failed
 .text.PINSEL_ConfigPin
                0x000088a8       0xa4 ./driver_source/lpc17xx_pinsel.o
                0x000088a8                PINSEL_ConfigPin
 .text.RTC_Init
                0x0000894c       0x38 ./driver_source/lpc17xx_rtc.o
                0x0000894c                RTC_Init
 .text.RTC_ResetClockTickCounter
                0x00008984       0x34 ./driver_source/lpc17xx_rtc.o
                0x00008984                RTC_ResetClockTickCounter
 .text.RTC_Cmd  0x000089b8       0x4c ./driver_source/lpc17xx_rtc.o
                0x000089b8                RTC_Cmd
 .text.RTC_SetTime
                0x00008a04      0x144 ./driver_source/lpc17xx_rtc.o
                0x00008a04                RTC_SetTime
 .text.RTC_GetFullTime
                0x00008b48       0x70 ./driver_source/lpc17xx_rtc.o
                0x00008b48                RTC_GetFullTime
 .text.RTC_CalibCounterCmd
                0x00008bb8       0x50 ./driver_source/lpc17xx_rtc.o
                0x00008bb8                RTC_CalibCounterCmd
 .text.LPC17xx_SD_SendCmd
                0x00008c08      0x1d0 ./driver_source/lpc17xx_sd.o
 .text.LPC17xx_SD_WirteDataBlock
                0x00008dd8      0x12c ./driver_source/lpc17xx_sd.o
 .text.MMC_disk_initialize
                0x00008f04      0x1b4 ./driver_source/lpc17xx_sd.o
                0x00008f04                MMC_disk_initialize
 .text.MMC_disk_ioctl
                0x000090b8      0x69c ./driver_source/lpc17xx_sd.o
                0x000090b8                MMC_disk_ioctl
 .text.MMC_disk_read
                0x00009754      0x388 ./driver_source/lpc17xx_sd.o
                0x00009754                MMC_disk_read
 .text.MMC_disk_status
                0x00009adc       0x14 ./driver_source/lpc17xx_sd.o
                0x00009adc                MMC_disk_status
 .text.MMC_disk_write
                0x00009af0      0x21c ./driver_source/lpc17xx_sd.o
                0x00009af0                MMC_disk_write
 .text.SPI_IntHandler
                0x00009d0c       0xe8 ./driver_source/lpc17xx_spi.o
                0x00009d0c                SPI_IntHandler
 .text.SPI_Init
                0x00009df4      0x100 ./driver_source/lpc17xx_spi.o
                0x00009df4                SPI_Init
 .text.SPI_ConfigStructInit
                0x00009ef4       0x20 ./driver_source/lpc17xx_spi.o
                0x00009ef4                SPI_ConfigStructInit
 .text.SPI_SendData
                0x00009f14       0x24 ./driver_source/lpc17xx_spi.o
                0x00009f14                SPI_SendData
 .text.SPI_ReceiveData
                0x00009f38       0x24 ./driver_source/lpc17xx_spi.o
                0x00009f38                SPI_ReceiveData
 .text.SSP0_StdIntHandler
                0x00009f5c       0x18 ./driver_source/lpc17xx_ssp.o
                0x00009f5c                SSP0_StdIntHandler
 .text.SSP1_StdIntHandler
                0x00009f74       0x18 ./driver_source/lpc17xx_ssp.o
                0x00009f74                SSP1_StdIntHandler
 .text.uart_set_divisors
                0x00009f8c      0x65c ./driver_source/lpc17xx_uart.o
                0x00009f8c                uart_set_divisors
 .text.UART_GenIntHandler
                0x0000a5e8      0x114 ./driver_source/lpc17xx_uart.o
                0x0000a5e8                UART_GenIntHandler
 .text.UART_Init
                0x0000a6fc      0x234 ./driver_source/lpc17xx_uart.o
                0x0000a6fc                UART_Init
 .text.UART_ConfigStructInit
                0x0000a930       0x14 ./driver_source/lpc17xx_uart.o
                0x0000a930                UART_ConfigStructInit
 .text.UART_IntConfig
                0x0000a944      0x13c ./driver_source/lpc17xx_uart.o
                0x0000a944                UART_IntConfig
 .text.UART_CheckBusy
                0x0000aa80       0x10 ./driver_source/lpc17xx_uart.o
                0x0000aa80                UART_CheckBusy
 .text.UART_FIFOConfig
                0x0000aa90       0xf8 ./driver_source/lpc17xx_uart.o
                0x0000aa90                UART_FIFOConfig
 .text.UART_FIFOConfigStructInit
                0x0000ab88       0x10 ./driver_source/lpc17xx_uart.o
                0x0000ab88                UART_FIFOConfigStructInit
 .text.UART_TxCmd
                0x0000ab98       0x8c ./driver_source/lpc17xx_uart.o
                0x0000ab98                UART_TxCmd
 .text.UART_FullModemForcePinState
                0x0000ac24       0x74 ./driver_source/lpc17xx_uart.o
                0x0000ac24                UART_FullModemForcePinState
 .text.UART_Send
                0x0000ac98      0x3b4 ./driver_source/lpc17xx_uart.o
                0x0000ac98                UART_Send
 .text.UART_Receive
                0x0000b04c      0x5bc ./driver_source/lpc17xx_uart.o
                0x0000b04c                UART_Receive
 .text.UART_SetupCbs
                0x0000b608       0x88 ./driver_source/lpc17xx_uart.o
                0x0000b608                UART_SetupCbs
 .text.UART0_StdIntHandler
                0x0000b690        0xc ./driver_source/lpc17xx_uart.o
                0x0000b690                UART0_StdIntHandler
 .text.UART1_StdIntHandler
                0x0000b69c       0x18 ./driver_source/lpc17xx_uart.o
                0x0000b69c                UART1_StdIntHandler
 .text.UART2_StdIntHandler
                0x0000b6b4        0xc ./driver_source/lpc17xx_uart.o
                0x0000b6b4                UART2_StdIntHandler
 .text.UART3_StdIntHandler
                0x0000b6c0        0xc ./driver_source/lpc17xx_uart.o
                0x0000b6c0                UART3_StdIntHandler
 .text.UART1_IntReceive_usb
                0x0000b6cc       0xa4 ./UsbHost/Uart/usbhost_uart.o
                0x0000b6cc                UART1_IntReceive_usb
 .text.UART1_IntErr_usb
                0x0000b770       0x24 ./UsbHost/Uart/usbhost_uart.o
                0x0000b770                UART1_IntErr_usb
 .text.UART1_IntTransmit_usb
                0x0000b794       0xd4 ./UsbHost/Uart/usbhost_uart.o
                0x0000b794                UART1_IntTransmit_usb
 .text.UART_Init_usb
                0x0000b868      0x11c ./UsbHost/Uart/usbhost_uart.o
                0x0000b868                UART_Init_usb
 .text.UART_Printf
                0x0000b984       0x90 ./UsbHost/Uart/usbhost_uart.o
                0x0000b984                UART_Printf
 .text.MS_ParseConfiguration
                0x0000ba14      0x100 ./UsbHost/MassStorage/usbhost_ms.o
                0x0000ba14                MS_ParseConfiguration
 .text.Fill_MSCommand
                0x0000bb14      0x12c ./UsbHost/MassStorage/usbhost_ms.o
                0x0000bb14                Fill_MSCommand
 .text.MS_BulkSend
                0x0000bc40       0x94 ./UsbHost/MassStorage/usbhost_ms.o
                0x0000bc40                MS_BulkSend
 .text.MS_BulkRecv
                0x0000bcd4       0xa4 ./UsbHost/MassStorage/usbhost_ms.o
                0x0000bcd4                MS_BulkRecv
 .text.MS_Inquire
                0x0000bd78       0xb8 ./UsbHost/MassStorage/usbhost_ms.o
                0x0000bd78                MS_Inquire
 .text.MS_ReadCapacity
                0x0000be30       0x98 ./UsbHost/MassStorage/usbhost_ms.o
                0x0000be30                MS_ReadCapacity
 .text.MS_TestUnitReady
                0x0000bec8       0x64 ./UsbHost/MassStorage/usbhost_ms.o
                0x0000bec8                MS_TestUnitReady
 .text.MS_Init  0x0000bf2c      0x144 ./UsbHost/MassStorage/usbhost_ms.o
                0x0000bf2c                MS_Init
 .text.usb_host_main
                0x0000c070      0x110 ./UsbHost/Main/usbhost_main.o
                0x0000c070                usb_host_main
 .text.get_fattime
                0x0000c180       0x3c ./UsbHost/Host/usb_ms_diskio.o
                0x0000c180                get_fattime
 .text.USB_disk_initialize
                0x0000c1bc       0xdc ./UsbHost/Host/usb_ms_diskio.o
                0x0000c1bc                USB_disk_initialize
 .text.USB_disk_ioctl
                0x0000c298       0x3c ./UsbHost/Host/usb_ms_diskio.o
                0x0000c298                USB_disk_ioctl
 .text.USB_disk_read
                0x0000c2d4       0x14 ./UsbHost/Host/usb_ms_diskio.o
                0x0000c2d4                USB_disk_read
 .text.USB_disk_status
                0x0000c2e8        0x4 ./UsbHost/Host/usb_ms_diskio.o
                0x0000c2e8                USB_disk_status
 .text.USB_disk_write
                0x0000c2ec       0x14 ./UsbHost/Host/usb_ms_diskio.o
                0x0000c2ec                USB_disk_write
 .text.Host_Init
                0x0000c300      0x24c ./UsbHost/Host/usbhost_lpc17xx.o
                0x0000c300                Host_Init
 .text.USB_IRQHandler_host
                0x0000c54c       0xf8 ./UsbHost/Host/usbhost_lpc17xx.o
                0x0000c54c                USB_IRQHandler_host
 .text.Host_ProcessTD
                0x0000c644       0xec ./UsbHost/Host/usbhost_lpc17xx.o
                0x0000c644                Host_ProcessTD
 .text.Host_EnumDev
                0x0000c730      0x470 ./UsbHost/Host/usbhost_lpc17xx.o
                0x0000c730                Host_EnumDev
 .text.Host_CtrlRecv
                0x0000cba0      0x120 ./UsbHost/Host/usbhost_lpc17xx.o
                0x0000cba0                Host_CtrlRecv
 .text.WriteLE32U
                0x0000ccc0       0x24 ./UsbHost/Host/usbhost_lpc17xx.o
                0x0000ccc0                WriteLE32U
 .text.ReadLE16U
                0x0000cce4       0x18 ./UsbHost/Host/usbhost_lpc17xx.o
                0x0000cce4                ReadLE16U
 .text.ReadBE32U
                0x0000ccfc       0x24 ./UsbHost/Host/usbhost_lpc17xx.o
                0x0000ccfc                ReadBE32U
 .text.WriteBE32U
                0x0000cd20       0x24 ./UsbHost/Host/usbhost_lpc17xx.o
                0x0000cd20                WriteBE32U
 .text.WriteBE16U
                0x0000cd44       0x10 ./UsbHost/Host/usbhost_lpc17xx.o
                0x0000cd44                WriteBE16U
 .text.ff_convert
                0x0000cd54      0x218 ./FatFs/option/cc932.o
                0x0000cd54                ff_convert
 .text.ff_wtoupper
                0x0000cf6c       0x34 ./FatFs/option/cc932.o
                0x0000cf6c                ff_wtoupper
 .text.disk_initialize
                0x0000cfa0       0x58 ./FatFs/diskio.o
                0x0000cfa0                disk_initialize
 .text.disk_status
                0x0000cff8       0x20 ./FatFs/diskio.o
                0x0000cff8                disk_status
 .text.disk_read
                0x0000d018       0x28 ./FatFs/diskio.o
                0x0000d018                disk_read
 .text.disk_write
                0x0000d040       0x28 ./FatFs/diskio.o
                0x0000d040                disk_write
 .text.disk_ioctl
                0x0000d068       0x30 ./FatFs/diskio.o
                0x0000d068                disk_ioctl
 .text.get_fileinfo
                0x0000d098      0x330 ./FatFs/ff.o
 .text.chk_mounted
                0x0000d3c8      0x468 ./FatFs/ff.o
 .text.sync     0x0000d830      0x1c4 ./FatFs/ff.o
 .text.get_fat  0x0000d9f4      0x508 ./FatFs/ff.o
                0x0000d9f4                get_fat
 .text.dir_sdi  0x0000defc       0xb4 ./FatFs/ff.o
 .text.put_fat  0x0000dfb0      0x5e4 ./FatFs/ff.o
                0x0000dfb0                put_fat
 .text.create_chain
                0x0000e594      0x178 ./FatFs/ff.o
 .text.dir_next
                0x0000e70c      0x3a0 ./FatFs/ff.o
 .text.dir_find
                0x0000eaac      0x694 ./FatFs/ff.o
 .text.follow_path
                0x0000f140      0x5f8 ./FatFs/ff.o
 .text.dir_remove
                0x0000f738      0x18c ./FatFs/ff.o
 .text.dir_read
                0x0000f8c4      0x4f0 ./FatFs/ff.o
 .text.dir_register
                0x0000fdb4      0xb80 ./FatFs/ff.o
 .text.f_mount  0x00010934       0x3c ./FatFs/ff.o
                0x00010934                f_mount
 .text.f_open   0x00010970      0x3d0 ./FatFs/ff.o
                0x00010970                f_open
 .text.f_read   0x00010d40      0x3c8 ./FatFs/ff.o
                0x00010d40                f_read
 .text.f_write  0x00011108      0x450 ./FatFs/ff.o
                0x00011108                f_write
 .text.f_sync   0x00011558      0x1dc ./FatFs/ff.o
                0x00011558                f_sync
 .text.f_close  0x00011734       0x44 ./FatFs/ff.o
                0x00011734                f_close
 .text.f_chdrive
                0x00011778       0x18 ./FatFs/ff.o
                0x00011778                f_chdrive
 .text.f_chdir  0x00011790       0x70 ./FatFs/ff.o
                0x00011790                f_chdir
 .text.f_getcwd
                0x00011800      0x294 ./FatFs/ff.o
                0x00011800                f_getcwd
 .text.f_lseek  0x00011a94      0x1c8 ./FatFs/ff.o
                0x00011a94                f_lseek
 .text.f_opendir
                0x00011c5c       0x70 ./FatFs/ff.o
                0x00011c5c                f_opendir
 .text.f_readdir
                0x00011ccc       0x74 ./FatFs/ff.o
                0x00011ccc                f_readdir
 .text.f_truncate
                0x00011d40      0x170 ./FatFs/ff.o
                0x00011d40                f_truncate
 .text.f_unlink
                0x00011eb0      0x184 ./FatFs/ff.o
                0x00011eb0                f_unlink
 .text.f_mkdir  0x00012034      0x444 ./FatFs/ff.o
                0x00012034                f_mkdir
 .text.SystemInit
                0x00012478      0x14c /home/nlv14991/workspaceLPC/STE-LPC1768-/CMSISv1p30_LPC17xx/Debug/libCMSISv1p30_LPC17xx.a(system_LPC17xx.o)
                0x00012478                SystemInit
 .text          0x000125c4      0x510 /home/nlv14991/workspaceLPC/STE-LPC1768-/FreeRTOS_Library/Debug/libFreeRTOS_Library.a(queue.o)
                0x000126c0                xQueueCreate
                0x0001272c                xQueueCreateCountingSemaphore
                0x0001273c                xQueueGenericSend
                0x0001282c                xQueueCreateMutex
                0x00012870                xQueueGenericSendFromISR
                0x000128d0                xQueueGenericReceive
                0x00012a18                xQueueReceiveFromISR
                0x00012a8c                uxQueueMessagesWaiting
                0x00012aa0                uxQueueMessagesWaitingFromISR
                0x00012aa4                vQueueDelete
                0x00012ab8                xQueueIsQueueEmptyFromISR
                0x00012ac4                xQueueIsQueueFullFromISR
 .text          0x00012ad4      0xb58 /home/nlv14991/workspaceLPC/STE-LPC1768-/FreeRTOS_Library/Debug/libFreeRTOS_Library.a(tasks.o)
                0x00012ad4                xTaskGenericCreate
                0x00012c98                vTaskDelete
                0x00012d08                uxTaskPriorityGet
                0x00012d30                vTaskPrioritySet
                0x00012de0                xTaskIsTaskSuspended
                0x00012e08                vTaskResume
                0x00012e84                xTaskResumeFromISR
                0x00012efc                vTaskStartScheduler
                0x00012f50                vTaskEndScheduler
                0x00012f6c                vTaskSuspendAll
                0x00012f80                xTaskGetTickCount
                0x00012f9c                xTaskGetTickCountFromISR
                0x00012fac                uxTaskGetNumberOfTasks
                0x00012fb8                vTaskIncrementTick
                0x0001307c                xTaskResumeAll
                0x000131d4                vTaskDelay
                0x00013228                vTaskDelayUntil
                0x000132ac                vTaskSwitchContext
                0x00013384                vTaskSuspend
                0x000133f0                vTaskPlaceOnEventList
                0x00013458                xTaskRemoveFromEventList
                0x000134c0                vTaskSetTimeOutState
                0x000134d8                xTaskCheckForTimeOut
                0x00013554                vTaskMissedYield
                0x00013564                xTaskGetCurrentTaskHandle
                0x00013570                vTaskPriorityInherit
                0x000135dc                vTaskPriorityDisinherit
 .text          0x0001362c      0x134 /home/nlv14991/workspaceLPC/STE-LPC1768-/FreeRTOS_Library/Debug/libFreeRTOS_Library.a(heap_2.o)
                0x0001362c                pvPortMalloc
                0x00013704                vPortFree
                0x0001374c                xPortGetFreeHeapSize
                0x0001375c                vPortInitialiseBlocks
 .text          0x00013760      0x158 /home/nlv14991/workspaceLPC/STE-LPC1768-/FreeRTOS_Library/Debug/libFreeRTOS_Library.a(port.o)
                0x00013760                pxPortInitialiseStack
                0x00013784                vPortSVCHandler
                0x000137a4                vPortStartFirstTask
                0x000137b0                xPortStartScheduler
                0x00013804                vPortEndScheduler
                0x00013808                vPortYieldFromISR
                0x00013818                vPortEnterCritical
                0x00013830                vPortExitCritical
                0x0001384c                xPortPendSVHandler
                0x00013888                xPortSysTickHandler
 .text          0x000138b8       0x9c /home/nlv14991/workspaceLPC/STE-LPC1768-/FreeRTOS_Library/Debug/libFreeRTOS_Library.a(list.o)
                0x000138b8                vListInitialise
                0x000138d0                vListInitialiseItem
                0x000138d8                vListInsertEnd
                0x000138f4                vListInsert
                0x00013930                vListRemove
 .text          0x00013954       0x2c /usr/local/lpcxpresso_4.2.3_255/lpcxpresso/tools/bin/../lib/gcc/arm-none-eabi/4.5.1/thumb2/libgcc.a(_aeabi_uldivmod.o)
                0x00013954                __aeabi_uldivmod
 .text          0x00013980       0x60 /usr/local/lpcxpresso_4.2.3_255/lpcxpresso/tools/bin/../lib/gcc/arm-none-eabi/4.5.1/thumb2/libgcc.a(bpabi.o)
                0x00013980                __gnu_ldivmod_helper
                0x000139b0                __gnu_uldivmod_helper
 .text          0x000139e0        0x4 /usr/local/lpcxpresso_4.2.3_255/lpcxpresso/tools/bin/../lib/gcc/arm-none-eabi/4.5.1/thumb2/libgcc.a(_dvmd_tls.o)
                0x000139e0                __aeabi_ldiv0
                0x000139e0                __aeabi_idiv0
 .text          0x000139e4      0x364 /usr/local/lpcxpresso_4.2.3_255/lpcxpresso/tools/bin/../lib/gcc/arm-none-eabi/4.5.1/thumb2/libgcc.a(_divdi3.o)
                0x000139e4                __divdi3
 .text          0x00013d48      0x314 /usr/local/lpcxpresso_4.2.3_255/lpcxpresso/tools/bin/../lib/gcc/arm-none-eabi/4.5.1/thumb2/libgcc.a(_udivdi3.o)
                0x00013d48                __udivdi3
 *fill*         0x0001405c        0x4 00
 .text          0x00014060      0x278 /usr/local/lpcxpresso_4.2.3_255/lpcxpresso/tools/bin/../lib/gcc/arm-none-eabi/4.5.1/thumb2/libgcc.a(_udivsi3.o)
                0x00014060                __udivsi3
                0x00014060                __aeabi_uidiv
                0x000142bc                __aeabi_uidivmod
 .text          0x000142d8       0x58 /usr/local/lpcxpresso_4.2.3_255/lpcxpresso/tools/bin/../lib/gcc/arm-none-eabi/4.5.1/../../../../arm-none-eabi/lib/thumb2/libc.a(lib_a-memcmp.o)
                0x000142d8                memcmp
 .text          0x00014330      0x150 /usr/local/lpcxpresso_4.2.3_255/lpcxpresso/tools/bin/../lib/gcc/arm-none-eabi/4.5.1/../../../../arm-none-eabi/lib/thumb2/libc.a(lib_a-memcpy.o)
                0x00014330                memcpy
 .text          0x00014480       0xb4 /usr/local/lpcxpresso_4.2.3_255/lpcxpresso/tools/bin/../lib/gcc/arm-none-eabi/4.5.1/../../../../arm-none-eabi/lib/thumb2/libc.a(lib_a-memset.o)
                0x00014480                memset
 .text          0x00014534       0xd0 /usr/local/lpcxpresso_4.2.3_255/lpcxpresso/tools/bin/../lib/gcc/arm-none-eabi/4.5.1/../../../../arm-none-eabi/lib/thumb2/libc.a(lib_a-snprintf.o)
                0x00014534                _snprintf_r
                0x00014598                snprintf
 .text          0x00014604       0x94 /usr/local/lpcxpresso_4.2.3_255/lpcxpresso/tools/bin/../lib/gcc/arm-none-eabi/4.5.1/../../../../arm-none-eabi/lib/thumb2/libc.a(lib_a-sprintf.o)
                0x00014604                _sprintf_r
                0x00014648                sprintf
 .text          0x00014698       0xb4 /usr/local/lpcxpresso_4.2.3_255/lpcxpresso/tools/bin/../lib/gcc/arm-none-eabi/4.5.1/../../../../arm-none-eabi/lib/thumb2/libc.a(lib_a-sscanf.o)
                0x00014698                sscanf
                0x000146f4                _sscanf_r
 .text          0x0001474c       0x94 /usr/local/lpcxpresso_4.2.3_255/lpcxpresso/tools/bin/../lib/gcc/arm-none-eabi/4.5.1/../../../../arm-none-eabi/lib/thumb2/libc.a(lib_a-stdio.o)
                0x0001474c                __sread
                0x00014770                __seofread
                0x00014774                __swrite
                0x000147b0                __sseek
                0x000147d8                __sclose
 .text          0x000147e0       0x50 /usr/local/lpcxpresso_4.2.3_255/lpcxpresso/tools/bin/../lib/gcc/arm-none-eabi/4.5.1/../../../../arm-none-eabi/lib/thumb2/libc.a(lib_a-strcat.o)
                0x000147e0                strcat
 .text          0x00014830      0x10c /usr/local/lpcxpresso_4.2.3_255/lpcxpresso/tools/bin/../lib/gcc/arm-none-eabi/4.5.1/../../../../arm-none-eabi/lib/thumb2/libc.a(lib_a-strchr.o)
                0x00014830                strchr
 .text          0x0001493c      0x1dc /usr/local/lpcxpresso_4.2.3_255/lpcxpresso/tools/bin/../lib/gcc/arm-none-eabi/4.5.1/../../../../arm-none-eabi/lib/thumb2/libc.a(lib_a-strcmp.o)
                0x0001493c                strcmp
 .text          0x00014b18       0xbc /usr/local/lpcxpresso_4.2.3_255/lpcxpresso/tools/bin/../lib/gcc/arm-none-eabi/4.5.1/../../../../arm-none-eabi/lib/thumb2/libc.a(lib_a-strcpy.o)
                0x00014b18                strcpy
 .text          0x00014bd4       0x60 /usr/local/lpcxpresso_4.2.3_255/lpcxpresso/tools/bin/../lib/gcc/arm-none-eabi/4.5.1/../../../../arm-none-eabi/lib/thumb2/libc.a(lib_a-strlen.o)
                0x00014bd4                strlen
 .text          0x00014c34       0xa0 /usr/local/lpcxpresso_4.2.3_255/lpcxpresso/tools/bin/../lib/gcc/arm-none-eabi/4.5.1/../../../../arm-none-eabi/lib/thumb2/libc.a(lib_a-strncmp.o)
                0x00014c34                strncmp
 .text          0x00014cd4       0x7c /usr/local/lpcxpresso_4.2.3_255/lpcxpresso/tools/bin/../lib/gcc/arm-none-eabi/4.5.1/../../../../arm-none-eabi/lib/thumb2/libc.a(lib_a-strncpy.o)
                0x00014cd4                strncpy
 .text          0x00014d50       0x28 /usr/local/lpcxpresso_4.2.3_255/lpcxpresso/tools/bin/../lib/gcc/arm-none-eabi/4.5.1/../../../../arm-none-eabi/lib/thumb2/libc.a(lib_a-strrchr.o)
                0x00014d50                strrchr
 .text          0x00014d78      0x510 /usr/local/lpcxpresso_4.2.3_255/lpcxpresso/tools/bin/../lib/gcc/arm-none-eabi/4.5.1/../../../../arm-none-eabi/lib/thumb2/libc.a(lib_a-strstr.o)
                0x0001506c                strstr
 .text          0x00015288     0x1658 /usr/local/lpcxpresso_4.2.3_255/lpcxpresso/tools/bin/../lib/gcc/arm-none-eabi/4.5.1/../../../../arm-none-eabi/lib/thumb2/libc.a(lib_a-svfprintf.o)
                0x00015288                _svfprintf_r
 .text          0x000168e0      0xfa0 /usr/local/lpcxpresso_4.2.3_255/lpcxpresso/tools/bin/../lib/gcc/arm-none-eabi/4.5.1/../../../../arm-none-eabi/lib/thumb2/libc.a(lib_a-svfscanf.o)
                0x000168e0                __ssvfscanf_r
 .text          0x00017880       0x4c /usr/local/lpcxpresso_4.2.3_255/lpcxpresso/tools/bin/../lib/gcc/arm-none-eabi/4.5.1/../../../../arm-none-eabi/lib/thumb2/libc.a(lib_a-vsprintf.o)
                0x00017880                _vsprintf_r
                0x000178b4                vsprintf
 .text          0x000178cc       0x2c /usr/local/lpcxpresso_4.2.3_255/lpcxpresso/tools/bin/../lib/gcc/arm-none-eabi/4.5.1/../../../../arm-none-eabi/lib/thumb2/libc.a(lib_a-writer.o)
                0x000178cc                _write_r
 .text          0x000178f8       0x28 /usr/local/lpcxpresso_4.2.3_255/lpcxpresso/tools/bin/../lib/gcc/arm-none-eabi/4.5.1/../../../../arm-none-eabi/lib/thumb2/libc.a(lib_a-closer.o)
                0x000178f8                _close_r
 .text          0x00017920     0x1000 /usr/local/lpcxpresso_4.2.3_255/lpcxpresso/tools/bin/../lib/gcc/arm-none-eabi/4.5.1/../../../../arm-none-eabi/lib/thumb2/libc.a(lib_a-dtoa.o)
                0x00017a4c                _dtoa_r
 .text          0x00018920      0x1f4 /usr/local/lpcxpresso_4.2.3_255/lpcxpresso/tools/bin/../lib/gcc/arm-none-eabi/4.5.1/../../../../arm-none-eabi/lib/thumb2/libc.a(lib_a-fflush.o)
                0x00018920                _fflush_r
                0x00018aec                fflush
 .text          0x00018b14      0x220 /usr/local/lpcxpresso_4.2.3_255/lpcxpresso/tools/bin/../lib/gcc/arm-none-eabi/4.5.1/../../../../arm-none-eabi/lib/thumb2/libc.a(lib_a-findfp.o)
                0x00018b1c                _cleanup_r
                0x00018b28                __sfmoreglue
                0x00018b58                _cleanup
                0x00018b64                __sinit
                0x00018c6c                __sfp
                0x00018cf4                __sfp_lock_acquire
                0x00018cf8                __sfp_lock_release
                0x00018cfc                __sinit_lock_acquire
                0x00018d00                __sinit_lock_release
                0x00018d04                __fp_lock_all
                0x00018d1c                __fp_unlock_all
 .text          0x00018d34      0x240 /usr/local/lpcxpresso_4.2.3_255/lpcxpresso/tools/bin/../lib/gcc/arm-none-eabi/4.5.1/../../../../arm-none-eabi/lib/thumb2/libc.a(lib_a-freer.o)
                0x00018d34                _malloc_trim_r
                0x00018ddc                _free_r
 .text          0x00018f74       0xa0 /usr/local/lpcxpresso_4.2.3_255/lpcxpresso/tools/bin/../lib/gcc/arm-none-eabi/4.5.1/../../../../arm-none-eabi/lib/thumb2/libc.a(lib_a-fwalk.o)
                0x00018f74                _fwalk
                0x00018fc0                _fwalk_reent
 .text          0x00019014       0x1c /usr/local/lpcxpresso_4.2.3_255/lpcxpresso/tools/bin/../lib/gcc/arm-none-eabi/4.5.1/../../../../arm-none-eabi/lib/thumb2/libc.a(lib_a-iswspace.o)
                0x00019014                iswspace
 .text          0x00019030       0xa0 /usr/local/lpcxpresso_4.2.3_255/lpcxpresso/tools/bin/../lib/gcc/arm-none-eabi/4.5.1/../../../../arm-none-eabi/lib/thumb2/libc.a(lib_a-locale.o)
                0x00019030                _setlocale_r
                0x0001908c                __locale_charset
                0x00019098                __locale_mb_cur_max
                0x000190a4                __locale_msgcharset
                0x000190ac                __locale_cjk_lang
                0x000190b0                _localeconv_r
                0x000190b8                setlocale
                0x000190c8                localeconv
 .text          0x000190d0       0x2c /usr/local/lpcxpresso_4.2.3_255/lpcxpresso/tools/bin/../lib/gcc/arm-none-eabi/4.5.1/../../../../arm-none-eabi/lib/thumb2/libc.a(lib_a-lseekr.o)
                0x000190d0                _lseek_r
 .text          0x000190fc       0x20 /usr/local/lpcxpresso_4.2.3_255/lpcxpresso/tools/bin/../lib/gcc/arm-none-eabi/4.5.1/../../../../arm-none-eabi/lib/thumb2/libc.a(lib_a-malloc.o)
                0x000190fc                malloc
                0x0001910c                free
 .text          0x0001911c      0x57c /usr/local/lpcxpresso_4.2.3_255/lpcxpresso/tools/bin/../lib/gcc/arm-none-eabi/4.5.1/../../../../arm-none-eabi/lib/thumb2/libc.a(lib_a-mallocr.o)
                0x0001911c                _malloc_r
 .text          0x00019698       0xe8 /usr/local/lpcxpresso_4.2.3_255/lpcxpresso/tools/bin/../lib/gcc/arm-none-eabi/4.5.1/../../../../arm-none-eabi/lib/thumb2/libc.a(lib_a-mbrtowc.o)
                0x00019698                _mbrtowc_r
                0x00019700                mbrtowc
 .text          0x00019780       0x5c /usr/local/lpcxpresso_4.2.3_255/lpcxpresso/tools/bin/../lib/gcc/arm-none-eabi/4.5.1/../../../../arm-none-eabi/lib/thumb2/libc.a(lib_a-mbtowc_r.o)
                0x00019780                __ascii_mbtowc
                0x000197a8                _mbtowc_r
 .text          0x000197dc       0x88 /usr/local/lpcxpresso_4.2.3_255/lpcxpresso/tools/bin/../lib/gcc/arm-none-eabi/4.5.1/../../../../arm-none-eabi/lib/thumb2/libc.a(lib_a-memchr.o)
                0x000197dc                memchr
 .text          0x00019864        0x8 /usr/local/lpcxpresso_4.2.3_255/lpcxpresso/tools/bin/../lib/gcc/arm-none-eabi/4.5.1/../../../../arm-none-eabi/lib/thumb2/libc.a(lib_a-mlock.o)
                0x00019864                __malloc_lock
                0x00019868                __malloc_unlock
 .text          0x0001986c      0x920 /usr/local/lpcxpresso_4.2.3_255/lpcxpresso/tools/bin/../lib/gcc/arm-none-eabi/4.5.1/../../../../arm-none-eabi/lib/thumb2/libc.a(lib_a-mprec.o)
                0x0001986c                _Balloc
                0x000198d4                _Bfree
                0x0001990c                __multadd
                0x00019990                __s2b
                0x00019a24                __hi0bits
                0x00019a64                __lo0bits
                0x00019ac8                __i2b
                0x00019adc                __multiply
                0x00019c04                __pow5mult
                0x00019ca8                __lshift
                0x00019d54                __mcmp
                0x00019d90                __mdiff
                0x00019e88                __ulp
                0x00019ed0                __b2d
                0x00019f7c                __d2b
                0x0001a044                __ratio
                0x0001a0b4                _mprec_log10
                0x0001a0e8                __copybits
                0x0001a130                __any_on
 .text          0x0001a18c       0x2c /usr/local/lpcxpresso_4.2.3_255/lpcxpresso/tools/bin/../lib/gcc/arm-none-eabi/4.5.1/../../../../arm-none-eabi/lib/thumb2/libc.a(lib_a-readr.o)
                0x0001a18c                _read_r
 .text          0x0001a1b8       0x90 /usr/local/lpcxpresso_4.2.3_255/lpcxpresso/tools/bin/../lib/gcc/arm-none-eabi/4.5.1/../../../../arm-none-eabi/lib/thumb2/libc.a(lib_a-s_fpclassify.o)
                0x0001a1b8                __fpclassifyd
 .text          0x0001a248       0x28 /usr/local/lpcxpresso_4.2.3_255/lpcxpresso/tools/bin/../lib/gcc/arm-none-eabi/4.5.1/../../../../arm-none-eabi/lib/thumb2/libc.a(lib_a-sbrkr.o)
                0x0001a248                _sbrk_r
 .text          0x0001a270       0x78 /usr/local/lpcxpresso_4.2.3_255/lpcxpresso/tools/bin/../lib/gcc/arm-none-eabi/4.5.1/../../../../arm-none-eabi/lib/thumb2/libc.a(lib_a-sccl.o)
                0x0001a270                __sccl
 .text          0x0001a2e8        0x8 /usr/local/lpcxpresso_4.2.3_255/lpcxpresso/tools/bin/../lib/gcc/arm-none-eabi/4.5.1/../../../../arm-none-eabi/lib/thumb2/libc.a(lib_a-sf_nan.o)
                0x0001a2e8                nanf
 .text          0x0001a2f0     0x1098 /usr/local/lpcxpresso_4.2.3_255/lpcxpresso/tools/bin/../lib/gcc/arm-none-eabi/4.5.1/../../../../arm-none-eabi/lib/thumb2/libc.a(lib_a-strtod.o)
                0x0001a320                _strtod_r
                0x0001b2b4                strtod
                0x0001b2c8                strtof
 .text          0x0001b388      0x17c /usr/local/lpcxpresso_4.2.3_255/lpcxpresso/tools/bin/../lib/gcc/arm-none-eabi/4.5.1/../../../../arm-none-eabi/lib/thumb2/libc.a(lib_a-strtol.o)
                0x0001b388                _strtol_r
                0x0001b4ec                strtol
 .text          0x0001b504      0x1d0 /usr/local/lpcxpresso_4.2.3_255/lpcxpresso/tools/bin/../lib/gcc/arm-none-eabi/4.5.1/../../../../arm-none-eabi/lib/thumb2/libc.a(lib_a-strtoll_r.o)
                0x0001b504                _strtoll_r
 .text          0x0001b6d4      0x17c /usr/local/lpcxpresso_4.2.3_255/lpcxpresso/tools/bin/../lib/gcc/arm-none-eabi/4.5.1/../../../../arm-none-eabi/lib/thumb2/libc.a(lib_a-strtoul.o)
                0x0001b6d4                _strtoul_r
                0x0001b838                strtoul
 .text          0x0001b850      0x1d0 /usr/local/lpcxpresso_4.2.3_255/lpcxpresso/tools/bin/../lib/gcc/arm-none-eabi/4.5.1/../../../../arm-none-eabi/lib/thumb2/libc.a(lib_a-strtoull_r.o)
                0x0001b850                _strtoull_r
 .text          0x0001ba20      0xbe4 /usr/local/lpcxpresso_4.2.3_255/lpcxpresso/tools/bin/../lib/gcc/arm-none-eabi/4.5.1/../../../../arm-none-eabi/lib/thumb2/libc.a(lib_a-svfiprintf.o)
                0x0001ba20                __ssprint_r
                0x0001bb28                _svfiprintf_r
 .text          0x0001c604      0xc14 /usr/local/lpcxpresso_4.2.3_255/lpcxpresso/tools/bin/../lib/gcc/arm-none-eabi/4.5.1/../../../../arm-none-eabi/lib/thumb2/libc.a(lib_a-svfiscanf.o)
                0x0001c604                _sungetc_r
                0x0001c690                __ssrefill_r
                0x0001c6cc                _sfread_r
                0x0001c744                __ssvfiscanf_r
 .text          0x0001d218      0x1ac /usr/local/lpcxpresso_4.2.3_255/lpcxpresso/tools/bin/../lib/gcc/arm-none-eabi/4.5.1/../../../../arm-none-eabi/lib/thumb2/libc.a(lib_a-ungetc.o)
                0x0001d218                __submore
                0x0001d29c                _ungetc_r
                0x0001d3b4                ungetc
 .text          0x0001d3c4       0x5c /usr/local/lpcxpresso_4.2.3_255/lpcxpresso/tools/bin/../lib/gcc/arm-none-eabi/4.5.1/../../../../arm-none-eabi/lib/thumb2/libc.a(lib_a-callocr.o)
                0x0001d3c4                _calloc_r
 .text          0x0001d420       0xc4 /usr/local/lpcxpresso_4.2.3_255/lpcxpresso/tools/bin/../lib/gcc/arm-none-eabi/4.5.1/../../../../arm-none-eabi/lib/thumb2/libc.a(lib_a-fclose.o)
                0x0001d420                _fclose_r
                0x0001d4d4                fclose
 .text          0x0001d4e4      0x688 /usr/local/lpcxpresso_4.2.3_255/lpcxpresso/tools/bin/../lib/gcc/arm-none-eabi/4.5.1/../../../../arm-none-eabi/lib/thumb2/libc.a(lib_a-gdtoa-gethex.o)
                0x0001d57c                __hexdig_init
                0x0001d5d4                __gethex
 .text          0x0001db6c      0x1cc /usr/local/lpcxpresso_4.2.3_255/lpcxpresso/tools/bin/../lib/gcc/arm-none-eabi/4.5.1/../../../../arm-none-eabi/lib/thumb2/libc.a(lib_a-gdtoa-hexnan.o)
                0x0001db6c                __hexnan
 .text          0x0001dd38       0xa0 /usr/local/lpcxpresso_4.2.3_255/lpcxpresso/tools/bin/../lib/gcc/arm-none-eabi/4.5.1/../../../../arm-none-eabi/lib/thumb2/libc.a(lib_a-memmove.o)
                0x0001dd38                memmove
 .text          0x0001ddd8      0x41c /usr/local/lpcxpresso_4.2.3_255/lpcxpresso/tools/bin/../lib/gcc/arm-none-eabi/4.5.1/../../../../arm-none-eabi/lib/thumb2/libc.a(lib_a-reallocr.o)
                0x0001ddd8                _realloc_r
 .text          0x0001e1f4       0x3c /usr/local/lpcxpresso_4.2.3_255/lpcxpresso/tools/bin/../lib/gcc/arm-none-eabi/4.5.1/../../../../arm-none-eabi/lib/thumb2/libcr_newlib_nohost.a(_cr_sbrk.o)
                0x0001e1f4                _sbrk
 .text          0x0001e230       0x10 /usr/local/lpcxpresso_4.2.3_255/lpcxpresso/tools/bin/../lib/gcc/arm-none-eabi/4.5.1/../../../../arm-none-eabi/lib/thumb2/libcr_newlib_nohost.a(close.o)
                0x0001e230                _close
 .text          0x0001e240       0x10 /usr/local/lpcxpresso_4.2.3_255/lpcxpresso/tools/bin/../lib/gcc/arm-none-eabi/4.5.1/../../../../arm-none-eabi/lib/thumb2/libcr_newlib_nohost.a(lseek.o)
                0x0001e240                _lseek
 .text          0x0001e250       0x10 /usr/local/lpcxpresso_4.2.3_255/lpcxpresso/tools/bin/../lib/gcc/arm-none-eabi/4.5.1/../../../../arm-none-eabi/lib/thumb2/libcr_newlib_nohost.a(read.o)
                0x0001e250                _read
 .text          0x0001e260       0x10 /usr/local/lpcxpresso_4.2.3_255/lpcxpresso/tools/bin/../lib/gcc/arm-none-eabi/4.5.1/../../../../arm-none-eabi/lib/thumb2/libcr_newlib_nohost.a(write.o)
                0x0001e260                _write
 .text          0x0001e270       0x2c /usr/local/lpcxpresso_4.2.3_255/lpcxpresso/tools/bin/../lib/gcc/arm-none-eabi/4.5.1/../../../../arm-none-eabi/lib/thumb2/libcr_newlib_nohost.a(_cr_check_heap.o)
                0x0001e270                __check_heap_overflow
 .text          0x0001e29c      0x370 /usr/local/lpcxpresso_4.2.3_255/lpcxpresso/tools/bin/../lib/gcc/arm-none-eabi/4.5.1/thumb2/libgcc.a(_arm_addsubdf3.o)
                0x0001e29c                __aeabi_drsub
                0x0001e2a4                __aeabi_dsub
                0x0001e2a4                __subdf3
                0x0001e2a8                __adddf3
                0x0001e2a8                __aeabi_dadd
                0x0001e520                __aeabi_ui2d
                0x0001e520                __floatunsidf
                0x0001e540                __floatsidf
                0x0001e540                __aeabi_i2d
                0x0001e564                __extendsfdf2
                0x0001e564                __aeabi_f2d
                0x0001e5a0                __aeabi_ul2d
                0x0001e5a0                __floatundidf
                0x0001e5b0                __floatdidf
                0x0001e5b0                __aeabi_l2d
 .text          0x0001e60c      0x424 /usr/local/lpcxpresso_4.2.3_255/lpcxpresso/tools/bin/../lib/gcc/arm-none-eabi/4.5.1/thumb2/libgcc.a(_arm_muldivdf3.o)
                0x0001e60c                __aeabi_dmul
                0x0001e60c                __muldf3
                0x0001e860                __aeabi_ddiv
                0x0001e860                __divdf3
 .text          0x0001ea30      0x110 /usr/local/lpcxpresso_4.2.3_255/lpcxpresso/tools/bin/../lib/gcc/arm-none-eabi/4.5.1/thumb2/libgcc.a(_arm_cmpdf2.o)
                0x0001ea30                __gtdf2
                0x0001ea30                __gedf2
                0x0001ea38                __ltdf2
                0x0001ea38                __ledf2
                0x0001ea40                __cmpdf2
                0x0001ea40                __eqdf2
                0x0001ea40                __nedf2
                0x0001eabc                __aeabi_cdrcmple
                0x0001eacc                __aeabi_cdcmple
                0x0001eacc                __aeabi_cdcmpeq
                0x0001eadc                __aeabi_dcmpeq
                0x0001eaf0                __aeabi_dcmplt
                0x0001eb04                __aeabi_dcmple
                0x0001eb18                __aeabi_dcmpge
                0x0001eb2c                __aeabi_dcmpgt
 .text          0x0001eb40       0x50 /usr/local/lpcxpresso_4.2.3_255/lpcxpresso/tools/bin/../lib/gcc/arm-none-eabi/4.5.1/thumb2/libgcc.a(_arm_fixdfsi.o)
                0x0001eb40                __fixdfsi
                0x0001eb40                __aeabi_d2iz
 .text          0x0001eb90       0x40 /usr/local/lpcxpresso_4.2.3_255/lpcxpresso/tools/bin/../lib/gcc/arm-none-eabi/4.5.1/thumb2/libgcc.a(_arm_fixunsdfsi.o)
                0x0001eb90                __fixunsdfsi
                0x0001eb90                __aeabi_d2uiz
 .text          0x0001ebd0       0xa0 /usr/local/lpcxpresso_4.2.3_255/lpcxpresso/tools/bin/../lib/gcc/arm-none-eabi/4.5.1/thumb2/libgcc.a(_arm_truncdfsf2.o)
                0x0001ebd0                __aeabi_d2f
                0x0001ebd0                __truncdfsf2
 .text          0x0001ec70       0xec /usr/local/lpcxpresso_4.2.3_255/lpcxpresso/tools/bin/../lib/gcc/arm-none-eabi/4.5.1/thumb2/libgcc.a(_arm_cmpsf2.o)
                0x0001ec70                __gtsf2
                0x0001ec70                __gesf2
                0x0001ec78                __lesf2
                0x0001ec78                __ltsf2
                0x0001ec80                __nesf2
                0x0001ec80                __eqsf2
                0x0001ec80                __cmpsf2
                0x0001ece0                __aeabi_cfrcmple
                0x0001ece8                __aeabi_cfcmple
                0x0001ece8                __aeabi_cfcmpeq
                0x0001ecf8                __aeabi_fcmpeq
                0x0001ed0c                __aeabi_fcmplt
                0x0001ed20                __aeabi_fcmple
                0x0001ed34                __aeabi_fcmpge
                0x0001ed48                __aeabi_fcmpgt
 .text          0x0001ed5c        0xc /usr/local/lpcxpresso_4.2.3_255/lpcxpresso/tools/bin/../lib/gcc/arm-none-eabi/4.5.1/../../../../arm-none-eabi/lib/thumb2/libc.a(lib_a-errno.o)
                0x0001ed5c                __errno
 *(.rodata .rodata.*)
 .rodata.str1.4
                0x0001ed68       0x75 ./cr_startup_lpc17.o
                                 0x78 (size before relaxing)
 *fill*         0x0001eddd        0x3 00
 .rodata.str1.4
                0x0001ede0       0x27 ./main.o
                                 0x28 (size before relaxing)
 *fill*         0x0001ee07        0x1 00
 .rodata        0x0001ee08      0x288 ./webserver/http-strings.o
                0x0001ee08                http_http
                0x0001ee10                http_200
                0x0001ee18                http_301
                0x0001ee20                http_302
                0x0001ee28                http_get
                0x0001ee30                http_10
                0x0001ee3c                http_11
                0x0001ee48                http_content_type
                0x0001ee58                http_texthtml
                0x0001ee64                http_location
                0x0001ee70                http_host
                0x0001ee78                http_crnl
                0x0001ee7c                http_index_html
                0x0001ee88                http_404_html
                0x0001ee94                http_referer
                0x0001eea0                http_header_200
                0x0001eef4                http_header_404
                0x0001ef50                http_content_type_plain
                0x0001ef70                http_content_type_html
                0x0001ef8c                http_content_type_css
                0x0001efa8                http_content_type_text
                0x0001efc4                http_content_type_png
                0x0001efe0                http_content_type_gif
                0x0001effc                http_content_type_jpg
                0x0001f01c                http_content_type_binary
                0x0001f048                http_html
                0x0001f050                http_shtml
                0x0001f058                http_htm
                0x0001f060                http_css
                0x0001f068                http_png
                0x0001f070                http_gif
                0x0001f078                http_jpg
                0x0001f080                http_text
                0x0001f088                http_txt
 .rodata        0x0001f090       0xc0 ./webserver/httpd-cgi.o
 .rodata.str1.4
                0x0001f150      0x183 ./webserver/httpd-cgi.o
                                0x184 (size before relaxing)
 *fill*         0x0001f2d3        0x1 00
 .rodata        0x0001f2d4     0x1578 ./webserver/httpd-fs.o
                0x0001f2d4                file_tcp_shtml
                0x0001f2e8                file_404_html
                0x0001f2fc                file_index_html
                0x0001f310                file_index_shtml
                0x0001f324                file_io_shtml
                0x0001f338                file_runtime_shtml
                0x0001f34c                file_stats_shtml
 .rodata.str1.4
                0x0002084c      0x131 ./webserver/uIP_Task.o
                                0x134 (size before relaxing)
 *fill*         0x0002097d        0x3 00
 .rodata        0x00020980        0x8 ./webserver/uip_arp.o
 .rodata        0x00020988       0xf0 ./uip_ftp/Connections.o
                0x000209b8                Cmd_dictionary
 .rodata.str1.4
                0x00020a78      0xacc ./uip_ftp/Connections.o
 .rodata.str1.4
                0x00021544      0x1cc ./uip_ftp/FTPD.o
                                0x1e0 (size before relaxing)
 .rodata        0x00021710       0x3c ./driver_source/lpc17xx_gpio.o
 .rodata.str1.4
                0x0002174c       0x1f ./driver_source/lpc17xx_i2c.o
                                 0x20 (size before relaxing)
 *fill*         0x0002176b        0x1 00
 .rodata.str1.4
                0x0002176c       0x1f ./driver_source/lpc17xx_rtc.o
                                 0x20 (size before relaxing)
 *fill*         0x0002178b        0x1 00
 .rodata.str1.4
                0x0002178c       0x1f ./driver_source/lpc17xx_spi.o
                                 0x20 (size before relaxing)
 *fill*         0x000217ab        0x1 00
 .rodata        0x000217ac        0x8 ./driver_source/lpc17xx_uart.o
 .rodata.str1.4
                0x000217b4       0x20 ./driver_source/lpc17xx_uart.o
 .rodata        0x000217d4        0x8 ./UsbHost/MassStorage/usbhost_ms.o
 .rodata.str1.4
                0x000217dc       0x5f ./UsbHost/MassStorage/usbhost_ms.o
                                 0x60 (size before relaxing)
 *fill*         0x0002183b        0x1 00
 .rodata.str1.4
                0x0002183c       0x9f ./UsbHost/Main/usbhost_main.o
                                 0xa4 (size before relaxing)
 *fill*         0x000218db        0x1 00
 .rodata        0x000218dc       0x10 ./UsbHost/Host/usbhost_lpc17xx.o
 .rodata.str1.4
                0x000218ec       0x9f ./UsbHost/Host/usbhost_lpc17xx.o
                                 0xc4 (size before relaxing)
 *fill*         0x0002198b        0x1 00
 .rodata        0x0002198c     0xeab0 ./FatFs/option/cc932.o
 .rodata.str1.4
                0x0003043c       0x3f ./FatFs/diskio.o
                                 0x40 (size before relaxing)
 *fill*         0x0003047b        0x1 00
 .rodata        0x0003047c       0xb0 ./FatFs/ff.o
 .rodata.str1.4
                0x0003052c       0x48 ./FatFs/ff.o
 .rodata        0x00030574       0x14 /home/nlv14991/workspaceLPC/STE-LPC1768-/FreeRTOS_Library/Debug/libFreeRTOS_Library.a(tasks.o)
 .rodata.str1.4
                0x00030588        0x5 /home/nlv14991/workspaceLPC/STE-LPC1768-/FreeRTOS_Library/Debug/libFreeRTOS_Library.a(tasks.o)
                                  0x8 (size before relaxing)
 *fill*         0x0003058d        0x3 00
 .rodata        0x00030590       0x20 /usr/local/lpcxpresso_4.2.3_255/lpcxpresso/tools/bin/../lib/gcc/arm-none-eabi/4.5.1/../../../../arm-none-eabi/lib/thumb2/libc.a(lib_a-svfprintf.o)
 .rodata.str1.4
                0x000305b0       0x42 /usr/local/lpcxpresso_4.2.3_255/lpcxpresso/tools/bin/../lib/gcc/arm-none-eabi/4.5.1/../../../../arm-none-eabi/lib/thumb2/libc.a(lib_a-svfprintf.o)
                                 0x44 (size before relaxing)
 *fill*         0x000305f2        0x2 00
 .rodata        0x000305f4       0x24 /usr/local/lpcxpresso_4.2.3_255/lpcxpresso/tools/bin/../lib/gcc/arm-none-eabi/4.5.1/../../../../arm-none-eabi/lib/thumb2/libc.a(lib_a-svfscanf.o)
 .rodata.str1.4
                0x00030618        0x5 /usr/local/lpcxpresso_4.2.3_255/lpcxpresso/tools/bin/../lib/gcc/arm-none-eabi/4.5.1/../../../../arm-none-eabi/lib/thumb2/libc.a(lib_a-svfscanf.o)
                                  0x8 (size before relaxing)
 *fill*         0x0003061d        0x3 00
 .rodata        0x00030620      0x104 /usr/local/lpcxpresso_4.2.3_255/lpcxpresso/tools/bin/../lib/gcc/arm-none-eabi/4.5.1/../../../../arm-none-eabi/lib/thumb2/libc.a(lib_a-ctype_.o)
                0x00030620                _ctype_
 .rodata.str1.4
                0x00030724       0x10 /usr/local/lpcxpresso_4.2.3_255/lpcxpresso/tools/bin/../lib/gcc/arm-none-eabi/4.5.1/../../../../arm-none-eabi/lib/thumb2/libc.a(lib_a-dtoa.o)
                                 0x14 (size before relaxing)
 .rodata        0x00030734       0x60 /usr/local/lpcxpresso_4.2.3_255/lpcxpresso/tools/bin/../lib/gcc/arm-none-eabi/4.5.1/../../../../arm-none-eabi/lib/thumb2/libc.a(lib_a-findfp.o)
                0x00030734                __sf_fake_stdin
                0x00030754                __sf_fake_stdout
                0x00030774                __sf_fake_stderr
 .rodata        0x00030794        0x4 /usr/local/lpcxpresso_4.2.3_255/lpcxpresso/tools/bin/../lib/gcc/arm-none-eabi/4.5.1/../../../../arm-none-eabi/lib/thumb2/libc.a(lib_a-impure.o)
                0x00030794                _global_impure_ptr
 .rodata.str1.4
                0x00030798        0x2 /usr/local/lpcxpresso_4.2.3_255/lpcxpresso/tools/bin/../lib/gcc/arm-none-eabi/4.5.1/../../../../arm-none-eabi/lib/thumb2/libc.a(lib_a-impure.o)
                                  0x4 (size before relaxing)
 *fill*         0x0003079a        0x2 00
 .rodata.str1.4
                0x0003079c        0xa /usr/local/lpcxpresso_4.2.3_255/lpcxpresso/tools/bin/../lib/gcc/arm-none-eabi/4.5.1/../../../../arm-none-eabi/lib/thumb2/libc.a(lib_a-locale.o)
                                 0x14 (size before relaxing)
 .rodata.str1.4
                0x00000000        0x4 /usr/local/lpcxpresso_4.2.3_255/lpcxpresso/tools/bin/../lib/gcc/arm-none-eabi/4.5.1/../../../../arm-none-eabi/lib/thumb2/libc.a(lib_a-mbrtowc.o)
 *fill*         0x000307a6        0x2 00
 .rodata        0x000307a8      0x128 /usr/local/lpcxpresso_4.2.3_255/lpcxpresso/tools/bin/../lib/gcc/arm-none-eabi/4.5.1/../../../../arm-none-eabi/lib/thumb2/libc.a(lib_a-mprec.o)
                0x000307b8                __mprec_tens
                0x00030880                __mprec_bigtens
                0x000308a8                __mprec_tinytens
 .rodata        0x000308d0       0x28 /usr/local/lpcxpresso_4.2.3_255/lpcxpresso/tools/bin/../lib/gcc/arm-none-eabi/4.5.1/../../../../arm-none-eabi/lib/thumb2/libc.a(lib_a-strtod.o)
 .rodata.str1.4
                0x000308f8        0xf /usr/local/lpcxpresso_4.2.3_255/lpcxpresso/tools/bin/../lib/gcc/arm-none-eabi/4.5.1/../../../../arm-none-eabi/lib/thumb2/libc.a(lib_a-strtod.o)
                                 0x10 (size before relaxing)
 *fill*         0x00030907        0x1 00
 .rodata        0x00030908       0x20 /usr/local/lpcxpresso_4.2.3_255/lpcxpresso/tools/bin/../lib/gcc/arm-none-eabi/4.5.1/../../../../arm-none-eabi/lib/thumb2/libc.a(lib_a-svfiprintf.o)
 .rodata.str1.4
                0x00000000       0x30 /usr/local/lpcxpresso_4.2.3_255/lpcxpresso/tools/bin/../lib/gcc/arm-none-eabi/4.5.1/../../../../arm-none-eabi/lib/thumb2/libc.a(lib_a-svfiprintf.o)
 .rodata        0x00030928       0x24 /usr/local/lpcxpresso_4.2.3_255/lpcxpresso/tools/bin/../lib/gcc/arm-none-eabi/4.5.1/../../../../arm-none-eabi/lib/thumb2/libc.a(lib_a-svfiscanf.o)
 .rodata.str1.4
                0x0003094c       0x1c /usr/local/lpcxpresso_4.2.3_255/lpcxpresso/tools/bin/../lib/gcc/arm-none-eabi/4.5.1/../../../../arm-none-eabi/lib/thumb2/libc.a(lib_a-gdtoa-gethex.o)
                0x00030968                . = ALIGN (0x4)

.glue_7         0x00030968        0x0
 .glue_7        0x00000000        0x0 linker stubs

.glue_7t        0x00030968        0x0
 .glue_7t       0x00000000        0x0 linker stubs

.vfp11_veneer   0x00030968        0x0
 .vfp11_veneer  0x00000000        0x0 linker stubs

.v4_bx          0x00030968        0x0
 .v4_bx         0x00000000        0x0 linker stubs

.ARM.extab
 *(.ARM.extab* .gnu.linkonce.armextab.*)
                0x00030968                __exidx_start = .

.ARM.exidx      0x00030968        0x8
 *(.ARM.exidx* .gnu.linkonce.armexidx.*)
 .ARM.exidx     0x00030968        0x8 /usr/local/lpcxpresso_4.2.3_255/lpcxpresso/tools/bin/../lib/gcc/arm-none-eabi/4.5.1/thumb2/libgcc.a(_divdi3.o)
 .ARM.exidx     0x00030970        0x0 /usr/local/lpcxpresso_4.2.3_255/lpcxpresso/tools/bin/../lib/gcc/arm-none-eabi/4.5.1/thumb2/libgcc.a(_udivdi3.o)
                                  0x8 (size before relaxing)
                0x00030970                __exidx_end = .
                0x00030970                _etext = .

.data_RAM2      0x2007c000        0x0 load address 0x00030970
 FILL mask 0xff
 *(.data.$RAM2*)
 *(.data.$RamAHB32*)
                0x2007c000                . = ALIGN (0x4)

.uninit_RESERVED
 *(.bss.$RESERVED*)

.data           0x10000000      0x5dc load address 0x00030970
 FILL mask 0xff
                0x10000000                _data = .
 *(vtable)
 *(.data*)
 .data          0x10000000       0x20 ./webserver/httpd-cgi.o
 .data          0x10000020        0x1 ./driver_source/lpc17xx_sd.o
 *fill*         0x10000021        0x3 00
 .data          0x10000024        0x4 /home/nlv14991/workspaceLPC/STE-LPC1768-/CMSISv1p30_LPC17xx/Debug/libCMSISv1p30_LPC17xx.a(system_LPC17xx.o)
                0x10000024                SystemCoreClock
 .data          0x10000028        0x4 /home/nlv14991/workspaceLPC/STE-LPC1768-/FreeRTOS_Library/Debug/libFreeRTOS_Library.a(port.o)
 .data          0x1000002c        0x4 /usr/local/lpcxpresso_4.2.3_255/lpcxpresso/tools/bin/../lib/gcc/arm-none-eabi/4.5.1/../../../../arm-none-eabi/lib/thumb2/libc.a(lib_a-ctype_.o)
                0x1000002c                __ctype_ptr__
 .data          0x10000030       0xf4 /usr/local/lpcxpresso_4.2.3_255/lpcxpresso/tools/bin/../lib/gcc/arm-none-eabi/4.5.1/../../../../arm-none-eabi/lib/thumb2/libc.a(lib_a-impure.o)
                0x10000030                _impure_ptr
 .data          0x10000124       0x7c /usr/local/lpcxpresso_4.2.3_255/lpcxpresso/tools/bin/../lib/gcc/arm-none-eabi/4.5.1/../../../../arm-none-eabi/lib/thumb2/libc.a(lib_a-locale.o)
                0x10000144                __mb_cur_max
 .data          0x100001a0      0x410 /usr/local/lpcxpresso_4.2.3_255/lpcxpresso/tools/bin/../lib/gcc/arm-none-eabi/4.5.1/../../../../arm-none-eabi/lib/thumb2/libc.a(lib_a-mallocr.o)
                0x100001a0                __malloc_av_
                0x100005a8                __malloc_sbrk_base
                0x100005ac                __malloc_trim_threshold
 .data          0x100005b0        0x4 /usr/local/lpcxpresso_4.2.3_255/lpcxpresso/tools/bin/../lib/gcc/arm-none-eabi/4.5.1/../../../../arm-none-eabi/lib/thumb2/libc.a(lib_a-mbtowc_r.o)
                0x100005b0                __mbtowc
 .data          0x100005b4       0x28 /usr/local/lpcxpresso_4.2.3_255/lpcxpresso/tools/bin/../lib/gcc/arm-none-eabi/4.5.1/../../../../arm-none-eabi/lib/thumb2/libc.a(lib_a-strtod.o)
                0x100005dc                . = ALIGN (0x4)
                0x100005dc                _edata = .

.bss_RAM2       0x2007c000        0x0
 *(.bss.$RAM2*)
 *(.bss.$RamAHB32*)
                0x2007c000                . = ALIGN (0x4)

.bss            0x100005e0     0x5948
                0x100005e0                _bss = .
 *(.bss*)
 .bss           0x100005e0        0x8 ./webserver/emac.o
 .bss           0x100005e8       0x84 ./webserver/httpd-cgi.o
                0x100005e8                lRefreshCount
 .bss           0x1000066c       0x10 ./webserver/httpd-fs.o
 .bss           0x1000067c        0x4 ./webserver/uIP_Task.o
                0x1000067c                xEMACSemaphore
 .bss           0x10000680       0x18 ./webserver/uip.o
                0x10000690                uip_ethaddr
 .bss           0x10000698       0x68 ./webserver/uip_arp.o
 .bss           0x10000700      0x620 ./uip_ftp/Connections.o
 .bss           0x10000d20       0x20 ./driver_source/lpc17xx_gpdma.o
 .bss           0x10000d40       0x24 ./driver_source/lpc17xx_i2c.o
 .bss           0x10000d64        0x8 ./driver_source/lpc17xx_i2s.o
 .bss           0x10000d6c       0x40 ./driver_source/lpc17xx_sd.o
 .bss           0x10000dac        0xc ./driver_source/lpc17xx_spi.o
 .bss           0x10000db8       0x18 ./driver_source/lpc17xx_ssp.o
 .bss           0x10000dd0       0x44 ./driver_source/lpc17xx_uart.o
                0x10000dd0                pfnModemCbs
                0x10000dd4                uartCbsDat
 .bss           0x10000e14       0x2c ./UsbHost/Uart/usbhost_uart.o
 .bss           0x10000e40      0x100 ./UsbHost/Main/usbhost_main.o
 .bss           0x10000f40        0x3 ./UsbHost/Host/usb_ms_diskio.o
 *fill*         0x10000f43        0x1 00
 .bss           0x10000f44        0xc ./UsbHost/Host/usbhost_lpc17xx.o
                0x10000f44                HOST_RhscIntr
                0x10000f48                HOST_TDControlStatus
                0x10000f4c                HOST_WdhIntr
 .bss           0x10000f50      0x220 ./FatFs/ff.o
 .bss           0x10001170      0x100 /home/nlv14991/workspaceLPC/STE-LPC1768-/FreeRTOS_Library/Debug/libFreeRTOS_Library.a(tasks.o)
                0x10001174                pxCurrentTCB
 .bss           0x10001270     0x2820 /home/nlv14991/workspaceLPC/STE-LPC1768-/FreeRTOS_Library/Debug/libFreeRTOS_Library.a(heap_2.o)
 .bss           0x10003a90       0x34 /usr/local/lpcxpresso_4.2.3_255/lpcxpresso/tools/bin/../lib/gcc/arm-none-eabi/4.5.1/../../../../arm-none-eabi/lib/thumb2/libc.a(lib_a-mallocr.o)
                0x10003a90                __malloc_top_pad
                0x10003a94                __malloc_current_mallinfo
                0x10003abc                __malloc_max_sbrked_mem
                0x10003ac0                __malloc_max_total_mem
 *(COMMON)
 COMMON         0x10003ac4        0x4 ./LedBlinky.o
                0x10003ac4                SysTickCnt
 COMMON         0x10003ac8       0x51 ./lcd_i2c.o
                0x10003ac8                transferMCfg
                0x10003af4                master_test
                0x10003af8                Master_Buf
 *fill*         0x10003b19        0x3 00
 COMMON         0x10003b1c        0x4 ./main.o
                0x10003b1c                xCountingSemaphore
 COMMON         0x10003b20        0x4 ./webserver/emac.o
                0x10003b20                uip_buf
 COMMON         0x10003b24        0x8 ./webserver/httpd-cgi.o
                0x10003b24                ulString
                0x10003b28                pcStatus
 COMMON         0x10003b2c      0x8c2 ./webserver/uip.o
                0x10003b2c                uip_len
                0x10003b30                uip_sappdata
                0x10003b34                uip_acc32
                0x10003b38                uip_flags
                0x10003b3c                uip_appdata
                0x10003b40                uip_conn
                0x10003b44                uip_conns
                0x10004364                uip_listenports
                0x100043b4                uip_draddr
                0x100043b8                uip_stat
                0x100043e4                uip_netmask
                0x100043e8                uip_hostaddr
                0x100043ec                uip_slen
 *fill*         0x100043ee        0x2 00
 COMMON         0x100043f0      0xb44 ./uip_ftp/FTPD.o
                0x100043f0                driveAttached
                0x100043f4                ftpd_state
 COMMON         0x10004f34      0x1b8 ./uip_ftp/ftp_main.o
                0x10004f34                tcp_appdata
 COMMON         0x100050ec      0x218 ./UsbHost/Uart/usbhost_uart.o
                0x100050ec                RTS_State_usb
                0x100050f0                TxIntStat_usb
                0x100050f4                rb_usb
 COMMON         0x10005304        0x4 ./UsbHost/MassStorage/usbhost_ms.o
                0x10005304                MS_BlkSize
 COMMON         0x10005308      0xaec ./UsbHost/Main/usbhost_main.o
                0x10005308                File1
                0x10005530                USBFs
                0x10005bcc                File2
 COMMON         0x10005df4       0x2c ./UsbHost/Host/usbhost_lpc17xx.o
                0x10005df4                TDBufNonVol
                0x10005df8                FATBuffer
                0x10005dfc                Hcca
                0x10005e00                TDTail
                0x10005e04                EDBulkOut
                0x10005e08                UserBuffer
                0x10005e0c                gUSBConnected
                0x10005e10                TDBuffer
                0x10005e14                EDBulkIn
                0x10005e18                EDCtrl
                0x10005e1c                TDHead
 COMMON         0x10005e20        0x4 /usr/local/lpcxpresso_4.2.3_255/lpcxpresso/tools/bin/../lib/gcc/arm-none-eabi/4.5.1/../../../../arm-none-eabi/lib/thumb2/libc.a(lib_a-reent.o)
                0x10005e20                errno
 COMMON         0x10005e24      0x100 /usr/local/lpcxpresso_4.2.3_255/lpcxpresso/tools/bin/../lib/gcc/arm-none-eabi/4.5.1/../../../../arm-none-eabi/lib/thumb2/libc.a(lib_a-gdtoa-gethex.o)
                0x10005e24                __hexdig
 COMMON         0x10005f24        0x4 /usr/local/lpcxpresso_4.2.3_255/lpcxpresso/tools/bin/../lib/gcc/arm-none-eabi/4.5.1/../../../../arm-none-eabi/lib/thumb2/libcr_newlib_nohost.a(_cr_sbrk.o)
                0x10005f24                __end_of_heap
                0x10005f28                . = ALIGN (0x4)
                0x10005f28                _ebss = .
                0x10005f28                PROVIDE (end, .)
                0x10005f28                PROVIDE (_pvHeapStart, .)
                0x10008000                PROVIDE (_vStackTop, (__top_RamLoc32 - 0x0))
OUTPUT(example_driver.axf elf32-littlearm)

.debug_abbrev   0x00000000     0x86e0
 .debug_abbrev  0x00000000      0x276 ./LedBlinky.o
 .debug_abbrev  0x00000276      0x211 ./cr_startup_lpc17.o
 .debug_abbrev  0x00000487      0x2b6 ./lcd_i2c.o
 .debug_abbrev  0x0000073d      0x1a5 ./main.o
 .debug_abbrev  0x000008e2      0x3a2 ./uart_fullmodem_test.o
 .debug_abbrev  0x00000c84      0x2df ./webserver/emac.o
 .debug_abbrev  0x00000f63       0x4b ./webserver/http-strings.o
 .debug_abbrev  0x00000fae      0x26f ./webserver/httpd-cgi.o
 .debug_abbrev  0x0000121d      0x1a2 ./webserver/httpd-fs.o
 .debug_abbrev  0x000013bf      0x292 ./webserver/httpd.o
 .debug_abbrev  0x00001651      0x2c1 ./webserver/psock.o
 .debug_abbrev  0x00001912       0xee ./webserver/timer.o
 .debug_abbrev  0x00001a00      0x351 ./webserver/uIP_Task.o
 .debug_abbrev  0x00001d51      0x384 ./webserver/uip.o
 .debug_abbrev  0x000020d5      0x196 ./webserver/uip_arp.o
 .debug_abbrev  0x0000226b      0x363 ./uip_ftp/Connections.o
 .debug_abbrev  0x000025ce      0x21b ./uip_ftp/FTPD.o
 .debug_abbrev  0x000027e9       0x3b ./uip_ftp/FTP_Strings.o
 .debug_abbrev  0x00002824      0x2fa ./uip_ftp/ftp_main.o
 .debug_abbrev  0x00002b1e      0x165 ./driver_source/lpc17xx_adc.o
 .debug_abbrev  0x00002c83      0x228 ./driver_source/lpc17xx_can.o
 .debug_abbrev  0x00002eab      0x1de ./driver_source/lpc17xx_clkpwr.o
 .debug_abbrev  0x00003089      0x14e ./driver_source/lpc17xx_dac.o
 .debug_abbrev  0x000031d7      0x377 ./driver_source/lpc17xx_emac.o
 .debug_abbrev  0x0000354e      0x1f7 ./driver_source/lpc17xx_gpdma.o
 .debug_abbrev  0x00003745      0x1f9 ./driver_source/lpc17xx_gpio.o
 .debug_abbrev  0x0000393e      0x375 ./driver_source/lpc17xx_i2c.o
 .debug_abbrev  0x00003cb3      0x263 ./driver_source/lpc17xx_i2s.o
 .debug_abbrev  0x00003f16       0x6a ./driver_source/lpc17xx_libcfg_default.o
 .debug_abbrev  0x00003f80      0x189 ./driver_source/lpc17xx_mcpwm.o
 .debug_abbrev  0x00004109       0xf9 ./driver_source/lpc17xx_nvic.o
 .debug_abbrev  0x00004202      0x1af ./driver_source/lpc17xx_pinsel.o
 .debug_abbrev  0x000043b1      0x1ad ./driver_source/lpc17xx_pwm.o
 .debug_abbrev  0x0000455e      0x1f6 ./driver_source/lpc17xx_qei.o
 .debug_abbrev  0x00004754      0x120 ./driver_source/lpc17xx_rit.o
 .debug_abbrev  0x00004874      0x191 ./driver_source/lpc17xx_rtc.o
 .debug_abbrev  0x00004a05      0x383 ./driver_source/lpc17xx_sd.o
 .debug_abbrev  0x00004d88      0x2e7 ./driver_source/lpc17xx_spi.o
 .debug_abbrev  0x0000506f      0x2e4 ./driver_source/lpc17xx_ssp.o
 .debug_abbrev  0x00005353      0x26e ./driver_source/lpc17xx_timer.o
 .debug_abbrev  0x000055c1      0x40a ./driver_source/lpc17xx_uart.o
 .debug_abbrev  0x000059cb      0x1e0 ./driver_source/lpc17xx_wdt.o
 .debug_abbrev  0x00005bab      0x34d ./UsbHost/Uart/usbhost_uart.o
 .debug_abbrev  0x00005ef8      0x210 ./UsbHost/MassStorage/usbhost_ms.o
 .debug_abbrev  0x00006108      0x186 ./UsbHost/Main/usbhost_main.o
 .debug_abbrev  0x0000628e      0x238 ./UsbHost/Host/usb_ms_diskio.o
 .debug_abbrev  0x000064c6      0x418 ./UsbHost/Host/usbhost_lpc17xx.o
 .debug_abbrev  0x000068de      0x2f8 ./LPCUSB/USB_CDC.o
 .debug_abbrev  0x00006bd6      0x1d0 ./LPCUSB/usbcontrol.o
 .debug_abbrev  0x00006da6      0x367 ./LPCUSB/usbhw_lpc.o
 .debug_abbrev  0x0000710d       0xc5 ./LPCUSB/usbinit.o
 .debug_abbrev  0x000071d2      0x22e ./LPCUSB/usbstdreq.o
 .debug_abbrev  0x00007400       0xd4 ./FatFs/option/cc932.o
 .debug_abbrev  0x000074d4       0x2c ./FatFs/option/syncobj.o
 .debug_abbrev  0x00007500       0x2c ./FatFs/option/syscall.o
 .debug_abbrev  0x0000752c      0x12a ./FatFs/diskio.o
 .debug_abbrev  0x00007656      0x2eb ./FatFs/ff.o
 .debug_abbrev  0x00007941       0xe3 /home/nlv14991/workspaceLPC/STE-LPC1768-/CMSISv1p30_LPC17xx/Debug/libCMSISv1p30_LPC17xx.a(system_LPC17xx.o)
 .debug_abbrev  0x00007a24      0x1e4 /home/nlv14991/workspaceLPC/STE-LPC1768-/FreeRTOS_Library/Debug/libFreeRTOS_Library.a(queue.o)
 .debug_abbrev  0x00007c08      0x2f9 /home/nlv14991/workspaceLPC/STE-LPC1768-/FreeRTOS_Library/Debug/libFreeRTOS_Library.a(tasks.o)
 .debug_abbrev  0x00007f01      0x1a5 /home/nlv14991/workspaceLPC/STE-LPC1768-/FreeRTOS_Library/Debug/libFreeRTOS_Library.a(heap_2.o)
 .debug_abbrev  0x000080a6      0x128 /home/nlv14991/workspaceLPC/STE-LPC1768-/FreeRTOS_Library/Debug/libFreeRTOS_Library.a(port.o)
 .debug_abbrev  0x000081ce       0xe9 /home/nlv14991/workspaceLPC/STE-LPC1768-/FreeRTOS_Library/Debug/libFreeRTOS_Library.a(list.o)
 .debug_abbrev  0x000082b7       0xa6 /usr/local/lpcxpresso_4.2.3_255/lpcxpresso/tools/bin/../lib/gcc/arm-none-eabi/4.5.1/../../../../arm-none-eabi/lib/thumb2/libcr_newlib_nohost.a(_cr_sbrk.o)
 .debug_abbrev  0x0000835d       0x63 /usr/local/lpcxpresso_4.2.3_255/lpcxpresso/tools/bin/../lib/gcc/arm-none-eabi/4.5.1/../../../../arm-none-eabi/lib/thumb2/libcr_newlib_nohost.a(close.o)
 .debug_abbrev  0x000083c0       0xb8 /usr/local/lpcxpresso_4.2.3_255/lpcxpresso/tools/bin/../lib/gcc/arm-none-eabi/4.5.1/../../../../arm-none-eabi/lib/thumb2/libcr_newlib_nohost.a(fstat.o)
 .debug_abbrev  0x00008478       0x63 /usr/local/lpcxpresso_4.2.3_255/lpcxpresso/tools/bin/../lib/gcc/arm-none-eabi/4.5.1/../../../../arm-none-eabi/lib/thumb2/libcr_newlib_nohost.a(isatty.o)
 .debug_abbrev  0x000084db       0x81 /usr/local/lpcxpresso_4.2.3_255/lpcxpresso/tools/bin/../lib/gcc/arm-none-eabi/4.5.1/../../../../arm-none-eabi/lib/thumb2/libcr_newlib_nohost.a(lseek.o)
 .debug_abbrev  0x0000855c       0x8a /usr/local/lpcxpresso_4.2.3_255/lpcxpresso/tools/bin/../lib/gcc/arm-none-eabi/4.5.1/../../../../arm-none-eabi/lib/thumb2/libcr_newlib_nohost.a(read.o)
 .debug_abbrev  0x000085e6       0x8a /usr/local/lpcxpresso_4.2.3_255/lpcxpresso/tools/bin/../lib/gcc/arm-none-eabi/4.5.1/../../../../arm-none-eabi/lib/thumb2/libcr_newlib_nohost.a(write.o)
 .debug_abbrev  0x00008670       0x70 /usr/local/lpcxpresso_4.2.3_255/lpcxpresso/tools/bin/../lib/gcc/arm-none-eabi/4.5.1/../../../../arm-none-eabi/lib/thumb2/libcr_newlib_nohost.a(_cr_check_heap.o)

.debug_info     0x00000000    0x2926a
 .debug_info    0x00000000      0x741 ./LedBlinky.o
 .debug_info    0x00000741      0x924 ./cr_startup_lpc17.o
 .debug_info    0x00001065      0x62e ./lcd_i2c.o
 .debug_info    0x00001693      0x4c3 ./main.o
 .debug_info    0x00001b56     0x1190 ./uart_fullmodem_test.o
 .debug_info    0x00002ce6      0xf3d ./webserver/emac.o
 .debug_info    0x00003c23      0x446 ./webserver/http-strings.o
 .debug_info    0x00004069      0xd74 ./webserver/httpd-cgi.o
 .debug_info    0x00004ddd      0x586 ./webserver/httpd-fs.o
 .debug_info    0x00005363      0xb5d ./webserver/httpd.o
 .debug_info    0x00005ec0      0xa44 ./webserver/psock.o
 .debug_info    0x00006904      0x17b ./webserver/timer.o
 .debug_info    0x00006a7f     0x1419 ./webserver/uIP_Task.o
 .debug_info    0x00007e98     0x1479 ./webserver/uip.o
 .debug_info    0x00009311      0x506 ./webserver/uip_arp.o
 .debug_info    0x00009817     0x1965 ./uip_ftp/Connections.o
 .debug_info    0x0000b17c      0xb48 ./uip_ftp/FTPD.o
 .debug_info    0x0000bcc4      0x169 ./uip_ftp/FTP_Strings.o
 .debug_info    0x0000be2d     0x1935 ./uip_ftp/ftp_main.o
 .debug_info    0x0000d762      0x637 ./driver_source/lpc17xx_adc.o
 .debug_info    0x0000dd99     0x12cd ./driver_source/lpc17xx_can.o
 .debug_info    0x0000f066      0x6d0 ./driver_source/lpc17xx_clkpwr.o
 .debug_info    0x0000f736      0x2cd ./driver_source/lpc17xx_dac.o
 .debug_info    0x0000fa03     0x11ab ./driver_source/lpc17xx_emac.o
 .debug_info    0x00010bae      0xcb4 ./driver_source/lpc17xx_gpdma.o
 .debug_info    0x00011862      0xcf1 ./driver_source/lpc17xx_gpio.o
 .debug_info    0x00012553     0x121c ./driver_source/lpc17xx_i2c.o
 .debug_info    0x0001376f      0xa4d ./driver_source/lpc17xx_i2s.o
 .debug_info    0x000141bc       0xca ./driver_source/lpc17xx_libcfg_default.o
 .debug_info    0x00014286      0x7fc ./driver_source/lpc17xx_mcpwm.o
 .debug_info    0x00014a82      0x3fb ./driver_source/lpc17xx_nvic.o
 .debug_info    0x00014e7d      0x608 ./driver_source/lpc17xx_pinsel.o
 .debug_info    0x00015485      0x83a ./driver_source/lpc17xx_pwm.o
 .debug_info    0x00015cbf      0x85b ./driver_source/lpc17xx_qei.o
 .debug_info    0x0001651a      0x325 ./driver_source/lpc17xx_rit.o
 .debug_info    0x0001683f      0xa4e ./driver_source/lpc17xx_rtc.o
 .debug_info    0x0001728d      0xdac ./driver_source/lpc17xx_sd.o
 .debug_info    0x00018039      0x968 ./driver_source/lpc17xx_spi.o
 .debug_info    0x000189a1      0xb79 ./driver_source/lpc17xx_ssp.o
 .debug_info    0x0001951a      0x932 ./driver_source/lpc17xx_timer.o
 .debug_info    0x00019e4c     0x1889 ./driver_source/lpc17xx_uart.o
 .debug_info    0x0001b6d5      0x45e ./driver_source/lpc17xx_wdt.o
 .debug_info    0x0001bb33     0x1112 ./UsbHost/Uart/usbhost_uart.o
 .debug_info    0x0001cc45      0x5ca ./UsbHost/MassStorage/usbhost_ms.o
 .debug_info    0x0001d20f      0x659 ./UsbHost/Main/usbhost_main.o
 .debug_info    0x0001d868      0xa1b ./UsbHost/Host/usb_ms_diskio.o
 .debug_info    0x0001e283     0x2055 ./UsbHost/Host/usbhost_lpc17xx.o
 .debug_info    0x000202d8      0xd60 ./LPCUSB/USB_CDC.o
 .debug_info    0x00021038      0x430 ./LPCUSB/usbcontrol.o
 .debug_info    0x00021468     0x14cc ./LPCUSB/usbhw_lpc.o
 .debug_info    0x00022934      0x131 ./LPCUSB/usbinit.o
 .debug_info    0x00022a65      0x57d ./LPCUSB/usbstdreq.o
 .debug_info    0x00022fe2      0x1d4 ./FatFs/option/cc932.o
 .debug_info    0x000231b6       0x62 ./FatFs/option/syncobj.o
 .debug_info    0x00023218       0x77 ./FatFs/option/syscall.o
 .debug_info    0x0002328f      0x342 ./FatFs/diskio.o
 .debug_info    0x000235d1     0x31e6 ./FatFs/ff.o
 .debug_info    0x000267b7      0x356 /home/nlv14991/workspaceLPC/STE-LPC1768-/CMSISv1p30_LPC17xx/Debug/libCMSISv1p30_LPC17xx.a(system_LPC17xx.o)
 .debug_info    0x00026b0d      0x84f /home/nlv14991/workspaceLPC/STE-LPC1768-/FreeRTOS_Library/Debug/libFreeRTOS_Library.a(queue.o)
 .debug_info    0x0002735c      0xf31 /home/nlv14991/workspaceLPC/STE-LPC1768-/FreeRTOS_Library/Debug/libFreeRTOS_Library.a(tasks.o)
 .debug_info    0x0002828d      0x2ea /home/nlv14991/workspaceLPC/STE-LPC1768-/FreeRTOS_Library/Debug/libFreeRTOS_Library.a(heap_2.o)
 .debug_info    0x00028577      0x21b /home/nlv14991/workspaceLPC/STE-LPC1768-/FreeRTOS_Library/Debug/libFreeRTOS_Library.a(port.o)
 .debug_info    0x00028792      0x2ce /home/nlv14991/workspaceLPC/STE-LPC1768-/FreeRTOS_Library/Debug/libFreeRTOS_Library.a(list.o)
 .debug_info    0x00028a60      0x102 /usr/local/lpcxpresso_4.2.3_255/lpcxpresso/tools/bin/../lib/gcc/arm-none-eabi/4.5.1/../../../../arm-none-eabi/lib/thumb2/libcr_newlib_nohost.a(_cr_sbrk.o)
 .debug_info    0x00028b62       0xb9 /usr/local/lpcxpresso_4.2.3_255/lpcxpresso/tools/bin/../lib/gcc/arm-none-eabi/4.5.1/../../../../arm-none-eabi/lib/thumb2/libcr_newlib_nohost.a(close.o)
 .debug_info    0x00028c1b      0x25a /usr/local/lpcxpresso_4.2.3_255/lpcxpresso/tools/bin/../lib/gcc/arm-none-eabi/4.5.1/../../../../arm-none-eabi/lib/thumb2/libcr_newlib_nohost.a(fstat.o)
 .debug_info    0x00028e75       0xb9 /usr/local/lpcxpresso_4.2.3_255/lpcxpresso/tools/bin/../lib/gcc/arm-none-eabi/4.5.1/../../../../arm-none-eabi/lib/thumb2/libcr_newlib_nohost.a(isatty.o)
 .debug_info    0x00028f2e       0xd5 /usr/local/lpcxpresso_4.2.3_255/lpcxpresso/tools/bin/../lib/gcc/arm-none-eabi/4.5.1/../../../../arm-none-eabi/lib/thumb2/libcr_newlib_nohost.a(lseek.o)
 .debug_info    0x00029003       0xdb /usr/local/lpcxpresso_4.2.3_255/lpcxpresso/tools/bin/../lib/gcc/arm-none-eabi/4.5.1/../../../../arm-none-eabi/lib/thumb2/libcr_newlib_nohost.a(read.o)
 .debug_info    0x000290de       0xdb /usr/local/lpcxpresso_4.2.3_255/lpcxpresso/tools/bin/../lib/gcc/arm-none-eabi/4.5.1/../../../../arm-none-eabi/lib/thumb2/libcr_newlib_nohost.a(write.o)
 .debug_info    0x000291b9       0xb1 /usr/local/lpcxpresso_4.2.3_255/lpcxpresso/tools/bin/../lib/gcc/arm-none-eabi/4.5.1/../../../../arm-none-eabi/lib/thumb2/libcr_newlib_nohost.a(_cr_check_heap.o)

.debug_line     0x00000000    0x1f06e
 .debug_line    0x00000000      0x3d9 ./LedBlinky.o
 .debug_line    0x000003d9      0x3eb ./cr_startup_lpc17.o
 .debug_line    0x000007c4      0x5d3 ./lcd_i2c.o
 .debug_line    0x00000d97      0x487 ./main.o
 .debug_line    0x0000121e      0x6c7 ./uart_fullmodem_test.o
 .debug_line    0x000018e5      0x819 ./webserver/emac.o
 .debug_line    0x000020fe       0x3c ./webserver/http-strings.o
 .debug_line    0x0000213a      0x90b ./webserver/httpd-cgi.o
 .debug_line    0x00002a45      0x33e ./webserver/httpd-fs.o
 .debug_line    0x00002d83      0x849 ./webserver/httpd.o
 .debug_line    0x000035cc      0x8dc ./webserver/psock.o
 .debug_line    0x00003ea8      0x3fc ./webserver/timer.o
 .debug_line    0x000042a4      0xad6 ./webserver/uIP_Task.o
 .debug_line    0x00004d7a     0x12b3 ./webserver/uip.o
 .debug_line    0x0000602d      0x812 ./webserver/uip_arp.o
 .debug_line    0x0000683f     0x134d ./uip_ftp/Connections.o
 .debug_line    0x00007b8c      0xafd ./uip_ftp/FTPD.o
 .debug_line    0x00008689       0x39 ./uip_ftp/FTP_Strings.o
 .debug_line    0x000086c2      0xc41 ./uip_ftp/ftp_main.o
 .debug_line    0x00009303      0x508 ./driver_source/lpc17xx_adc.o
 .debug_line    0x0000980b     0x1346 ./driver_source/lpc17xx_can.o
 .debug_line    0x0000ab51      0x422 ./driver_source/lpc17xx_clkpwr.o
 .debug_line    0x0000af73      0x3d6 ./driver_source/lpc17xx_dac.o
 .debug_line    0x0000b349      0x8fb ./driver_source/lpc17xx_emac.o
 .debug_line    0x0000bc44      0x4a4 ./driver_source/lpc17xx_gpdma.o
 .debug_line    0x0000c0e8      0x4e0 ./driver_source/lpc17xx_gpio.o
 .debug_line    0x0000c5c8      0x9ed ./driver_source/lpc17xx_i2c.o
 .debug_line    0x0000cfb5      0x74f ./driver_source/lpc17xx_i2s.o
 .debug_line    0x0000d704      0x2be ./driver_source/lpc17xx_libcfg_default.o
 .debug_line    0x0000d9c2      0x5e8 ./driver_source/lpc17xx_mcpwm.o
 .debug_line    0x0000dfaa      0x386 ./driver_source/lpc17xx_nvic.o
 .debug_line    0x0000e330      0x3d4 ./driver_source/lpc17xx_pinsel.o
 .debug_line    0x0000e704      0x65d ./driver_source/lpc17xx_pwm.o
 .debug_line    0x0000ed61      0x65f ./driver_source/lpc17xx_qei.o
 .debug_line    0x0000f3c0      0x447 ./driver_source/lpc17xx_rit.o
 .debug_line    0x0000f807      0x72c ./driver_source/lpc17xx_rtc.o
 .debug_line    0x0000ff33      0x7ef ./driver_source/lpc17xx_sd.o
 .debug_line    0x00010722      0x678 ./driver_source/lpc17xx_spi.o
 .debug_line    0x00010d9a      0xa28 ./driver_source/lpc17xx_ssp.o
 .debug_line    0x000117c2      0x653 ./driver_source/lpc17xx_timer.o
 .debug_line    0x00011e15     0x11e7 ./driver_source/lpc17xx_uart.o
 .debug_line    0x00012ffc      0x4c2 ./driver_source/lpc17xx_wdt.o
 .debug_line    0x000134be      0xb60 ./UsbHost/Uart/usbhost_uart.o
 .debug_line    0x0001401e      0xa77 ./UsbHost/MassStorage/usbhost_ms.o
 .debug_line    0x00014a95      0x9be ./UsbHost/Main/usbhost_main.o
 .debug_line    0x00015453      0x9b3 ./UsbHost/Host/usb_ms_diskio.o
 .debug_line    0x00015e06      0xe9c ./UsbHost/Host/usbhost_lpc17xx.o
 .debug_line    0x00016ca2      0x99c ./LPCUSB/USB_CDC.o
 .debug_line    0x0001763e      0x77f ./LPCUSB/usbcontrol.o
 .debug_line    0x00017dbd      0xa97 ./LPCUSB/usbhw_lpc.o
 .debug_line    0x00018854      0x6fd ./LPCUSB/usbinit.o
 .debug_line    0x00018f51      0x82a ./LPCUSB/usbstdreq.o
 .debug_line    0x0001977b       0xcf ./FatFs/option/cc932.o
 .debug_line    0x0001984a       0x6e ./FatFs/option/syncobj.o
 .debug_line    0x000198b8      0x5d2 ./FatFs/option/syscall.o
 .debug_line    0x00019e8a      0x91a ./FatFs/diskio.o
 .debug_line    0x0001a7a4     0x1ae1 ./FatFs/ff.o
 .debug_line    0x0001c285      0x324 /home/nlv14991/workspaceLPC/STE-LPC1768-/CMSISv1p30_LPC17xx/Debug/libCMSISv1p30_LPC17xx.a(system_LPC17xx.o)
 .debug_line    0x0001c5a9      0x94a /home/nlv14991/workspaceLPC/STE-LPC1768-/FreeRTOS_Library/Debug/libFreeRTOS_Library.a(queue.o)
 .debug_line    0x0001cef3      0xbc4 /home/nlv14991/workspaceLPC/STE-LPC1768-/FreeRTOS_Library/Debug/libFreeRTOS_Library.a(tasks.o)
 .debug_line    0x0001dab7      0x752 /home/nlv14991/workspaceLPC/STE-LPC1768-/FreeRTOS_Library/Debug/libFreeRTOS_Library.a(heap_2.o)
 .debug_line    0x0001e209      0x405 /home/nlv14991/workspaceLPC/STE-LPC1768-/FreeRTOS_Library/Debug/libFreeRTOS_Library.a(port.o)
 .debug_line    0x0001e60e      0x729 /home/nlv14991/workspaceLPC/STE-LPC1768-/FreeRTOS_Library/Debug/libFreeRTOS_Library.a(list.o)
 .debug_line    0x0001ed37       0xc0 /usr/local/lpcxpresso_4.2.3_255/lpcxpresso/tools/bin/../lib/gcc/arm-none-eabi/4.5.1/../../../../arm-none-eabi/lib/thumb2/libcr_newlib_nohost.a(_cr_sbrk.o)
 .debug_line    0x0001edf7       0x40 /usr/local/lpcxpresso_4.2.3_255/lpcxpresso/tools/bin/../lib/gcc/arm-none-eabi/4.5.1/../../../../arm-none-eabi/lib/thumb2/libcr_newlib_nohost.a(close.o)
 .debug_line    0x0001ee37       0xe3 /usr/local/lpcxpresso_4.2.3_255/lpcxpresso/tools/bin/../lib/gcc/arm-none-eabi/4.5.1/../../../../arm-none-eabi/lib/thumb2/libcr_newlib_nohost.a(fstat.o)
 .debug_line    0x0001ef1a       0x41 /usr/local/lpcxpresso_4.2.3_255/lpcxpresso/tools/bin/../lib/gcc/arm-none-eabi/4.5.1/../../../../arm-none-eabi/lib/thumb2/libcr_newlib_nohost.a(isatty.o)
 .debug_line    0x0001ef5b       0x40 /usr/local/lpcxpresso_4.2.3_255/lpcxpresso/tools/bin/../lib/gcc/arm-none-eabi/4.5.1/../../../../arm-none-eabi/lib/thumb2/libcr_newlib_nohost.a(lseek.o)
 .debug_line    0x0001ef9b       0x3f /usr/local/lpcxpresso_4.2.3_255/lpcxpresso/tools/bin/../lib/gcc/arm-none-eabi/4.5.1/../../../../arm-none-eabi/lib/thumb2/libcr_newlib_nohost.a(read.o)
 .debug_line    0x0001efda       0x40 /usr/local/lpcxpresso_4.2.3_255/lpcxpresso/tools/bin/../lib/gcc/arm-none-eabi/4.5.1/../../../../arm-none-eabi/lib/thumb2/libcr_newlib_nohost.a(write.o)
 .debug_line    0x0001f01a       0x54 /usr/local/lpcxpresso_4.2.3_255/lpcxpresso/tools/bin/../lib/gcc/arm-none-eabi/4.5.1/../../../../arm-none-eabi/lib/thumb2/libcr_newlib_nohost.a(_cr_check_heap.o)

.debug_macinfo  0x00000000   0x229851
 .debug_macinfo
                0x00000000     0x6924 ./LedBlinky.o
 .debug_macinfo
                0x00006924     0x7f9b ./cr_startup_lpc17.o
 .debug_macinfo
                0x0000e8bf     0x8fa3 ./lcd_i2c.o
 .debug_macinfo
                0x00017862     0x9cf3 ./main.o
 .debug_macinfo
                0x00021555     0x85ef ./uart_fullmodem_test.o
 .debug_macinfo
                0x00029b44     0xb421 ./webserver/emac.o
 .debug_macinfo
                0x00034f65     0x1722 ./webserver/http-strings.o
 .debug_macinfo
                0x00036687     0xcc0f ./webserver/httpd-cgi.o
 .debug_macinfo
                0x00043296     0x3e02 ./webserver/httpd-fs.o
 .debug_macinfo
                0x00047098     0x5ea6 ./webserver/httpd.o
 .debug_macinfo
                0x0004cf3e     0x6d15 ./webserver/psock.o
 .debug_macinfo
                0x00053c53     0x88bb ./webserver/timer.o
 .debug_macinfo
                0x0005c50e    0x11495 ./webserver/uIP_Task.o
 .debug_macinfo
                0x0006d9a3     0xc061 ./webserver/uip.o
 .debug_macinfo
                0x00079a04     0x5f3d ./webserver/uip_arp.o
 .debug_macinfo
                0x0007f941     0xd0a4 ./uip_ftp/Connections.o
 .debug_macinfo
                0x0008c9e5     0xcfeb ./uip_ftp/FTPD.o
 .debug_macinfo
                0x000999d0     0x1722 ./uip_ftp/FTP_Strings.o
 .debug_macinfo
                0x0009b0f2    0x11397 ./uip_ftp/ftp_main.o
 .debug_macinfo
                0x000ac489     0x8422 ./driver_source/lpc17xx_adc.o
 .debug_macinfo
                0x000b48ab     0x9841 ./driver_source/lpc17xx_can.o
 .debug_macinfo
                0x000be0ec     0x79ed ./driver_source/lpc17xx_clkpwr.o
 .debug_macinfo
                0x000c5ad9     0x7d4f ./driver_source/lpc17xx_dac.o
 .debug_macinfo
                0x000cd828     0x999e ./driver_source/lpc17xx_emac.o
 .debug_macinfo
                0x000d71c6     0x9056 ./driver_source/lpc17xx_gpdma.o
 .debug_macinfo
                0x000e021c     0x6aac ./driver_source/lpc17xx_gpio.o
 .debug_macinfo
                0x000e6cc8     0x89cc ./driver_source/lpc17xx_i2c.o
 .debug_macinfo
                0x000ef694     0x8e70 ./driver_source/lpc17xx_i2s.o
 .debug_macinfo
                0x000f8504     0x238c ./driver_source/lpc17xx_libcfg_default.o
 .debug_macinfo
                0x000fa890     0x85d6 ./driver_source/lpc17xx_mcpwm.o
 .debug_macinfo
                0x00102e66     0x66e3 ./driver_source/lpc17xx_nvic.o
 .debug_macinfo
                0x00109549     0x6bc7 ./driver_source/lpc17xx_pinsel.o
 .debug_macinfo
                0x00110110     0x847b ./driver_source/lpc17xx_pwm.o
 .debug_macinfo
                0x0011858b     0x9414 ./driver_source/lpc17xx_qei.o
 .debug_macinfo
                0x0012199f     0x7c78 ./driver_source/lpc17xx_rit.o
 .debug_macinfo
                0x00129617     0x846c ./driver_source/lpc17xx_rtc.o
 .debug_macinfo
                0x00131a83     0x75b5 ./driver_source/lpc17xx_sd.o
 .debug_macinfo
                0x00139038     0x8602 ./driver_source/lpc17xx_spi.o
 .debug_macinfo
                0x0014163a     0x8cc4 ./driver_source/lpc17xx_ssp.o
 .debug_macinfo
                0x0014a2fe     0x88c1 ./driver_source/lpc17xx_timer.o
 .debug_macinfo
                0x00152bbf     0xb771 ./driver_source/lpc17xx_uart.o
 .debug_macinfo
                0x0015e330     0x83b2 ./driver_source/lpc17xx_wdt.o
 .debug_macinfo
                0x001666e2     0xbf94 ./UsbHost/Uart/usbhost_uart.o
 .debug_macinfo
                0x00172676     0x9eaf ./UsbHost/MassStorage/usbhost_ms.o
 .debug_macinfo
                0x0017c525     0xb60c ./UsbHost/Main/usbhost_main.o
 .debug_macinfo
                0x00187b31     0xb372 ./UsbHost/Host/usb_ms_diskio.o
 .debug_macinfo
                0x00192ea3     0x9eaf ./UsbHost/Host/usbhost_lpc17xx.o
 .debug_macinfo
                0x0019cd52     0xdc96 ./LPCUSB/USB_CDC.o
 .debug_macinfo
                0x001aa9e8     0xb2bf ./LPCUSB/usbcontrol.o
 .debug_macinfo
                0x001b5ca7     0xb88b ./LPCUSB/usbhw_lpc.o
 .debug_macinfo
                0x001c1532     0xb293 ./LPCUSB/usbinit.o
 .debug_macinfo
                0x001cc7c5     0xb387 ./LPCUSB/usbstdreq.o
 .debug_macinfo
                0x001d7b4c     0x1f89 ./FatFs/option/cc932.o
 .debug_macinfo
                0x001d9ad5     0x1f79 ./FatFs/option/syncobj.o
 .debug_macinfo
                0x001dba4e     0x420f ./FatFs/option/syscall.o
 .debug_macinfo
                0x001dfc5d     0xa2fe ./FatFs/diskio.o
 .debug_macinfo
                0x001e9f5b     0x2a5f ./FatFs/ff.o
 .debug_macinfo
                0x001ec9ba     0x6748 /home/nlv14991/workspaceLPC/STE-LPC1768-/CMSISv1p30_LPC17xx/Debug/libCMSISv1p30_LPC17xx.a(system_LPC17xx.o)
 .debug_macinfo
                0x001f3102     0xb6e1 /home/nlv14991/workspaceLPC/STE-LPC1768-/FreeRTOS_Library/Debug/libFreeRTOS_Library.a(queue.o)
 .debug_macinfo
                0x001fe7e3     0xc3ec /home/nlv14991/workspaceLPC/STE-LPC1768-/FreeRTOS_Library/Debug/libFreeRTOS_Library.a(tasks.o)
 .debug_macinfo
                0x0020abcf     0xb11a /home/nlv14991/workspaceLPC/STE-LPC1768-/FreeRTOS_Library/Debug/libFreeRTOS_Library.a(heap_2.o)
 .debug_macinfo
                0x00215ce9     0x9128 /home/nlv14991/workspaceLPC/STE-LPC1768-/FreeRTOS_Library/Debug/libFreeRTOS_Library.a(port.o)
 .debug_macinfo
                0x0021ee11     0xaa40 /home/nlv14991/workspaceLPC/STE-LPC1768-/FreeRTOS_Library/Debug/libFreeRTOS_Library.a(list.o)

.debug_loc      0x00000000    0x20bdd
 .debug_loc     0x00000000      0x1e3 ./LedBlinky.o
 .debug_loc     0x000001e3      0x194 ./cr_startup_lpc17.o
 .debug_loc     0x00000377      0x204 ./lcd_i2c.o
 .debug_loc     0x0000057b       0x9f ./main.o
 .debug_loc     0x0000061a      0x8e2 ./uart_fullmodem_test.o
 .debug_loc     0x00000efc      0xe79 ./webserver/emac.o
 .debug_loc     0x00001d75      0x60f ./webserver/httpd-cgi.o
 .debug_loc     0x00002384      0x232 ./webserver/httpd-fs.o
 .debug_loc     0x000025b6      0x46f ./webserver/httpd.o
 .debug_loc     0x00002a25      0x604 ./webserver/psock.o
 .debug_loc     0x00003029       0xcd ./webserver/timer.o
 .debug_loc     0x000030f6      0x21d ./webserver/uIP_Task.o
 .debug_loc     0x00003313     0x1494 ./webserver/uip.o
 .debug_loc     0x000047a7      0x4ca ./webserver/uip_arp.o
 .debug_loc     0x00004c71     0x1416 ./uip_ftp/Connections.o
 .debug_loc     0x00006087      0x149 ./uip_ftp/FTPD.o
 .debug_loc     0x000061d0      0x258 ./uip_ftp/ftp_main.o
 .debug_loc     0x00006428      0x530 ./driver_source/lpc17xx_adc.o
 .debug_loc     0x00006958     0x24d4 ./driver_source/lpc17xx_can.o
 .debug_loc     0x00008e2c      0x188 ./driver_source/lpc17xx_clkpwr.o
 .debug_loc     0x00008fb4      0x1c1 ./driver_source/lpc17xx_dac.o
 .debug_loc     0x00009175      0xae9 ./driver_source/lpc17xx_emac.o
 .debug_loc     0x00009c5e      0x279 ./driver_source/lpc17xx_gpdma.o
 .debug_loc     0x00009ed7      0x579 ./driver_source/lpc17xx_gpio.o
 .debug_loc     0x0000a450     0x117c ./driver_source/lpc17xx_i2c.o
 .debug_loc     0x0000b5cc      0x974 ./driver_source/lpc17xx_i2s.o
 .debug_loc     0x0000bf40      0x33d ./driver_source/lpc17xx_mcpwm.o
 .debug_loc     0x0000c27d       0x63 ./driver_source/lpc17xx_nvic.o
 .debug_loc     0x0000c2e0      0x350 ./driver_source/lpc17xx_pinsel.o
 .debug_loc     0x0000c630      0x4ea ./driver_source/lpc17xx_pwm.o
 .debug_loc     0x0000cb1a      0x6e3 ./driver_source/lpc17xx_qei.o
 .debug_loc     0x0000d1fd      0x21d ./driver_source/lpc17xx_rit.o
 .debug_loc     0x0000d41a      0x859 ./driver_source/lpc17xx_rtc.o
 .debug_loc     0x0000dc73     0x112b ./driver_source/lpc17xx_sd.o
 .debug_loc     0x0000ed9e      0x952 ./driver_source/lpc17xx_spi.o
 .debug_loc     0x0000f6f0      0xd53 ./driver_source/lpc17xx_ssp.o
 .debug_loc     0x00010443      0x6fa ./driver_source/lpc17xx_timer.o
 .debug_loc     0x00010b3d     0x2b2e ./driver_source/lpc17xx_uart.o
 .debug_loc     0x0001366b      0x441 ./driver_source/lpc17xx_wdt.o
 .debug_loc     0x00013aac      0x4f9 ./UsbHost/Uart/usbhost_uart.o
 .debug_loc     0x00013fa5      0x63e ./UsbHost/MassStorage/usbhost_ms.o
 .debug_loc     0x000145e3       0xab ./UsbHost/Main/usbhost_main.o
 .debug_loc     0x0001468e      0x2c3 ./UsbHost/Host/usb_ms_diskio.o
 .debug_loc     0x00014951      0xd3d ./UsbHost/Host/usbhost_lpc17xx.o
 .debug_loc     0x0001568e      0x317 ./LPCUSB/USB_CDC.o
 .debug_loc     0x000159a5      0x1b5 ./LPCUSB/usbcontrol.o
 .debug_loc     0x00015b5a      0x5f4 ./LPCUSB/usbhw_lpc.o
 .debug_loc     0x0001614e       0x20 ./LPCUSB/usbinit.o
 .debug_loc     0x0001616e      0x5f1 ./LPCUSB/usbstdreq.o
 .debug_loc     0x0001675f      0x2c5 ./FatFs/option/cc932.o
 .debug_loc     0x00016a24      0x29e ./FatFs/diskio.o
 .debug_loc     0x00016cc2     0x8672 ./FatFs/ff.o
 .debug_loc     0x0001f334       0x20 /home/nlv14991/workspaceLPC/STE-LPC1768-/CMSISv1p30_LPC17xx/Debug/libCMSISv1p30_LPC17xx.a(system_LPC17xx.o)
 .debug_loc     0x0001f354      0x7ed /home/nlv14991/workspaceLPC/STE-LPC1768-/FreeRTOS_Library/Debug/libFreeRTOS_Library.a(queue.o)
 .debug_loc     0x0001fb41      0xbd3 /home/nlv14991/workspaceLPC/STE-LPC1768-/FreeRTOS_Library/Debug/libFreeRTOS_Library.a(tasks.o)
 .debug_loc     0x00020714      0x204 /home/nlv14991/workspaceLPC/STE-LPC1768-/FreeRTOS_Library/Debug/libFreeRTOS_Library.a(heap_2.o)
 .debug_loc     0x00020918       0x89 /home/nlv14991/workspaceLPC/STE-LPC1768-/FreeRTOS_Library/Debug/libFreeRTOS_Library.a(port.o)
 .debug_loc     0x000209a1      0x113 /home/nlv14991/workspaceLPC/STE-LPC1768-/FreeRTOS_Library/Debug/libFreeRTOS_Library.a(list.o)
 .debug_loc     0x00020ab4       0x55 /usr/local/lpcxpresso_4.2.3_255/lpcxpresso/tools/bin/../lib/gcc/arm-none-eabi/4.5.1/../../../../arm-none-eabi/lib/thumb2/libcr_newlib_nohost.a(_cr_sbrk.o)
 .debug_loc     0x00020b09       0x13 /usr/local/lpcxpresso_4.2.3_255/lpcxpresso/tools/bin/../lib/gcc/arm-none-eabi/4.5.1/../../../../arm-none-eabi/lib/thumb2/libcr_newlib_nohost.a(close.o)
 .debug_loc     0x00020b1c       0x13 /usr/local/lpcxpresso_4.2.3_255/lpcxpresso/tools/bin/../lib/gcc/arm-none-eabi/4.5.1/../../../../arm-none-eabi/lib/thumb2/libcr_newlib_nohost.a(fstat.o)
 .debug_loc     0x00020b2f       0x13 /usr/local/lpcxpresso_4.2.3_255/lpcxpresso/tools/bin/../lib/gcc/arm-none-eabi/4.5.1/../../../../arm-none-eabi/lib/thumb2/libcr_newlib_nohost.a(isatty.o)
 .debug_loc     0x00020b42       0x26 /usr/local/lpcxpresso_4.2.3_255/lpcxpresso/tools/bin/../lib/gcc/arm-none-eabi/4.5.1/../../../../arm-none-eabi/lib/thumb2/libcr_newlib_nohost.a(lseek.o)
 .debug_loc     0x00020b68       0x26 /usr/local/lpcxpresso_4.2.3_255/lpcxpresso/tools/bin/../lib/gcc/arm-none-eabi/4.5.1/../../../../arm-none-eabi/lib/thumb2/libcr_newlib_nohost.a(read.o)
 .debug_loc     0x00020b8e       0x26 /usr/local/lpcxpresso_4.2.3_255/lpcxpresso/tools/bin/../lib/gcc/arm-none-eabi/4.5.1/../../../../arm-none-eabi/lib/thumb2/libcr_newlib_nohost.a(write.o)
 .debug_loc     0x00020bb4       0x29 /usr/local/lpcxpresso_4.2.3_255/lpcxpresso/tools/bin/../lib/gcc/arm-none-eabi/4.5.1/../../../../arm-none-eabi/lib/thumb2/libcr_newlib_nohost.a(_cr_check_heap.o)

.debug_pubnames
                0x00000000     0x3b21
 .debug_pubnames
                0x00000000       0x67 ./LedBlinky.o
 .debug_pubnames
                0x00000067      0x105 ./cr_startup_lpc17.o
 .debug_pubnames
                0x0000016c       0xb1 ./lcd_i2c.o
 .debug_pubnames
                0x0000021d       0xc5 ./main.o
 .debug_pubnames
                0x000002e2       0xeb ./uart_fullmodem_test.o
 .debug_pubnames
                0x000003cd       0x62 ./webserver/emac.o
 .debug_pubnames
                0x0000042f      0x271 ./webserver/http-strings.o
 .debug_pubnames
                0x000006a0       0x4c ./webserver/httpd-cgi.o
 .debug_pubnames
                0x000006ec       0xd5 ./webserver/httpd-fs.o
 .debug_pubnames
                0x000007c1       0x48 ./webserver/httpd.o
 .debug_pubnames
                0x00000809       0xa7 ./webserver/psock.o
 .debug_pubnames
                0x000008b0       0x54 ./webserver/timer.o
 .debug_pubnames
                0x00000904       0x72 ./webserver/uIP_Task.o
 .debug_pubnames
                0x00000976      0x1aa ./webserver/uip.o
 .debug_pubnames
                0x00000b20       0x68 ./webserver/uip_arp.o
 .debug_pubnames
                0x00000b88      0x1d5 ./uip_ftp/Connections.o
 .debug_pubnames
                0x00000d5d       0x52 ./uip_ftp/FTPD.o
 .debug_pubnames
                0x00000daf       0xde ./uip_ftp/FTP_Strings.o
 .debug_pubnames
                0x00000e8d       0x54 ./uip_ftp/ftp_main.o
 .debug_pubnames
                0x00000ee1      0x110 ./driver_source/lpc17xx_adc.o
 .debug_pubnames
                0x00000ff1      0x21a ./driver_source/lpc17xx_can.o
 .debug_pubnames
                0x0000120b       0xbb ./driver_source/lpc17xx_clkpwr.o
 .debug_pubnames
                0x000012c6       0x7a ./driver_source/lpc17xx_dac.o
 .debug_pubnames
                0x00001340      0x225 ./driver_source/lpc17xx_emac.o
 .debug_pubnames
                0x00001565       0xa7 ./driver_source/lpc17xx_gpdma.o
 .debug_pubnames
                0x0000160c      0x196 ./driver_source/lpc17xx_gpio.o
 .debug_pubnames
                0x000017a2      0x165 ./driver_source/lpc17xx_i2c.o
 .debug_pubnames
                0x00001907      0x157 ./driver_source/lpc17xx_i2s.o
 .debug_pubnames
                0x00001a5e       0x23 ./driver_source/lpc17xx_libcfg_default.o
 .debug_pubnames
                0x00001a81      0x13b ./driver_source/lpc17xx_mcpwm.o
 .debug_pubnames
                0x00001bbc       0x46 ./driver_source/lpc17xx_nvic.o
 .debug_pubnames
                0x00001c02       0xa6 ./driver_source/lpc17xx_pinsel.o
 .debug_pubnames
                0x00001ca8      0x127 ./driver_source/lpc17xx_pwm.o
 .debug_pubnames
                0x00001dcf      0x1aa ./driver_source/lpc17xx_qei.o
 .debug_pubnames
                0x00001f79       0x97 ./driver_source/lpc17xx_rit.o
 .debug_pubnames
                0x00002010      0x1ab ./driver_source/lpc17xx_rtc.o
 .debug_pubnames
                0x000021bb       0xe3 ./driver_source/lpc17xx_sd.o
 .debug_pubnames
                0x0000229e      0x11a ./driver_source/lpc17xx_spi.o
 .debug_pubnames
                0x000023b8      0x17f ./driver_source/lpc17xx_ssp.o
 .debug_pubnames
                0x00002537      0x157 ./driver_source/lpc17xx_timer.o
 .debug_pubnames
                0x0000268e      0x311 ./driver_source/lpc17xx_uart.o
 .debug_pubnames
                0x0000299f       0xaa ./driver_source/lpc17xx_wdt.o
 .debug_pubnames
                0x00002a49      0x111 ./UsbHost/Uart/usbhost_uart.o
 .debug_pubnames
                0x00002b5a       0xd7 ./UsbHost/MassStorage/usbhost_ms.o
 .debug_pubnames
                0x00002c31       0x54 ./UsbHost/Main/usbhost_main.o
 .debug_pubnames
                0x00002c85       0xc6 ./UsbHost/Host/usb_ms_diskio.o
 .debug_pubnames
                0x00002d4b      0x239 ./UsbHost/Host/usbhost_lpc17xx.o
 .debug_pubnames
                0x00002f84       0x61 ./LPCUSB/USB_CDC.o
 .debug_pubnames
                0x00002fe5       0x4d ./LPCUSB/usbcontrol.o
 .debug_pubnames
                0x00003032      0x132 ./LPCUSB/usbhw_lpc.o
 .debug_pubnames
                0x00003164       0x1e ./LPCUSB/usbinit.o
 .debug_pubnames
                0x00003182       0x7f ./LPCUSB/usbstdreq.o
 .debug_pubnames
                0x00003201       0x31 ./FatFs/option/cc932.o
 .debug_pubnames
                0x00003232       0x74 ./FatFs/diskio.o
 .debug_pubnames
                0x000032a6      0x160 ./FatFs/ff.o
 .debug_pubnames
                0x00003406       0x4f /home/nlv14991/workspaceLPC/STE-LPC1768-/CMSISv1p30_LPC17xx/Debug/libCMSISv1p30_LPC17xx.a(system_LPC17xx.o)
 .debug_pubnames
                0x00003455      0x149 /home/nlv14991/workspaceLPC/STE-LPC1768-/FreeRTOS_Library/Debug/libFreeRTOS_Library.a(queue.o)
 .debug_pubnames
                0x0000359e      0x28b /home/nlv14991/workspaceLPC/STE-LPC1768-/FreeRTOS_Library/Debug/libFreeRTOS_Library.a(tasks.o)
 .debug_pubnames
                0x00003829       0x64 /home/nlv14991/workspaceLPC/STE-LPC1768-/FreeRTOS_Library/Debug/libFreeRTOS_Library.a(heap_2.o)
 .debug_pubnames
                0x0000388d      0x10d /home/nlv14991/workspaceLPC/STE-LPC1768-/FreeRTOS_Library/Debug/libFreeRTOS_Library.a(port.o)
 .debug_pubnames
                0x0000399a       0x71 /home/nlv14991/workspaceLPC/STE-LPC1768-/FreeRTOS_Library/Debug/libFreeRTOS_Library.a(list.o)
 .debug_pubnames
                0x00003a0b       0x2e /usr/local/lpcxpresso_4.2.3_255/lpcxpresso/tools/bin/../lib/gcc/arm-none-eabi/4.5.1/../../../../arm-none-eabi/lib/thumb2/libcr_newlib_nohost.a(_cr_sbrk.o)
 .debug_pubnames
                0x00003a39       0x1d /usr/local/lpcxpresso_4.2.3_255/lpcxpresso/tools/bin/../lib/gcc/arm-none-eabi/4.5.1/../../../../arm-none-eabi/lib/thumb2/libcr_newlib_nohost.a(close.o)
 .debug_pubnames
                0x00003a56       0x1d /usr/local/lpcxpresso_4.2.3_255/lpcxpresso/tools/bin/../lib/gcc/arm-none-eabi/4.5.1/../../../../arm-none-eabi/lib/thumb2/libcr_newlib_nohost.a(fstat.o)
 .debug_pubnames
                0x00003a73       0x1e /usr/local/lpcxpresso_4.2.3_255/lpcxpresso/tools/bin/../lib/gcc/arm-none-eabi/4.5.1/../../../../arm-none-eabi/lib/thumb2/libcr_newlib_nohost.a(isatty.o)
 .debug_pubnames
                0x00003a91       0x1d /usr/local/lpcxpresso_4.2.3_255/lpcxpresso/tools/bin/../lib/gcc/arm-none-eabi/4.5.1/../../../../arm-none-eabi/lib/thumb2/libcr_newlib_nohost.a(lseek.o)
 .debug_pubnames
                0x00003aae       0x1c /usr/local/lpcxpresso_4.2.3_255/lpcxpresso/tools/bin/../lib/gcc/arm-none-eabi/4.5.1/../../../../arm-none-eabi/lib/thumb2/libcr_newlib_nohost.a(read.o)
 .debug_pubnames
                0x00003aca       0x1d /usr/local/lpcxpresso_4.2.3_255/lpcxpresso/tools/bin/../lib/gcc/arm-none-eabi/4.5.1/../../../../arm-none-eabi/lib/thumb2/libcr_newlib_nohost.a(write.o)
 .debug_pubnames
                0x00003ae7       0x3a /usr/local/lpcxpresso_4.2.3_255/lpcxpresso/tools/bin/../lib/gcc/arm-none-eabi/4.5.1/../../../../arm-none-eabi/lib/thumb2/libcr_newlib_nohost.a(_cr_check_heap.o)

.debug_pubtypes
                0x00000000     0x2eaf
 .debug_pubtypes
                0x00000000       0x6e ./LedBlinky.o
 .debug_pubtypes
                0x0000006e       0x63 ./cr_startup_lpc17.o
 .debug_pubtypes
                0x000000d1       0x68 ./lcd_i2c.o
 .debug_pubtypes
                0x00000139       0x86 ./main.o
 .debug_pubtypes
                0x000001bf      0x165 ./uart_fullmodem_test.o
 .debug_pubtypes
                0x00000324       0x95 ./webserver/emac.o
 .debug_pubtypes
                0x000003b9      0x123 ./webserver/httpd-cgi.o
 .debug_pubtypes
                0x000004dc       0x84 ./webserver/httpd-fs.o
 .debug_pubtypes
                0x00000560       0xcf ./webserver/httpd.o
 .debug_pubtypes
                0x0000062f       0xcf ./webserver/psock.o
 .debug_pubtypes
                0x000006fe       0x2d ./webserver/timer.o
 .debug_pubtypes
                0x0000072b      0x1c1 ./webserver/uIP_Task.o
 .debug_pubtypes
                0x000008ec      0x123 ./webserver/uip.o
 .debug_pubtypes
                0x00000a0f       0xaa ./webserver/uip_arp.o
 .debug_pubtypes
                0x00000ab9      0x1a6 ./uip_ftp/Connections.o
 .debug_pubtypes
                0x00000c5f      0x16a ./uip_ftp/FTPD.o
 .debug_pubtypes
                0x00000dc9      0x265 ./uip_ftp/ftp_main.o
 .debug_pubtypes
                0x0000102e       0x84 ./driver_source/lpc17xx_adc.o
 .debug_pubtypes
                0x000010b2      0x1e2 ./driver_source/lpc17xx_can.o
 .debug_pubtypes
                0x00001294       0x5f ./driver_source/lpc17xx_clkpwr.o
 .debug_pubtypes
                0x000012f3       0x67 ./driver_source/lpc17xx_dac.o
 .debug_pubtypes
                0x0000135a      0x10c ./driver_source/lpc17xx_emac.o
 .debug_pubtypes
                0x00001466      0x143 ./driver_source/lpc17xx_gpdma.o
 .debug_pubtypes
                0x000015a9       0x7d ./driver_source/lpc17xx_gpio.o
 .debug_pubtypes
                0x00001626      0x108 ./driver_source/lpc17xx_i2c.o
 .debug_pubtypes
                0x0000172e       0xc6 ./driver_source/lpc17xx_i2s.o
 .debug_pubtypes
                0x000017f4       0x2b ./driver_source/lpc17xx_libcfg_default.o
 .debug_pubtypes
                0x0000181f       0xa7 ./driver_source/lpc17xx_mcpwm.o
 .debug_pubtypes
                0x000018c6       0x46 ./driver_source/lpc17xx_nvic.o
 .debug_pubtypes
                0x0000190c       0x6a ./driver_source/lpc17xx_pinsel.o
 .debug_pubtypes
                0x00001976       0xca ./driver_source/lpc17xx_pwm.o
 .debug_pubtypes
                0x00001a40       0xab ./driver_source/lpc17xx_qei.o
 .debug_pubtypes
                0x00001aeb       0x71 ./driver_source/lpc17xx_rit.o
 .debug_pubtypes
                0x00001b5c       0x80 ./driver_source/lpc17xx_rtc.o
 .debug_pubtypes
                0x00001bdc       0xc6 ./driver_source/lpc17xx_sd.o
 .debug_pubtypes
                0x00001ca2       0xd6 ./driver_source/lpc17xx_spi.o
 .debug_pubtypes
                0x00001d78       0xd6 ./driver_source/lpc17xx_ssp.o
 .debug_pubtypes
                0x00001e4e       0xcb ./driver_source/lpc17xx_timer.o
 .debug_pubtypes
                0x00001f19      0x296 ./driver_source/lpc17xx_uart.o
 .debug_pubtypes
                0x000021af       0x5e ./driver_source/lpc17xx_wdt.o
 .debug_pubtypes
                0x0000220d      0x1b0 ./UsbHost/Uart/usbhost_uart.o
 .debug_pubtypes
                0x000023bd       0x80 ./UsbHost/MassStorage/usbhost_ms.o
 .debug_pubtypes
                0x0000243d       0xd5 ./UsbHost/Main/usbhost_main.o
 .debug_pubtypes
                0x00002512       0xea ./UsbHost/Host/usb_ms_diskio.o
 .debug_pubtypes
                0x000025fc      0x10d ./UsbHost/Host/usbhost_lpc17xx.o
 .debug_pubtypes
                0x00002709       0xd4 ./LPCUSB/USB_CDC.o
 .debug_pubtypes
                0x000027dd       0x5a ./LPCUSB/usbcontrol.o
 .debug_pubtypes
                0x00002837       0xaf ./LPCUSB/usbhw_lpc.o
 .debug_pubtypes
                0x000028e6       0x34 ./LPCUSB/usbinit.o
 .debug_pubtypes
                0x0000291a       0x5a ./LPCUSB/usbstdreq.o
 .debug_pubtypes
                0x00002974       0x25 ./FatFs/option/cc932.o
 .debug_pubtypes
                0x00002999       0x12 ./FatFs/option/syncobj.o
 .debug_pubtypes
                0x000029ab       0x12 ./FatFs/option/syscall.o
 .debug_pubtypes
                0x000029bd       0x3d ./FatFs/diskio.o
 .debug_pubtypes
                0x000029fa       0x95 ./FatFs/ff.o
 .debug_pubtypes
                0x00002a8f       0x32 /home/nlv14991/workspaceLPC/STE-LPC1768-/CMSISv1p30_LPC17xx/Debug/libCMSISv1p30_LPC17xx.a(system_LPC17xx.o)
 .debug_pubtypes
                0x00002ac1       0xd4 /home/nlv14991/workspaceLPC/STE-LPC1768-/FreeRTOS_Library/Debug/libFreeRTOS_Library.a(queue.o)
 .debug_pubtypes
                0x00002b95      0x10c /home/nlv14991/workspaceLPC/STE-LPC1768-/FreeRTOS_Library/Debug/libFreeRTOS_Library.a(tasks.o)
 .debug_pubtypes
                0x00002ca1       0x4c /home/nlv14991/workspaceLPC/STE-LPC1768-/FreeRTOS_Library/Debug/libFreeRTOS_Library.a(heap_2.o)
 .debug_pubtypes
                0x00002ced       0x33 /home/nlv14991/workspaceLPC/STE-LPC1768-/FreeRTOS_Library/Debug/libFreeRTOS_Library.a(port.o)
 .debug_pubtypes
                0x00002d20       0x7a /home/nlv14991/workspaceLPC/STE-LPC1768-/FreeRTOS_Library/Debug/libFreeRTOS_Library.a(list.o)
 .debug_pubtypes
                0x00002d9a       0x1d /usr/local/lpcxpresso_4.2.3_255/lpcxpresso/tools/bin/../lib/gcc/arm-none-eabi/4.5.1/../../../../arm-none-eabi/lib/thumb2/libcr_newlib_nohost.a(_cr_sbrk.o)
 .debug_pubtypes
                0x00002db7       0x12 /usr/local/lpcxpresso_4.2.3_255/lpcxpresso/tools/bin/../lib/gcc/arm-none-eabi/4.5.1/../../../../arm-none-eabi/lib/thumb2/libcr_newlib_nohost.a(close.o)
 .debug_pubtypes
                0x00002dc9       0x9e /usr/local/lpcxpresso_4.2.3_255/lpcxpresso/tools/bin/../lib/gcc/arm-none-eabi/4.5.1/../../../../arm-none-eabi/lib/thumb2/libcr_newlib_nohost.a(fstat.o)
 .debug_pubtypes
                0x00002e67       0x12 /usr/local/lpcxpresso_4.2.3_255/lpcxpresso/tools/bin/../lib/gcc/arm-none-eabi/4.5.1/../../../../arm-none-eabi/lib/thumb2/libcr_newlib_nohost.a(isatty.o)
 .debug_pubtypes
                0x00002e79       0x12 /usr/local/lpcxpresso_4.2.3_255/lpcxpresso/tools/bin/../lib/gcc/arm-none-eabi/4.5.1/../../../../arm-none-eabi/lib/thumb2/libcr_newlib_nohost.a(lseek.o)
 .debug_pubtypes
                0x00002e8b       0x12 /usr/local/lpcxpresso_4.2.3_255/lpcxpresso/tools/bin/../lib/gcc/arm-none-eabi/4.5.1/../../../../arm-none-eabi/lib/thumb2/libcr_newlib_nohost.a(read.o)
 .debug_pubtypes
                0x00002e9d       0x12 /usr/local/lpcxpresso_4.2.3_255/lpcxpresso/tools/bin/../lib/gcc/arm-none-eabi/4.5.1/../../../../arm-none-eabi/lib/thumb2/libcr_newlib_nohost.a(write.o)

.debug_aranges  0x00000000     0x18f0
 .debug_aranges
                0x00000000       0x38 ./LedBlinky.o
 .debug_aranges
                0x00000038       0x78 ./cr_startup_lpc17.o
 .debug_aranges
                0x000000b0       0x50 ./lcd_i2c.o
 .debug_aranges
                0x00000100       0x48 ./main.o
 .debug_aranges
                0x00000148       0x60 ./uart_fullmodem_test.o
 .debug_aranges
                0x000001a8       0x38 ./webserver/emac.o
 .debug_aranges
                0x000001e0       0x98 ./webserver/httpd-cgi.o
 .debug_aranges
                0x00000278       0x30 ./webserver/httpd-fs.o
 .debug_aranges
                0x000002a8       0x50 ./webserver/httpd.o
 .debug_aranges
                0x000002f8       0x58 ./webserver/psock.o
 .debug_aranges
                0x00000350       0x38 ./webserver/timer.o
 .debug_aranges
                0x00000388       0x38 ./webserver/uIP_Task.o
 .debug_aranges
                0x000003c0       0x88 ./webserver/uip.o
 .debug_aranges
                0x00000448       0x48 ./webserver/uip_arp.o
 .debug_aranges
                0x00000490      0x130 ./uip_ftp/Connections.o
 .debug_aranges
                0x000005c0       0x28 ./uip_ftp/FTPD.o
 .debug_aranges
                0x000005e8       0x30 ./uip_ftp/ftp_main.o
 .debug_aranges
                0x00000618       0x80 ./driver_source/lpc17xx_adc.o
 .debug_aranges
                0x00000698       0xa8 ./driver_source/lpc17xx_can.o
 .debug_aranges
                0x00000740       0x58 ./driver_source/lpc17xx_clkpwr.o
 .debug_aranges
                0x00000798       0x40 ./driver_source/lpc17xx_dac.o
 .debug_aranges
                0x000007d8       0xc8 ./driver_source/lpc17xx_emac.o
 .debug_aranges
                0x000008a0       0x38 ./driver_source/lpc17xx_gpdma.o
 .debug_aranges
                0x000008d8       0xb0 ./driver_source/lpc17xx_gpio.o
 .debug_aranges
                0x00000988       0x98 ./driver_source/lpc17xx_i2c.o
 .debug_aranges
                0x00000a20       0xb8 ./driver_source/lpc17xx_i2s.o
 .debug_aranges
                0x00000ad8       0x20 ./driver_source/lpc17xx_libcfg_default.o
 .debug_aranges
                0x00000af8       0x90 ./driver_source/lpc17xx_mcpwm.o
 .debug_aranges
                0x00000b88       0x30 ./driver_source/lpc17xx_nvic.o
 .debug_aranges
                0x00000bb8       0x48 ./driver_source/lpc17xx_pinsel.o
 .debug_aranges
                0x00000c00       0x88 ./driver_source/lpc17xx_pwm.o
 .debug_aranges
                0x00000c88       0xc0 ./driver_source/lpc17xx_qei.o
 .debug_aranges
                0x00000d48       0x50 ./driver_source/lpc17xx_rit.o
 .debug_aranges
                0x00000d98       0xb8 ./driver_source/lpc17xx_rtc.o
 .debug_aranges
                0x00000e50       0x70 ./driver_source/lpc17xx_sd.o
 .debug_aranges
                0x00000ec0       0x88 ./driver_source/lpc17xx_spi.o
 .debug_aranges
                0x00000f48       0xb0 ./driver_source/lpc17xx_ssp.o
 .debug_aranges
                0x00000ff8       0x90 ./driver_source/lpc17xx_timer.o
 .debug_aranges
                0x00001088      0x130 ./driver_source/lpc17xx_uart.o
 .debug_aranges
                0x000011b8       0x58 ./driver_source/lpc17xx_wdt.o
 .debug_aranges
                0x00001210       0x68 ./UsbHost/Uart/usbhost_uart.o
 .debug_aranges
                0x00001278       0x68 ./UsbHost/MassStorage/usbhost_ms.o
 .debug_aranges
                0x000012e0       0x20 ./UsbHost/Main/usbhost_main.o
 .debug_aranges
                0x00001300       0x58 ./UsbHost/Host/usb_ms_diskio.o
 .debug_aranges
                0x00001358       0xc0 ./UsbHost/Host/usbhost_lpc17xx.o
 .debug_aranges
                0x00001418       0x60 ./LPCUSB/USB_CDC.o
 .debug_aranges
                0x00001478       0x28 ./LPCUSB/usbcontrol.o
 .debug_aranges
                0x000014a0       0x88 ./LPCUSB/usbhw_lpc.o
 .debug_aranges
                0x00001528       0x28 ./LPCUSB/usbinit.o
 .debug_aranges
                0x00001550       0x38 ./LPCUSB/usbstdreq.o
 .debug_aranges
                0x00001588       0x28 ./FatFs/option/cc932.o
 .debug_aranges
                0x000015b0       0x40 ./FatFs/diskio.o
 .debug_aranges
                0x000015f0      0x138 ./FatFs/ff.o
 .debug_aranges
                0x00001728       0x28 /home/nlv14991/workspaceLPC/STE-LPC1768-/CMSISv1p30_LPC17xx/Debug/libCMSISv1p30_LPC17xx.a(system_LPC17xx.o)
 .debug_aranges
                0x00001750       0x20 /home/nlv14991/workspaceLPC/STE-LPC1768-/FreeRTOS_Library/Debug/libFreeRTOS_Library.a(queue.o)
 .debug_aranges
                0x00001770       0x20 /home/nlv14991/workspaceLPC/STE-LPC1768-/FreeRTOS_Library/Debug/libFreeRTOS_Library.a(tasks.o)
 .debug_aranges
                0x00001790       0x20 /home/nlv14991/workspaceLPC/STE-LPC1768-/FreeRTOS_Library/Debug/libFreeRTOS_Library.a(heap_2.o)
 .debug_aranges
                0x000017b0       0x20 /home/nlv14991/workspaceLPC/STE-LPC1768-/FreeRTOS_Library/Debug/libFreeRTOS_Library.a(port.o)
 .debug_aranges
                0x000017d0       0x20 /home/nlv14991/workspaceLPC/STE-LPC1768-/FreeRTOS_Library/Debug/libFreeRTOS_Library.a(list.o)
 .debug_aranges
                0x000017f0       0x20 /usr/local/lpcxpresso_4.2.3_255/lpcxpresso/tools/bin/../lib/gcc/arm-none-eabi/4.5.1/../../../../arm-none-eabi/lib/thumb2/libcr_newlib_nohost.a(_cr_sbrk.o)
 .debug_aranges
                0x00001810       0x20 /usr/local/lpcxpresso_4.2.3_255/lpcxpresso/tools/bin/../lib/gcc/arm-none-eabi/4.5.1/../../../../arm-none-eabi/lib/thumb2/libcr_newlib_nohost.a(close.o)
 .debug_aranges
                0x00001830       0x20 /usr/local/lpcxpresso_4.2.3_255/lpcxpresso/tools/bin/../lib/gcc/arm-none-eabi/4.5.1/../../../../arm-none-eabi/lib/thumb2/libcr_newlib_nohost.a(fstat.o)
 .debug_aranges
                0x00001850       0x20 /usr/local/lpcxpresso_4.2.3_255/lpcxpresso/tools/bin/../lib/gcc/arm-none-eabi/4.5.1/../../../../arm-none-eabi/lib/thumb2/libcr_newlib_nohost.a(isatty.o)
 .debug_aranges
                0x00001870       0x20 /usr/local/lpcxpresso_4.2.3_255/lpcxpresso/tools/bin/../lib/gcc/arm-none-eabi/4.5.1/../../../../arm-none-eabi/lib/thumb2/libcr_newlib_nohost.a(lseek.o)
 .debug_aranges
                0x00001890       0x20 /usr/local/lpcxpresso_4.2.3_255/lpcxpresso/tools/bin/../lib/gcc/arm-none-eabi/4.5.1/../../../../arm-none-eabi/lib/thumb2/libcr_newlib_nohost.a(read.o)
 .debug_aranges
                0x000018b0       0x20 /usr/local/lpcxpresso_4.2.3_255/lpcxpresso/tools/bin/../lib/gcc/arm-none-eabi/4.5.1/../../../../arm-none-eabi/lib/thumb2/libcr_newlib_nohost.a(write.o)
 .debug_aranges
                0x000018d0       0x20 /usr/local/lpcxpresso_4.2.3_255/lpcxpresso/tools/bin/../lib/gcc/arm-none-eabi/4.5.1/../../../../arm-none-eabi/lib/thumb2/libcr_newlib_nohost.a(_cr_check_heap.o)

.debug_ranges   0x00000000     0x64c8
 .debug_ranges  0x00000000       0x98 ./LedBlinky.o
 .debug_ranges  0x00000098       0x68 ./cr_startup_lpc17.o
 .debug_ranges  0x00000100       0x80 ./lcd_i2c.o
 .debug_ranges  0x00000180       0x38 ./main.o
 .debug_ranges  0x000001b8      0x108 ./uart_fullmodem_test.o
 .debug_ranges  0x000002c0      0x438 ./webserver/emac.o
 .debug_ranges  0x000006f8      0x168 ./webserver/httpd-cgi.o
 .debug_ranges  0x00000860       0x20 ./webserver/httpd-fs.o
 .debug_ranges  0x00000880      0x210 ./webserver/httpd.o
 .debug_ranges  0x00000a90      0x248 ./webserver/psock.o
 .debug_ranges  0x00000cd8       0x28 ./webserver/timer.o
 .debug_ranges  0x00000d00       0xd8 ./webserver/uIP_Task.o
 .debug_ranges  0x00000dd8      0x520 ./webserver/uip.o
 .debug_ranges  0x000012f8       0x38 ./webserver/uip_arp.o
 .debug_ranges  0x00001330      0x5c0 ./uip_ftp/Connections.o
 .debug_ranges  0x000018f0       0xb0 ./uip_ftp/FTPD.o
 .debug_ranges  0x000019a0      0x100 ./uip_ftp/ftp_main.o
 .debug_ranges  0x00001aa0       0x70 ./driver_source/lpc17xx_adc.o
 .debug_ranges  0x00001b10       0xc8 ./driver_source/lpc17xx_can.o
 .debug_ranges  0x00001bd8       0x78 ./driver_source/lpc17xx_clkpwr.o
 .debug_ranges  0x00001c50       0x30 ./driver_source/lpc17xx_dac.o
 .debug_ranges  0x00001c80      0x488 ./driver_source/lpc17xx_emac.o
 .debug_ranges  0x00002108       0x28 ./driver_source/lpc17xx_gpdma.o
 .debug_ranges  0x00002130      0x100 ./driver_source/lpc17xx_gpio.o
 .debug_ranges  0x00002230      0x3a0 ./driver_source/lpc17xx_i2c.o
 .debug_ranges  0x000025d0      0x190 ./driver_source/lpc17xx_i2s.o
 .debug_ranges  0x00002760       0x10 ./driver_source/lpc17xx_libcfg_default.o
 .debug_ranges  0x00002770       0x80 ./driver_source/lpc17xx_mcpwm.o
 .debug_ranges  0x000027f0       0x20 ./driver_source/lpc17xx_nvic.o
 .debug_ranges  0x00002810       0xe8 ./driver_source/lpc17xx_pinsel.o
 .debug_ranges  0x000028f8       0x78 ./driver_source/lpc17xx_pwm.o
 .debug_ranges  0x00002970       0xb0 ./driver_source/lpc17xx_qei.o
 .debug_ranges  0x00002a20       0x40 ./driver_source/lpc17xx_rit.o
 .debug_ranges  0x00002a60       0xa8 ./driver_source/lpc17xx_rtc.o
 .debug_ranges  0x00002b08      0x3b0 ./driver_source/lpc17xx_sd.o
 .debug_ranges  0x00002eb8      0x1b0 ./driver_source/lpc17xx_spi.o
 .debug_ranges  0x00003068      0x3d0 ./driver_source/lpc17xx_ssp.o
 .debug_ranges  0x00003438      0x200 ./driver_source/lpc17xx_timer.o
 .debug_ranges  0x00003638      0x548 ./driver_source/lpc17xx_uart.o
 .debug_ranges  0x00003b80       0xa8 ./driver_source/lpc17xx_wdt.o
 .debug_ranges  0x00003c28      0x188 ./UsbHost/Uart/usbhost_uart.o
 .debug_ranges  0x00003db0      0x148 ./UsbHost/MassStorage/usbhost_ms.o
 .debug_ranges  0x00003ef8       0x10 ./UsbHost/Main/usbhost_main.o
 .debug_ranges  0x00003f08       0x48 ./UsbHost/Host/usb_ms_diskio.o
 .debug_ranges  0x00003f50      0x6f0 ./UsbHost/Host/usbhost_lpc17xx.o
 .debug_ranges  0x00004640       0xc0 ./LPCUSB/USB_CDC.o
 .debug_ranges  0x00004700       0xf8 ./LPCUSB/usbcontrol.o
 .debug_ranges  0x000047f8      0x5a8 ./LPCUSB/usbhw_lpc.o
 .debug_ranges  0x00004da0       0x18 ./LPCUSB/usbinit.o
 .debug_ranges  0x00004db8      0x1c8 ./LPCUSB/usbstdreq.o
 .debug_ranges  0x00004f80       0x18 ./FatFs/option/cc932.o
 .debug_ranges  0x00004f98       0x90 ./FatFs/diskio.o
 .debug_ranges  0x00005028     0x1210 ./FatFs/ff.o
 .debug_ranges  0x00006238       0x18 /home/nlv14991/workspaceLPC/STE-LPC1768-/CMSISv1p30_LPC17xx/Debug/libCMSISv1p30_LPC17xx.a(system_LPC17xx.o)
 .debug_ranges  0x00006250       0x18 /home/nlv14991/workspaceLPC/STE-LPC1768-/FreeRTOS_Library/Debug/libFreeRTOS_Library.a(queue.o)
 .debug_ranges  0x00006268      0x1e8 /home/nlv14991/workspaceLPC/STE-LPC1768-/FreeRTOS_Library/Debug/libFreeRTOS_Library.a(tasks.o)
 .debug_ranges  0x00006450       0x50 /home/nlv14991/workspaceLPC/STE-LPC1768-/FreeRTOS_Library/Debug/libFreeRTOS_Library.a(heap_2.o)
 .debug_ranges  0x000064a0       0x28 /home/nlv14991/workspaceLPC/STE-LPC1768-/FreeRTOS_Library/Debug/libFreeRTOS_Library.a(port.o)

.debug_str      0x00000000     0x8d3a
 .debug_str     0x00000000      0x40a ./LedBlinky.o
                                0x47b (size before relaxing)
 .debug_str     0x0000040a      0x254 ./cr_startup_lpc17.o
                                0x3f4 (size before relaxing)
 .debug_str     0x0000065e      0x247 ./lcd_i2c.o
                                0x378 (size before relaxing)
 .debug_str     0x000008a5       0xf8 ./main.o
                                0x4b0 (size before relaxing)
 .debug_str     0x0000099d      0x4b4 ./uart_fullmodem_test.o
                                0x9d0 (size before relaxing)
 .debug_str     0x00000e51      0x4de ./webserver/emac.o
                                0x6aa (size before relaxing)
 .debug_str     0x0000132f      0x1f3 ./webserver/http-strings.o
                                0x258 (size before relaxing)
 .debug_str     0x00001522      0x376 ./webserver/httpd-cgi.o
                                0x4f6 (size before relaxing)
 .debug_str     0x00001898      0x16e ./webserver/httpd-fs.o
                                0x28e (size before relaxing)
 .debug_str     0x00001a06      0x108 ./webserver/httpd.o
                                0x495 (size before relaxing)
 .debug_str     0x00001b0e      0x109 ./webserver/psock.o
                                0x382 (size before relaxing)
 .debug_str     0x00001c17       0x5d ./webserver/timer.o
                                0x14d (size before relaxing)
 .debug_str     0x00001c74       0xf4 ./webserver/uIP_Task.o
                                0x97c (size before relaxing)
 .debug_str     0x00001d68      0x28c ./webserver/uip.o
                                0x632 (size before relaxing)
 .debug_str     0x00001ff4      0x114 ./webserver/uip_arp.o
                                0x2e1 (size before relaxing)
 .debug_str     0x00002108      0x5d6 ./uip_ftp/Connections.o
                                0x8c3 (size before relaxing)
 .debug_str     0x000026de       0x73 ./uip_ftp/FTPD.o
                                0x57f (size before relaxing)
 .debug_str     0x00002751       0xa1 ./uip_ftp/FTP_Strings.o
                                 0xf9 (size before relaxing)
 .debug_str     0x000027f2       0x73 ./uip_ftp/ftp_main.o
                                0xbba (size before relaxing)
 .debug_str     0x00002865      0x364 ./driver_source/lpc17xx_adc.o
                                0x4b6 (size before relaxing)
 .debug_str     0x00002bc9      0x877 ./driver_source/lpc17xx_can.o
                                0x9ef (size before relaxing)
 .debug_str     0x00003440       0xd5 ./driver_source/lpc17xx_clkpwr.o
                                0x386 (size before relaxing)
 .debug_str     0x00003515      0x138 ./driver_source/lpc17xx_dac.o
                                0x23b (size before relaxing)
 .debug_str     0x0000364d      0x36e ./driver_source/lpc17xx_emac.o
                                0x705 (size before relaxing)
 .debug_str     0x000039bb      0x33d ./driver_source/lpc17xx_gpdma.o
                                0x5db (size before relaxing)
 .debug_str     0x00003cf8      0x30f ./driver_source/lpc17xx_gpio.o
                                0x455 (size before relaxing)
 .debug_str     0x00004007      0x2e0 ./driver_source/lpc17xx_i2c.o
                                0x80d (size before relaxing)
 .debug_str     0x000042e7      0x23c ./driver_source/lpc17xx_i2s.o
                                0x461 (size before relaxing)
 .debug_str     0x00004523       0x3c ./driver_source/lpc17xx_libcfg_default.o
                                0x12e (size before relaxing)
 .debug_str     0x0000455f      0x3fd ./driver_source/lpc17xx_mcpwm.o
                                0x53d (size before relaxing)
 .debug_str     0x0000495c       0x48 ./driver_source/lpc17xx_nvic.o
                                0x1fa (size before relaxing)
 .debug_str     0x000049a4      0x10b ./driver_source/lpc17xx_pinsel.o
                                0x38a (size before relaxing)
 .debug_str     0x00004aaf      0x423 ./driver_source/lpc17xx_pwm.o
                                0x5b1 (size before relaxing)
 .debug_str     0x00004ed2      0x35b ./driver_source/lpc17xx_qei.o
                                0x4bf (size before relaxing)
 .debug_str     0x0000522d       0xe3 ./driver_source/lpc17xx_rit.o
                                0x22c (size before relaxing)
 .debug_str     0x00005310      0x3ad ./driver_source/lpc17xx_rtc.o
                                0x58e (size before relaxing)
 .debug_str     0x000056bd      0x267 ./driver_source/lpc17xx_sd.o
                                0x511 (size before relaxing)
 .debug_str     0x00005924      0x1c8 ./driver_source/lpc17xx_spi.o
                                0x3fd (size before relaxing)
 .debug_str     0x00005aec      0x224 ./driver_source/lpc17xx_ssp.o
                                0x468 (size before relaxing)
 .debug_str     0x00005d10      0x312 ./driver_source/lpc17xx_timer.o
                                0x573 (size before relaxing)
 .debug_str     0x00006022      0x741 ./driver_source/lpc17xx_uart.o
                                0xe5b (size before relaxing)
 .debug_str     0x00006763      0x168 ./driver_source/lpc17xx_wdt.o
                                0x2b5 (size before relaxing)
 .debug_str     0x000068cb      0x124 ./UsbHost/Uart/usbhost_uart.o
                                0xa44 (size before relaxing)
 .debug_str     0x000069ef      0x1f0 ./UsbHost/MassStorage/usbhost_ms.o
                                0x30b (size before relaxing)
 .debug_str     0x00006bdf      0x13f ./UsbHost/Main/usbhost_main.o
                                0x3d4 (size before relaxing)
 .debug_str     0x00006d1e       0xd5 ./UsbHost/Host/usb_ms_diskio.o
                                0x5b0 (size before relaxing)
 .debug_str     0x00006df3      0x5f6 ./UsbHost/Host/usbhost_lpc17xx.o
                                0xc92 (size before relaxing)
 .debug_str     0x000073e9      0x145 ./LPCUSB/USB_CDC.o
                                0x64a (size before relaxing)
 .debug_str     0x0000752e       0xc8 ./LPCUSB/usbcontrol.o
                                0x23f (size before relaxing)
 .debug_str     0x000075f6      0x23e ./LPCUSB/usbhw_lpc.o
                                0x968 (size before relaxing)
 .debug_str     0x00007834       0x43 ./LPCUSB/usbinit.o
                                0x14d (size before relaxing)
 .debug_str     0x00007877      0x164 ./LPCUSB/usbstdreq.o
                                0x2e6 (size before relaxing)
 .debug_str     0x000079db       0x55 ./FatFs/option/cc932.o
                                0x10b (size before relaxing)
 .debug_str     0x00007a30       0x1a ./FatFs/option/syncobj.o
                                 0xc5 (size before relaxing)
 .debug_str     0x00007a4a       0x1a ./FatFs/option/syscall.o
                                 0xf6 (size before relaxing)
 .debug_str     0x00007a64       0x12 ./FatFs/diskio.o
                                0x204 (size before relaxing)
 .debug_str     0x00007a76      0x303 ./FatFs/ff.o
                                0x67d (size before relaxing)
 .debug_str     0x00007d79       0x7b /home/nlv14991/workspaceLPC/STE-LPC1768-/CMSISv1p30_LPC17xx/Debug/libCMSISv1p30_LPC17xx.a(system_LPC17xx.o)
                                0x262 (size before relaxing)
 .debug_str     0x00007df4      0x400 /home/nlv14991/workspaceLPC/STE-LPC1768-/FreeRTOS_Library/Debug/libFreeRTOS_Library.a(queue.o)
                                0x4ea (size before relaxing)
 .debug_str     0x000081f4      0x618 /home/nlv14991/workspaceLPC/STE-LPC1768-/FreeRTOS_Library/Debug/libFreeRTOS_Library.a(tasks.o)
                                0x883 (size before relaxing)
 .debug_str     0x0000880c      0x157 /home/nlv14991/workspaceLPC/STE-LPC1768-/FreeRTOS_Library/Debug/libFreeRTOS_Library.a(heap_2.o)
                                0x25d (size before relaxing)
 .debug_str     0x00008963      0x11a /home/nlv14991/workspaceLPC/STE-LPC1768-/FreeRTOS_Library/Debug/libFreeRTOS_Library.a(port.o)
                                0x22a (size before relaxing)
 .debug_str     0x00008a7d       0x92 /home/nlv14991/workspaceLPC/STE-LPC1768-/FreeRTOS_Library/Debug/libFreeRTOS_Library.a(list.o)
                                0x21d (size before relaxing)
 .debug_str     0x00008b0f       0xa7 /usr/local/lpcxpresso_4.2.3_255/lpcxpresso/tools/bin/../lib/gcc/arm-none-eabi/4.5.1/../../../../arm-none-eabi/lib/thumb2/libcr_newlib_nohost.a(_cr_sbrk.o)
                                0x143 (size before relaxing)
 .debug_str     0x00008bb6       0x1c /usr/local/lpcxpresso_4.2.3_255/lpcxpresso/tools/bin/../lib/gcc/arm-none-eabi/4.5.1/../../../../arm-none-eabi/lib/thumb2/libcr_newlib_nohost.a(close.o)
                                0x107 (size before relaxing)
 .debug_str     0x00008bd2       0xdf /usr/local/lpcxpresso_4.2.3_255/lpcxpresso/tools/bin/../lib/gcc/arm-none-eabi/4.5.1/../../../../arm-none-eabi/lib/thumb2/libcr_newlib_nohost.a(fstat.o)
                                0x1f4 (size before relaxing)
 .debug_str     0x00008cb1       0x18 /usr/local/lpcxpresso_4.2.3_255/lpcxpresso/tools/bin/../lib/gcc/arm-none-eabi/4.5.1/../../../../arm-none-eabi/lib/thumb2/libcr_newlib_nohost.a(isatty.o)
                                0x107 (size before relaxing)
 .debug_str     0x00008cc9        0xf /usr/local/lpcxpresso_4.2.3_255/lpcxpresso/tools/bin/../lib/gcc/arm-none-eabi/4.5.1/../../../../arm-none-eabi/lib/thumb2/libcr_newlib_nohost.a(lseek.o)
                                0x105 (size before relaxing)
 .debug_str     0x00008cd8        0xe /usr/local/lpcxpresso_4.2.3_255/lpcxpresso/tools/bin/../lib/gcc/arm-none-eabi/4.5.1/../../../../arm-none-eabi/lib/thumb2/libcr_newlib_nohost.a(read.o)
                                0x103 (size before relaxing)
 .debug_str     0x00008ce6        0xf /usr/local/lpcxpresso_4.2.3_255/lpcxpresso/tools/bin/../lib/gcc/arm-none-eabi/4.5.1/../../../../arm-none-eabi/lib/thumb2/libcr_newlib_nohost.a(write.o)
                                0x105 (size before relaxing)
 .debug_str     0x00008cf5       0x45 /usr/local/lpcxpresso_4.2.3_255/lpcxpresso/tools/bin/../lib/gcc/arm-none-eabi/4.5.1/../../../../arm-none-eabi/lib/thumb2/libcr_newlib_nohost.a(_cr_check_heap.o)
                                 0xcf (size before relaxing)

.comment        0x00000000       0x2a
 .comment       0x00000000       0x2a ./LedBlinky.o
                                 0x2b (size before relaxing)
 .comment       0x00000000       0x2b ./cr_startup_lpc17.o
 .comment       0x00000000       0x2b ./lcd_i2c.o
 .comment       0x00000000       0x2b ./main.o
 .comment       0x00000000       0x2b ./uart_fullmodem_test.o
 .comment       0x00000000       0x2b ./webserver/emac.o
 .comment       0x00000000       0x2b ./webserver/http-strings.o
 .comment       0x00000000       0x2b ./webserver/httpd-cgi.o
 .comment       0x00000000       0x2b ./webserver/httpd-fs.o
 .comment       0x00000000       0x2b ./webserver/httpd.o
 .comment       0x00000000       0x2b ./webserver/psock.o
 .comment       0x00000000       0x2b ./webserver/timer.o
 .comment       0x00000000       0x2b ./webserver/uIP_Task.o
 .comment       0x00000000       0x2b ./webserver/uip.o
 .comment       0x00000000       0x2b ./webserver/uip_arp.o
 .comment       0x00000000       0x2b ./uip_ftp/Connections.o
 .comment       0x00000000       0x2b ./uip_ftp/FTPD.o
 .comment       0x00000000       0x2b ./uip_ftp/FTP_Strings.o
 .comment       0x00000000       0x2b ./uip_ftp/ftp_main.o
 .comment       0x00000000       0x2b ./driver_source/lpc17xx_adc.o
 .comment       0x00000000       0x2b ./driver_source/lpc17xx_can.o
 .comment       0x00000000       0x2b ./driver_source/lpc17xx_clkpwr.o
 .comment       0x00000000       0x2b ./driver_source/lpc17xx_dac.o
 .comment       0x00000000       0x2b ./driver_source/lpc17xx_emac.o
 .comment       0x00000000       0x2b ./driver_source/lpc17xx_gpdma.o
 .comment       0x00000000       0x2b ./driver_source/lpc17xx_gpio.o
 .comment       0x00000000       0x2b ./driver_source/lpc17xx_i2c.o
 .comment       0x00000000       0x2b ./driver_source/lpc17xx_i2s.o
 .comment       0x00000000       0x2b ./driver_source/lpc17xx_libcfg_default.o
 .comment       0x00000000       0x2b ./driver_source/lpc17xx_mcpwm.o
 .comment       0x00000000       0x2b ./driver_source/lpc17xx_nvic.o
 .comment       0x00000000       0x2b ./driver_source/lpc17xx_pinsel.o
 .comment       0x00000000       0x2b ./driver_source/lpc17xx_pwm.o
 .comment       0x00000000       0x2b ./driver_source/lpc17xx_qei.o
 .comment       0x00000000       0x2b ./driver_source/lpc17xx_rit.o
 .comment       0x00000000       0x2b ./driver_source/lpc17xx_rtc.o
 .comment       0x00000000       0x2b ./driver_source/lpc17xx_sd.o
 .comment       0x00000000       0x2b ./driver_source/lpc17xx_spi.o
 .comment       0x00000000       0x2b ./driver_source/lpc17xx_ssp.o
 .comment       0x00000000       0x2b ./driver_source/lpc17xx_timer.o
 .comment       0x00000000       0x2b ./driver_source/lpc17xx_uart.o
 .comment       0x00000000       0x2b ./driver_source/lpc17xx_wdt.o
 .comment       0x00000000       0x2b ./UsbHost/Uart/usbhost_uart.o
 .comment       0x00000000       0x2b ./UsbHost/MassStorage/usbhost_ms.o
 .comment       0x00000000       0x2b ./UsbHost/Main/usbhost_main.o
 .comment       0x00000000       0x2b ./UsbHost/Host/usb_ms_diskio.o
 .comment       0x00000000       0x2b ./UsbHost/Host/usbhost_lpc17xx.o
 .comment       0x00000000       0x2b ./LPCUSB/USB_CDC.o
 .comment       0x00000000       0x2b ./LPCUSB/usbcontrol.o
 .comment       0x00000000       0x2b ./LPCUSB/usbhw_lpc.o
 .comment       0x00000000       0x2b ./LPCUSB/usbinit.o
 .comment       0x00000000       0x2b ./LPCUSB/usbstdreq.o
 .comment       0x00000000       0x2b ./FatFs/option/cc932.o
 .comment       0x00000000       0x2b ./FatFs/option/syncobj.o
 .comment       0x00000000       0x2b ./FatFs/option/syscall.o
 .comment       0x00000000       0x2b ./FatFs/diskio.o
 .comment       0x00000000       0x2b ./FatFs/ff.o
 .comment       0x00000000       0x2b /home/nlv14991/workspaceLPC/STE-LPC1768-/CMSISv1p30_LPC17xx/Debug/libCMSISv1p30_LPC17xx.a(system_LPC17xx.o)
 .comment       0x00000000       0x2b /home/nlv14991/workspaceLPC/STE-LPC1768-/FreeRTOS_Library/Debug/libFreeRTOS_Library.a(queue.o)
 .comment       0x00000000       0x2b /home/nlv14991/workspaceLPC/STE-LPC1768-/FreeRTOS_Library/Debug/libFreeRTOS_Library.a(tasks.o)
 .comment       0x00000000       0x2b /home/nlv14991/workspaceLPC/STE-LPC1768-/FreeRTOS_Library/Debug/libFreeRTOS_Library.a(heap_2.o)
 .comment       0x00000000       0x2b /home/nlv14991/workspaceLPC/STE-LPC1768-/FreeRTOS_Library/Debug/libFreeRTOS_Library.a(port.o)
 .comment       0x00000000       0x2b /home/nlv14991/workspaceLPC/STE-LPC1768-/FreeRTOS_Library/Debug/libFreeRTOS_Library.a(list.o)
 .comment       0x00000000       0x2b /usr/local/lpcxpresso_4.2.3_255/lpcxpresso/tools/bin/../lib/gcc/arm-none-eabi/4.5.1/../../../../arm-none-eabi/lib/thumb2/libcr_newlib_nohost.a(_cr_sbrk.o)
 .comment       0x00000000       0x2b /usr/local/lpcxpresso_4.2.3_255/lpcxpresso/tools/bin/../lib/gcc/arm-none-eabi/4.5.1/../../../../arm-none-eabi/lib/thumb2/libcr_newlib_nohost.a(close.o)
 .comment       0x00000000       0x2b /usr/local/lpcxpresso_4.2.3_255/lpcxpresso/tools/bin/../lib/gcc/arm-none-eabi/4.5.1/../../../../arm-none-eabi/lib/thumb2/libcr_newlib_nohost.a(fstat.o)
 .comment       0x00000000       0x2b /usr/local/lpcxpresso_4.2.3_255/lpcxpresso/tools/bin/../lib/gcc/arm-none-eabi/4.5.1/../../../../arm-none-eabi/lib/thumb2/libcr_newlib_nohost.a(isatty.o)
 .comment       0x00000000       0x2b /usr/local/lpcxpresso_4.2.3_255/lpcxpresso/tools/bin/../lib/gcc/arm-none-eabi/4.5.1/../../../../arm-none-eabi/lib/thumb2/libcr_newlib_nohost.a(lseek.o)
 .comment       0x00000000       0x2b /usr/local/lpcxpresso_4.2.3_255/lpcxpresso/tools/bin/../lib/gcc/arm-none-eabi/4.5.1/../../../../arm-none-eabi/lib/thumb2/libcr_newlib_nohost.a(read.o)
 .comment       0x00000000       0x2b /usr/local/lpcxpresso_4.2.3_255/lpcxpresso/tools/bin/../lib/gcc/arm-none-eabi/4.5.1/../../../../arm-none-eabi/lib/thumb2/libcr_newlib_nohost.a(write.o)
 .comment       0x00000000       0x2b /usr/local/lpcxpresso_4.2.3_255/lpcxpresso/tools/bin/../lib/gcc/arm-none-eabi/4.5.1/../../../../arm-none-eabi/lib/thumb2/libcr_newlib_nohost.a(_cr_check_heap.o)

.ARM.attributes
                0x00000000       0x31
 .ARM.attributes
                0x00000000       0x31 ./LedBlinky.o
 .ARM.attributes
                0x00000031       0x31 ./cr_startup_lpc17.o
 .ARM.attributes
                0x00000062       0x31 ./lcd_i2c.o
 .ARM.attributes
                0x00000093       0x31 ./main.o
 .ARM.attributes
                0x000000c4       0x31 ./uart_fullmodem_test.o
 .ARM.attributes
                0x000000f5       0x31 ./webserver/emac.o
 .ARM.attributes
                0x00000126       0x31 ./webserver/http-strings.o
 .ARM.attributes
                0x00000157       0x31 ./webserver/httpd-cgi.o
 .ARM.attributes
                0x00000188       0x31 ./webserver/httpd-fs.o
 .ARM.attributes
                0x000001b9       0x31 ./webserver/httpd.o
 .ARM.attributes
                0x000001ea       0x31 ./webserver/psock.o
 .ARM.attributes
                0x0000021b       0x31 ./webserver/timer.o
 .ARM.attributes
                0x0000024c       0x31 ./webserver/uIP_Task.o
 .ARM.attributes
                0x0000027d       0x31 ./webserver/uip.o
 .ARM.attributes
                0x000002ae       0x31 ./webserver/uip_arp.o
 .ARM.attributes
                0x000002df       0x31 ./uip_ftp/Connections.o
 .ARM.attributes
                0x00000310       0x31 ./uip_ftp/FTPD.o
 .ARM.attributes
                0x00000341       0x31 ./uip_ftp/FTP_Strings.o
 .ARM.attributes
                0x00000372       0x31 ./uip_ftp/ftp_main.o
 .ARM.attributes
                0x000003a3       0x31 ./driver_source/lpc17xx_adc.o
 .ARM.attributes
                0x000003d4       0x31 ./driver_source/lpc17xx_can.o
 .ARM.attributes
                0x00000405       0x31 ./driver_source/lpc17xx_clkpwr.o
 .ARM.attributes
                0x00000436       0x31 ./driver_source/lpc17xx_dac.o
 .ARM.attributes
                0x00000467       0x31 ./driver_source/lpc17xx_emac.o
 .ARM.attributes
                0x00000498       0x31 ./driver_source/lpc17xx_gpdma.o
 .ARM.attributes
                0x000004c9       0x31 ./driver_source/lpc17xx_gpio.o
 .ARM.attributes
                0x000004fa       0x31 ./driver_source/lpc17xx_i2c.o
 .ARM.attributes
                0x0000052b       0x31 ./driver_source/lpc17xx_i2s.o
 .ARM.attributes
                0x0000055c       0x31 ./driver_source/lpc17xx_libcfg_default.o
 .ARM.attributes
                0x0000058d       0x31 ./driver_source/lpc17xx_mcpwm.o
 .ARM.attributes
                0x000005be       0x31 ./driver_source/lpc17xx_nvic.o
 .ARM.attributes
                0x000005ef       0x31 ./driver_source/lpc17xx_pinsel.o
 .ARM.attributes
                0x00000620       0x31 ./driver_source/lpc17xx_pwm.o
 .ARM.attributes
                0x00000651       0x31 ./driver_source/lpc17xx_qei.o
 .ARM.attributes
                0x00000682       0x31 ./driver_source/lpc17xx_rit.o
 .ARM.attributes
                0x000006b3       0x31 ./driver_source/lpc17xx_rtc.o
 .ARM.attributes
                0x000006e4       0x31 ./driver_source/lpc17xx_sd.o
 .ARM.attributes
                0x00000715       0x31 ./driver_source/lpc17xx_spi.o
 .ARM.attributes
                0x00000746       0x31 ./driver_source/lpc17xx_ssp.o
 .ARM.attributes
                0x00000777       0x31 ./driver_source/lpc17xx_timer.o
 .ARM.attributes
                0x000007a8       0x31 ./driver_source/lpc17xx_uart.o
 .ARM.attributes
                0x000007d9       0x31 ./driver_source/lpc17xx_wdt.o
 .ARM.attributes
                0x0000080a       0x31 ./UsbHost/Uart/usbhost_uart.o
 .ARM.attributes
                0x0000083b       0x31 ./UsbHost/MassStorage/usbhost_ms.o
 .ARM.attributes
                0x0000086c       0x31 ./UsbHost/Main/usbhost_main.o
 .ARM.attributes
                0x0000089d       0x31 ./UsbHost/Host/usb_ms_diskio.o
 .ARM.attributes
                0x000008ce       0x31 ./UsbHost/Host/usbhost_lpc17xx.o
 .ARM.attributes
                0x000008ff       0x31 ./LPCUSB/USB_CDC.o
 .ARM.attributes
                0x00000930       0x31 ./LPCUSB/usbcontrol.o
 .ARM.attributes
                0x00000961       0x31 ./LPCUSB/usbhw_lpc.o
 .ARM.attributes
                0x00000992       0x31 ./LPCUSB/usbinit.o
 .ARM.attributes
                0x000009c3       0x31 ./LPCUSB/usbstdreq.o
 .ARM.attributes
                0x000009f4       0x31 ./FatFs/option/cc932.o
 .ARM.attributes
                0x00000a25       0x31 ./FatFs/option/syncobj.o
 .ARM.attributes
                0x00000a56       0x31 ./FatFs/option/syscall.o
 .ARM.attributes
                0x00000a87       0x31 ./FatFs/diskio.o
 .ARM.attributes
                0x00000ab8       0x31 ./FatFs/ff.o
 .ARM.attributes
                0x00000ae9       0x31 /home/nlv14991/workspaceLPC/STE-LPC1768-/CMSISv1p30_LPC17xx/Debug/libCMSISv1p30_LPC17xx.a(system_LPC17xx.o)
 .ARM.attributes
                0x00000b1a       0x31 /home/nlv14991/workspaceLPC/STE-LPC1768-/FreeRTOS_Library/Debug/libFreeRTOS_Library.a(queue.o)
 .ARM.attributes
                0x00000b4b       0x31 /home/nlv14991/workspaceLPC/STE-LPC1768-/FreeRTOS_Library/Debug/libFreeRTOS_Library.a(tasks.o)
 .ARM.attributes
                0x00000b7c       0x31 /home/nlv14991/workspaceLPC/STE-LPC1768-/FreeRTOS_Library/Debug/libFreeRTOS_Library.a(heap_2.o)
 .ARM.attributes
                0x00000bad       0x31 /home/nlv14991/workspaceLPC/STE-LPC1768-/FreeRTOS_Library/Debug/libFreeRTOS_Library.a(port.o)
 .ARM.attributes
                0x00000bde       0x31 /home/nlv14991/workspaceLPC/STE-LPC1768-/FreeRTOS_Library/Debug/libFreeRTOS_Library.a(list.o)
 .ARM.attributes
                0x00000c0f       0x1b /usr/local/lpcxpresso_4.2.3_255/lpcxpresso/tools/bin/../lib/gcc/arm-none-eabi/4.5.1/thumb2/libgcc.a(_aeabi_uldivmod.o)
 .ARM.attributes
                0x00000c2a       0x29 /usr/local/lpcxpresso_4.2.3_255/lpcxpresso/tools/bin/../lib/gcc/arm-none-eabi/4.5.1/thumb2/libgcc.a(bpabi.o)
 .ARM.attributes
                0x00000c53       0x1b /usr/local/lpcxpresso_4.2.3_255/lpcxpresso/tools/bin/../lib/gcc/arm-none-eabi/4.5.1/thumb2/libgcc.a(_dvmd_tls.o)
 .ARM.attributes
                0x00000c6e       0x29 /usr/local/lpcxpresso_4.2.3_255/lpcxpresso/tools/bin/../lib/gcc/arm-none-eabi/4.5.1/thumb2/libgcc.a(_divdi3.o)
 .ARM.attributes
                0x00000c97       0x29 /usr/local/lpcxpresso_4.2.3_255/lpcxpresso/tools/bin/../lib/gcc/arm-none-eabi/4.5.1/thumb2/libgcc.a(_udivdi3.o)
 .ARM.attributes
                0x00000cc0       0x1b /usr/local/lpcxpresso_4.2.3_255/lpcxpresso/tools/bin/../lib/gcc/arm-none-eabi/4.5.1/thumb2/libgcc.a(_udivsi3.o)
 .ARM.attributes
                0x00000cdb       0x29 /usr/local/lpcxpresso_4.2.3_255/lpcxpresso/tools/bin/../lib/gcc/arm-none-eabi/4.5.1/../../../../arm-none-eabi/lib/thumb2/libc.a(lib_a-memcmp.o)
 .ARM.attributes
                0x00000d04       0x29 /usr/local/lpcxpresso_4.2.3_255/lpcxpresso/tools/bin/../lib/gcc/arm-none-eabi/4.5.1/../../../../arm-none-eabi/lib/thumb2/libc.a(lib_a-memcpy.o)
 .ARM.attributes
                0x00000d2d       0x29 /usr/local/lpcxpresso_4.2.3_255/lpcxpresso/tools/bin/../lib/gcc/arm-none-eabi/4.5.1/../../../../arm-none-eabi/lib/thumb2/libc.a(lib_a-memset.o)
 .ARM.attributes
                0x00000d56       0x29 /usr/local/lpcxpresso_4.2.3_255/lpcxpresso/tools/bin/../lib/gcc/arm-none-eabi/4.5.1/../../../../arm-none-eabi/lib/thumb2/libc.a(lib_a-printf.o)
 .ARM.attributes
                0x00000d7f       0x29 /usr/local/lpcxpresso_4.2.3_255/lpcxpresso/tools/bin/../lib/gcc/arm-none-eabi/4.5.1/../../../../arm-none-eabi/lib/thumb2/libc.a(lib_a-snprintf.o)
 .ARM.attributes
                0x00000da8       0x29 /usr/local/lpcxpresso_4.2.3_255/lpcxpresso/tools/bin/../lib/gcc/arm-none-eabi/4.5.1/../../../../arm-none-eabi/lib/thumb2/libc.a(lib_a-sprintf.o)
 .ARM.attributes
                0x00000dd1       0x29 /usr/local/lpcxpresso_4.2.3_255/lpcxpresso/tools/bin/../lib/gcc/arm-none-eabi/4.5.1/../../../../arm-none-eabi/lib/thumb2/libc.a(lib_a-sscanf.o)
 .ARM.attributes
                0x00000dfa       0x29 /usr/local/lpcxpresso_4.2.3_255/lpcxpresso/tools/bin/../lib/gcc/arm-none-eabi/4.5.1/../../../../arm-none-eabi/lib/thumb2/libc.a(lib_a-stdio.o)
 .ARM.attributes
                0x00000e23       0x29 /usr/local/lpcxpresso_4.2.3_255/lpcxpresso/tools/bin/../lib/gcc/arm-none-eabi/4.5.1/../../../../arm-none-eabi/lib/thumb2/libc.a(lib_a-strcat.o)
 .ARM.attributes
                0x00000e4c       0x29 /usr/local/lpcxpresso_4.2.3_255/lpcxpresso/tools/bin/../lib/gcc/arm-none-eabi/4.5.1/../../../../arm-none-eabi/lib/thumb2/libc.a(lib_a-strchr.o)
 .ARM.attributes
                0x00000e75       0x29 /usr/local/lpcxpresso_4.2.3_255/lpcxpresso/tools/bin/../lib/gcc/arm-none-eabi/4.5.1/../../../../arm-none-eabi/lib/thumb2/libc.a(lib_a-strcmp.o)
 .ARM.attributes
                0x00000e9e       0x29 /usr/local/lpcxpresso_4.2.3_255/lpcxpresso/tools/bin/../lib/gcc/arm-none-eabi/4.5.1/../../../../arm-none-eabi/lib/thumb2/libc.a(lib_a-strcpy.o)
 .ARM.attributes
                0x00000ec7       0x29 /usr/local/lpcxpresso_4.2.3_255/lpcxpresso/tools/bin/../lib/gcc/arm-none-eabi/4.5.1/../../../../arm-none-eabi/lib/thumb2/libc.a(lib_a-strlen.o)
 .ARM.attributes
                0x00000ef0       0x29 /usr/local/lpcxpresso_4.2.3_255/lpcxpresso/tools/bin/../lib/gcc/arm-none-eabi/4.5.1/../../../../arm-none-eabi/lib/thumb2/libc.a(lib_a-strncmp.o)
 .ARM.attributes
                0x00000f19       0x29 /usr/local/lpcxpresso_4.2.3_255/lpcxpresso/tools/bin/../lib/gcc/arm-none-eabi/4.5.1/../../../../arm-none-eabi/lib/thumb2/libc.a(lib_a-strncpy.o)
 .ARM.attributes
                0x00000f42       0x29 /usr/local/lpcxpresso_4.2.3_255/lpcxpresso/tools/bin/../lib/gcc/arm-none-eabi/4.5.1/../../../../arm-none-eabi/lib/thumb2/libc.a(lib_a-strrchr.o)
 .ARM.attributes
                0x00000f6b       0x29 /usr/local/lpcxpresso_4.2.3_255/lpcxpresso/tools/bin/../lib/gcc/arm-none-eabi/4.5.1/../../../../arm-none-eabi/lib/thumb2/libc.a(lib_a-strstr.o)
 .ARM.attributes
                0x00000f94       0x29 /usr/local/lpcxpresso_4.2.3_255/lpcxpresso/tools/bin/../lib/gcc/arm-none-eabi/4.5.1/../../../../arm-none-eabi/lib/thumb2/libc.a(lib_a-svfprintf.o)
 .ARM.attributes
                0x00000fbd       0x29 /usr/local/lpcxpresso_4.2.3_255/lpcxpresso/tools/bin/../lib/gcc/arm-none-eabi/4.5.1/../../../../arm-none-eabi/lib/thumb2/libc.a(lib_a-svfscanf.o)
 .ARM.attributes
                0x00000fe6       0x29 /usr/local/lpcxpresso_4.2.3_255/lpcxpresso/tools/bin/../lib/gcc/arm-none-eabi/4.5.1/../../../../arm-none-eabi/lib/thumb2/libc.a(lib_a-vfprintf.o)
 .ARM.attributes
                0x0000100f       0x29 /usr/local/lpcxpresso_4.2.3_255/lpcxpresso/tools/bin/../lib/gcc/arm-none-eabi/4.5.1/../../../../arm-none-eabi/lib/thumb2/libc.a(lib_a-vsprintf.o)
 .ARM.attributes
                0x00001038       0x29 /usr/local/lpcxpresso_4.2.3_255/lpcxpresso/tools/bin/../lib/gcc/arm-none-eabi/4.5.1/../../../../arm-none-eabi/lib/thumb2/libc.a(lib_a-writer.o)
 .ARM.attributes
                0x00001061       0x29 /usr/local/lpcxpresso_4.2.3_255/lpcxpresso/tools/bin/../lib/gcc/arm-none-eabi/4.5.1/../../../../arm-none-eabi/lib/thumb2/libc.a(lib_a-wsetup.o)
 .ARM.attributes
                0x0000108a       0x29 /usr/local/lpcxpresso_4.2.3_255/lpcxpresso/tools/bin/../lib/gcc/arm-none-eabi/4.5.1/../../../../arm-none-eabi/lib/thumb2/libc.a(lib_a-closer.o)
 .ARM.attributes
                0x000010b3       0x29 /usr/local/lpcxpresso_4.2.3_255/lpcxpresso/tools/bin/../lib/gcc/arm-none-eabi/4.5.1/../../../../arm-none-eabi/lib/thumb2/libc.a(lib_a-ctype_.o)
 .ARM.attributes
                0x000010dc       0x29 /usr/local/lpcxpresso_4.2.3_255/lpcxpresso/tools/bin/../lib/gcc/arm-none-eabi/4.5.1/../../../../arm-none-eabi/lib/thumb2/libc.a(lib_a-dtoa.o)
 .ARM.attributes
                0x00001105       0x29 /usr/local/lpcxpresso_4.2.3_255/lpcxpresso/tools/bin/../lib/gcc/arm-none-eabi/4.5.1/../../../../arm-none-eabi/lib/thumb2/libc.a(lib_a-fflush.o)
 .ARM.attributes
                0x0000112e       0x29 /usr/local/lpcxpresso_4.2.3_255/lpcxpresso/tools/bin/../lib/gcc/arm-none-eabi/4.5.1/../../../../arm-none-eabi/lib/thumb2/libc.a(lib_a-findfp.o)
 .ARM.attributes
                0x00001157       0x29 /usr/local/lpcxpresso_4.2.3_255/lpcxpresso/tools/bin/../lib/gcc/arm-none-eabi/4.5.1/../../../../arm-none-eabi/lib/thumb2/libc.a(lib_a-freer.o)
 .ARM.attributes
                0x00001180       0x29 /usr/local/lpcxpresso_4.2.3_255/lpcxpresso/tools/bin/../lib/gcc/arm-none-eabi/4.5.1/../../../../arm-none-eabi/lib/thumb2/libc.a(lib_a-fwalk.o)
 .ARM.attributes
                0x000011a9       0x29 /usr/local/lpcxpresso_4.2.3_255/lpcxpresso/tools/bin/../lib/gcc/arm-none-eabi/4.5.1/../../../../arm-none-eabi/lib/thumb2/libc.a(lib_a-impure.o)
 .ARM.attributes
                0x000011d2       0x29 /usr/local/lpcxpresso_4.2.3_255/lpcxpresso/tools/bin/../lib/gcc/arm-none-eabi/4.5.1/../../../../arm-none-eabi/lib/thumb2/libc.a(lib_a-iswspace.o)
 .ARM.attributes
                0x000011fb       0x29 /usr/local/lpcxpresso_4.2.3_255/lpcxpresso/tools/bin/../lib/gcc/arm-none-eabi/4.5.1/../../../../arm-none-eabi/lib/thumb2/libc.a(lib_a-locale.o)
 .ARM.attributes
                0x00001224       0x29 /usr/local/lpcxpresso_4.2.3_255/lpcxpresso/tools/bin/../lib/gcc/arm-none-eabi/4.5.1/../../../../arm-none-eabi/lib/thumb2/libc.a(lib_a-lseekr.o)
 .ARM.attributes
                0x0000124d       0x29 /usr/local/lpcxpresso_4.2.3_255/lpcxpresso/tools/bin/../lib/gcc/arm-none-eabi/4.5.1/../../../../arm-none-eabi/lib/thumb2/libc.a(lib_a-makebuf.o)
 .ARM.attributes
                0x00001276       0x29 /usr/local/lpcxpresso_4.2.3_255/lpcxpresso/tools/bin/../lib/gcc/arm-none-eabi/4.5.1/../../../../arm-none-eabi/lib/thumb2/libc.a(lib_a-malloc.o)
 .ARM.attributes
                0x0000129f       0x29 /usr/local/lpcxpresso_4.2.3_255/lpcxpresso/tools/bin/../lib/gcc/arm-none-eabi/4.5.1/../../../../arm-none-eabi/lib/thumb2/libc.a(lib_a-mallocr.o)
 .ARM.attributes
                0x000012c8       0x29 /usr/local/lpcxpresso_4.2.3_255/lpcxpresso/tools/bin/../lib/gcc/arm-none-eabi/4.5.1/../../../../arm-none-eabi/lib/thumb2/libc.a(lib_a-mbrtowc.o)
 .ARM.attributes
                0x000012f1       0x29 /usr/local/lpcxpresso_4.2.3_255/lpcxpresso/tools/bin/../lib/gcc/arm-none-eabi/4.5.1/../../../../arm-none-eabi/lib/thumb2/libc.a(lib_a-mbtowc_r.o)
 .ARM.attributes
                0x0000131a       0x29 /usr/local/lpcxpresso_4.2.3_255/lpcxpresso/tools/bin/../lib/gcc/arm-none-eabi/4.5.1/../../../../arm-none-eabi/lib/thumb2/libc.a(lib_a-memchr.o)
 .ARM.attributes
                0x00001343       0x29 /usr/local/lpcxpresso_4.2.3_255/lpcxpresso/tools/bin/../lib/gcc/arm-none-eabi/4.5.1/../../../../arm-none-eabi/lib/thumb2/libc.a(lib_a-mlock.o)
 .ARM.attributes
                0x0000136c       0x29 /usr/local/lpcxpresso_4.2.3_255/lpcxpresso/tools/bin/../lib/gcc/arm-none-eabi/4.5.1/../../../../arm-none-eabi/lib/thumb2/libc.a(lib_a-mprec.o)
 .ARM.attributes
                0x00001395       0x29 /usr/local/lpcxpresso_4.2.3_255/lpcxpresso/tools/bin/../lib/gcc/arm-none-eabi/4.5.1/../../../../arm-none-eabi/lib/thumb2/libc.a(lib_a-readr.o)
 .ARM.attributes
                0x000013be       0x29 /usr/local/lpcxpresso_4.2.3_255/lpcxpresso/tools/bin/../lib/gcc/arm-none-eabi/4.5.1/../../../../arm-none-eabi/lib/thumb2/libc.a(lib_a-reent.o)
 .ARM.attributes
                0x000013e7       0x29 /usr/local/lpcxpresso_4.2.3_255/lpcxpresso/tools/bin/../lib/gcc/arm-none-eabi/4.5.1/../../../../arm-none-eabi/lib/thumb2/libc.a(lib_a-s_fpclassify.o)
 .ARM.attributes
                0x00001410       0x29 /usr/local/lpcxpresso_4.2.3_255/lpcxpresso/tools/bin/../lib/gcc/arm-none-eabi/4.5.1/../../../../arm-none-eabi/lib/thumb2/libc.a(lib_a-sbrkr.o)
 .ARM.attributes
                0x00001439       0x29 /usr/local/lpcxpresso_4.2.3_255/lpcxpresso/tools/bin/../lib/gcc/arm-none-eabi/4.5.1/../../../../arm-none-eabi/lib/thumb2/libc.a(lib_a-sccl.o)
 .ARM.attributes
                0x00001462       0x29 /usr/local/lpcxpresso_4.2.3_255/lpcxpresso/tools/bin/../lib/gcc/arm-none-eabi/4.5.1/../../../../arm-none-eabi/lib/thumb2/libc.a(lib_a-sf_nan.o)
 .ARM.attributes
                0x0000148b       0x29 /usr/local/lpcxpresso_4.2.3_255/lpcxpresso/tools/bin/../lib/gcc/arm-none-eabi/4.5.1/../../../../arm-none-eabi/lib/thumb2/libc.a(lib_a-strtod.o)
 .ARM.attributes
                0x000014b4       0x29 /usr/local/lpcxpresso_4.2.3_255/lpcxpresso/tools/bin/../lib/gcc/arm-none-eabi/4.5.1/../../../../arm-none-eabi/lib/thumb2/libc.a(lib_a-strtol.o)
 .ARM.attributes
                0x000014dd       0x29 /usr/local/lpcxpresso_4.2.3_255/lpcxpresso/tools/bin/../lib/gcc/arm-none-eabi/4.5.1/../../../../arm-none-eabi/lib/thumb2/libc.a(lib_a-strtoll_r.o)
 .ARM.attributes
                0x00001506       0x29 /usr/local/lpcxpresso_4.2.3_255/lpcxpresso/tools/bin/../lib/gcc/arm-none-eabi/4.5.1/../../../../arm-none-eabi/lib/thumb2/libc.a(lib_a-strtoul.o)
 .ARM.attributes
                0x0000152f       0x29 /usr/local/lpcxpresso_4.2.3_255/lpcxpresso/tools/bin/../lib/gcc/arm-none-eabi/4.5.1/../../../../arm-none-eabi/lib/thumb2/libc.a(lib_a-strtoull_r.o)
 .ARM.attributes
                0x00001558       0x29 /usr/local/lpcxpresso_4.2.3_255/lpcxpresso/tools/bin/../lib/gcc/arm-none-eabi/4.5.1/../../../../arm-none-eabi/lib/thumb2/libc.a(lib_a-svfiprintf.o)
 .ARM.attributes
                0x00001581       0x29 /usr/local/lpcxpresso_4.2.3_255/lpcxpresso/tools/bin/../lib/gcc/arm-none-eabi/4.5.1/../../../../arm-none-eabi/lib/thumb2/libc.a(lib_a-svfiscanf.o)
 .ARM.attributes
                0x000015aa       0x29 /usr/local/lpcxpresso_4.2.3_255/lpcxpresso/tools/bin/../lib/gcc/arm-none-eabi/4.5.1/../../../../arm-none-eabi/lib/thumb2/libc.a(lib_a-ungetc.o)
 .ARM.attributes
                0x000015d3       0x29 /usr/local/lpcxpresso_4.2.3_255/lpcxpresso/tools/bin/../lib/gcc/arm-none-eabi/4.5.1/../../../../arm-none-eabi/lib/thumb2/libc.a(lib_a-vfiprintf.o)
 .ARM.attributes
                0x000015fc       0x29 /usr/local/lpcxpresso_4.2.3_255/lpcxpresso/tools/bin/../lib/gcc/arm-none-eabi/4.5.1/../../../../arm-none-eabi/lib/thumb2/libc.a(lib_a-callocr.o)
 .ARM.attributes
                0x00001625       0x29 /usr/local/lpcxpresso_4.2.3_255/lpcxpresso/tools/bin/../lib/gcc/arm-none-eabi/4.5.1/../../../../arm-none-eabi/lib/thumb2/libc.a(lib_a-fclose.o)
 .ARM.attributes
                0x0000164e       0x29 /usr/local/lpcxpresso_4.2.3_255/lpcxpresso/tools/bin/../lib/gcc/arm-none-eabi/4.5.1/../../../../arm-none-eabi/lib/thumb2/libc.a(lib_a-fputwc.o)
 .ARM.attributes
                0x00001677       0x29 /usr/local/lpcxpresso_4.2.3_255/lpcxpresso/tools/bin/../lib/gcc/arm-none-eabi/4.5.1/../../../../arm-none-eabi/lib/thumb2/libc.a(lib_a-fstatr.o)
 .ARM.attributes
                0x000016a0       0x29 /usr/local/lpcxpresso_4.2.3_255/lpcxpresso/tools/bin/../lib/gcc/arm-none-eabi/4.5.1/../../../../arm-none-eabi/lib/thumb2/libc.a(lib_a-fvwrite.o)
 .ARM.attributes
                0x000016c9       0x29 /usr/local/lpcxpresso_4.2.3_255/lpcxpresso/tools/bin/../lib/gcc/arm-none-eabi/4.5.1/../../../../arm-none-eabi/lib/thumb2/libc.a(lib_a-gdtoa-gethex.o)
 .ARM.attributes
                0x000016f2       0x29 /usr/local/lpcxpresso_4.2.3_255/lpcxpresso/tools/bin/../lib/gcc/arm-none-eabi/4.5.1/../../../../arm-none-eabi/lib/thumb2/libc.a(lib_a-gdtoa-hexnan.o)
 .ARM.attributes
                0x0000171b       0x29 /usr/local/lpcxpresso_4.2.3_255/lpcxpresso/tools/bin/../lib/gcc/arm-none-eabi/4.5.1/../../../../arm-none-eabi/lib/thumb2/libc.a(lib_a-isattyr.o)
 .ARM.attributes
                0x00001744       0x29 /usr/local/lpcxpresso_4.2.3_255/lpcxpresso/tools/bin/../lib/gcc/arm-none-eabi/4.5.1/../../../../arm-none-eabi/lib/thumb2/libc.a(lib_a-memmove.o)
 .ARM.attributes
                0x0000176d       0x29 /usr/local/lpcxpresso_4.2.3_255/lpcxpresso/tools/bin/../lib/gcc/arm-none-eabi/4.5.1/../../../../arm-none-eabi/lib/thumb2/libc.a(lib_a-reallocr.o)
 .ARM.attributes
                0x00001796       0x29 /usr/local/lpcxpresso_4.2.3_255/lpcxpresso/tools/bin/../lib/gcc/arm-none-eabi/4.5.1/../../../../arm-none-eabi/lib/thumb2/libc.a(lib_a-wbuf.o)
 .ARM.attributes
                0x000017bf       0x29 /usr/local/lpcxpresso_4.2.3_255/lpcxpresso/tools/bin/../lib/gcc/arm-none-eabi/4.5.1/../../../../arm-none-eabi/lib/thumb2/libc.a(lib_a-wcrtomb.o)
 .ARM.attributes
                0x000017e8       0x29 /usr/local/lpcxpresso_4.2.3_255/lpcxpresso/tools/bin/../lib/gcc/arm-none-eabi/4.5.1/../../../../arm-none-eabi/lib/thumb2/libc.a(lib_a-wctomb_r.o)
 .ARM.attributes
                0x00001811       0x31 /usr/local/lpcxpresso_4.2.3_255/lpcxpresso/tools/bin/../lib/gcc/arm-none-eabi/4.5.1/../../../../arm-none-eabi/lib/thumb2/libcr_newlib_nohost.a(_cr_sbrk.o)
 .ARM.attributes
                0x00001842       0x31 /usr/local/lpcxpresso_4.2.3_255/lpcxpresso/tools/bin/../lib/gcc/arm-none-eabi/4.5.1/../../../../arm-none-eabi/lib/thumb2/libcr_newlib_nohost.a(close.o)
 .ARM.attributes
                0x00001873       0x31 /usr/local/lpcxpresso_4.2.3_255/lpcxpresso/tools/bin/../lib/gcc/arm-none-eabi/4.5.1/../../../../arm-none-eabi/lib/thumb2/libcr_newlib_nohost.a(fstat.o)
 .ARM.attributes
                0x000018a4       0x31 /usr/local/lpcxpresso_4.2.3_255/lpcxpresso/tools/bin/../lib/gcc/arm-none-eabi/4.5.1/../../../../arm-none-eabi/lib/thumb2/libcr_newlib_nohost.a(isatty.o)
 .ARM.attributes
                0x000018d5       0x31 /usr/local/lpcxpresso_4.2.3_255/lpcxpresso/tools/bin/../lib/gcc/arm-none-eabi/4.5.1/../../../../arm-none-eabi/lib/thumb2/libcr_newlib_nohost.a(lseek.o)
 .ARM.attributes
                0x00001906       0x31 /usr/local/lpcxpresso_4.2.3_255/lpcxpresso/tools/bin/../lib/gcc/arm-none-eabi/4.5.1/../../../../arm-none-eabi/lib/thumb2/libcr_newlib_nohost.a(read.o)
 .ARM.attributes
                0x00001937       0x31 /usr/local/lpcxpresso_4.2.3_255/lpcxpresso/tools/bin/../lib/gcc/arm-none-eabi/4.5.1/../../../../arm-none-eabi/lib/thumb2/libcr_newlib_nohost.a(write.o)
 .ARM.attributes
                0x00001968       0x31 /usr/local/lpcxpresso_4.2.3_255/lpcxpresso/tools/bin/../lib/gcc/arm-none-eabi/4.5.1/../../../../arm-none-eabi/lib/thumb2/libcr_newlib_nohost.a(_cr_check_heap.o)
 .ARM.attributes
                0x00001999       0x1b /usr/local/lpcxpresso_4.2.3_255/lpcxpresso/tools/bin/../lib/gcc/arm-none-eabi/4.5.1/thumb2/libgcc.a(_arm_addsubdf3.o)
 .ARM.attributes
                0x000019b4       0x1b /usr/local/lpcxpresso_4.2.3_255/lpcxpresso/tools/bin/../lib/gcc/arm-none-eabi/4.5.1/thumb2/libgcc.a(_arm_muldivdf3.o)
 .ARM.attributes
                0x000019cf       0x1b /usr/local/lpcxpresso_4.2.3_255/lpcxpresso/tools/bin/../lib/gcc/arm-none-eabi/4.5.1/thumb2/libgcc.a(_arm_cmpdf2.o)
 .ARM.attributes
                0x000019ea       0x1b /usr/local/lpcxpresso_4.2.3_255/lpcxpresso/tools/bin/../lib/gcc/arm-none-eabi/4.5.1/thumb2/libgcc.a(_arm_fixdfsi.o)
 .ARM.attributes
                0x00001a05       0x1b /usr/local/lpcxpresso_4.2.3_255/lpcxpresso/tools/bin/../lib/gcc/arm-none-eabi/4.5.1/thumb2/libgcc.a(_arm_fixunsdfsi.o)
 .ARM.attributes
                0x00001a20       0x1b /usr/local/lpcxpresso_4.2.3_255/lpcxpresso/tools/bin/../lib/gcc/arm-none-eabi/4.5.1/thumb2/libgcc.a(_arm_truncdfsf2.o)
 .ARM.attributes
                0x00001a3b       0x1b /usr/local/lpcxpresso_4.2.3_255/lpcxpresso/tools/bin/../lib/gcc/arm-none-eabi/4.5.1/thumb2/libgcc.a(_arm_cmpsf2.o)
 .ARM.attributes
                0x00001a56       0x29 /usr/local/lpcxpresso_4.2.3_255/lpcxpresso/tools/bin/../lib/gcc/arm-none-eabi/4.5.1/../../../../arm-none-eabi/lib/thumb2/libc.a(lib_a-errno.o)

.debug_frame    0x00000000     0x5d20
 .debug_frame   0x00000000       0x70 ./LedBlinky.o
 .debug_frame   0x00000070      0x104 ./cr_startup_lpc17.o
 .debug_frame   0x00000174       0xec ./lcd_i2c.o
 .debug_frame   0x00000260       0x94 ./main.o
 .debug_frame   0x000002f4      0x118 ./uart_fullmodem_test.o
 .debug_frame   0x0000040c       0x9c ./webserver/emac.o
 .debug_frame   0x000004a8      0x1b0 ./webserver/httpd-cgi.o
 .debug_frame   0x00000658       0x58 ./webserver/httpd-fs.o
 .debug_frame   0x000006b0       0xc0 ./webserver/httpd.o
 .debug_frame   0x00000770       0xd8 ./webserver/psock.o
 .debug_frame   0x00000848       0x68 ./webserver/timer.o
 .debug_frame   0x000008b0       0x80 ./webserver/uIP_Task.o
 .debug_frame   0x00000930      0x194 ./webserver/uip.o
 .debug_frame   0x00000ac4       0xbc ./webserver/uip_arp.o
 .debug_frame   0x00000b80      0x400 ./uip_ftp/Connections.o
 .debug_frame   0x00000f80       0x4c ./uip_ftp/FTPD.o
 .debug_frame   0x00000fcc       0x70 ./uip_ftp/ftp_main.o
 .debug_frame   0x0000103c      0x168 ./driver_source/lpc17xx_adc.o
 .debug_frame   0x000011a4      0x264 ./driver_source/lpc17xx_can.o
 .debug_frame   0x00001408       0x90 ./driver_source/lpc17xx_clkpwr.o
 .debug_frame   0x00001498       0x94 ./driver_source/lpc17xx_dac.o
 .debug_frame   0x0000152c      0x1f4 ./driver_source/lpc17xx_emac.o
 .debug_frame   0x00001720       0x7c ./driver_source/lpc17xx_gpdma.o
 .debug_frame   0x0000179c      0x160 ./driver_source/lpc17xx_gpio.o
 .debug_frame   0x000018fc      0x1c0 ./driver_source/lpc17xx_i2c.o
 .debug_frame   0x00001abc      0x238 ./driver_source/lpc17xx_i2s.o
 .debug_frame   0x00001cf4       0x20 ./driver_source/lpc17xx_libcfg_default.o
 .debug_frame   0x00001d14      0x12c ./driver_source/lpc17xx_mcpwm.o
 .debug_frame   0x00001e40       0x58 ./driver_source/lpc17xx_nvic.o
 .debug_frame   0x00001e98       0x90 ./driver_source/lpc17xx_pinsel.o
 .debug_frame   0x00001f28      0x18c ./driver_source/lpc17xx_pwm.o
 .debug_frame   0x000020b4      0x23c ./driver_source/lpc17xx_qei.o
 .debug_frame   0x000022f0       0xc8 ./driver_source/lpc17xx_rit.o
 .debug_frame   0x000023b8      0x228 ./driver_source/lpc17xx_rtc.o
 .debug_frame   0x000025e0      0x11c ./driver_source/lpc17xx_sd.o
 .debug_frame   0x000026fc      0x18c ./driver_source/lpc17xx_spi.o
 .debug_frame   0x00002888      0x220 ./driver_source/lpc17xx_ssp.o
 .debug_frame   0x00002aa8      0x188 ./driver_source/lpc17xx_timer.o
 .debug_frame   0x00002c30      0x398 ./driver_source/lpc17xx_uart.o
 .debug_frame   0x00002fc8       0xc0 ./driver_source/lpc17xx_wdt.o
 .debug_frame   0x00003088      0x14c ./UsbHost/Uart/usbhost_uart.o
 .debug_frame   0x000031d4      0x178 ./UsbHost/MassStorage/usbhost_ms.o
 .debug_frame   0x0000334c       0x30 ./UsbHost/Main/usbhost_main.o
 .debug_frame   0x0000337c       0xc0 ./UsbHost/Host/usb_ms_diskio.o
 .debug_frame   0x0000343c      0x240 ./UsbHost/Host/usbhost_lpc17xx.o
 .debug_frame   0x0000367c      0x104 ./LPCUSB/USB_CDC.o
 .debug_frame   0x00003780       0x3c ./LPCUSB/usbcontrol.o
 .debug_frame   0x000037bc      0x134 ./LPCUSB/usbhw_lpc.o
 .debug_frame   0x000038f0       0x38 ./LPCUSB/usbinit.o
 .debug_frame   0x00003928       0x70 ./LPCUSB/usbstdreq.o
 .debug_frame   0x00003998       0x3c ./FatFs/option/cc932.o
 .debug_frame   0x000039d4       0x8c ./FatFs/diskio.o
 .debug_frame   0x00003a60      0x53c ./FatFs/ff.o
 .debug_frame   0x00003f9c       0x38 /home/nlv14991/workspaceLPC/STE-LPC1768-/CMSISv1p30_LPC17xx/Debug/libCMSISv1p30_LPC17xx.a(system_LPC17xx.o)
 .debug_frame   0x00003fd4      0x184 /home/nlv14991/workspaceLPC/STE-LPC1768-/FreeRTOS_Library/Debug/libFreeRTOS_Library.a(queue.o)
 .debug_frame   0x00004158      0x2e8 /home/nlv14991/workspaceLPC/STE-LPC1768-/FreeRTOS_Library/Debug/libFreeRTOS_Library.a(tasks.o)
 .debug_frame   0x00004440       0x68 /home/nlv14991/workspaceLPC/STE-LPC1768-/FreeRTOS_Library/Debug/libFreeRTOS_Library.a(heap_2.o)
 .debug_frame   0x000044a8       0xcc /home/nlv14991/workspaceLPC/STE-LPC1768-/FreeRTOS_Library/Debug/libFreeRTOS_Library.a(port.o)
 .debug_frame   0x00004574       0x70 /home/nlv14991/workspaceLPC/STE-LPC1768-/FreeRTOS_Library/Debug/libFreeRTOS_Library.a(list.o)
 .debug_frame   0x000045e4       0x50 /usr/local/lpcxpresso_4.2.3_255/lpcxpresso/tools/bin/../lib/gcc/arm-none-eabi/4.5.1/thumb2/libgcc.a(bpabi.o)
 .debug_frame   0x00004634       0x3c /usr/local/lpcxpresso_4.2.3_255/lpcxpresso/tools/bin/../lib/gcc/arm-none-eabi/4.5.1/thumb2/libgcc.a(_divdi3.o)
 .debug_frame   0x00004670       0x3c /usr/local/lpcxpresso_4.2.3_255/lpcxpresso/tools/bin/../lib/gcc/arm-none-eabi/4.5.1/thumb2/libgcc.a(_udivdi3.o)
 .debug_frame   0x000046ac       0x20 /usr/local/lpcxpresso_4.2.3_255/lpcxpresso/tools/bin/../lib/gcc/arm-none-eabi/4.5.1/thumb2/libgcc.a(_udivsi3.o)
 .debug_frame   0x000046cc       0x2c /usr/local/lpcxpresso_4.2.3_255/lpcxpresso/tools/bin/../lib/gcc/arm-none-eabi/4.5.1/../../../../arm-none-eabi/lib/thumb2/libc.a(lib_a-memcmp.o)
 .debug_frame   0x000046f8       0x30 /usr/local/lpcxpresso_4.2.3_255/lpcxpresso/tools/bin/../lib/gcc/arm-none-eabi/4.5.1/../../../../arm-none-eabi/lib/thumb2/libc.a(lib_a-memcpy.o)
 .debug_frame   0x00004728       0x2c /usr/local/lpcxpresso_4.2.3_255/lpcxpresso/tools/bin/../lib/gcc/arm-none-eabi/4.5.1/../../../../arm-none-eabi/lib/thumb2/libc.a(lib_a-memset.o)
 .debug_frame   0x00004754       0x5c /usr/local/lpcxpresso_4.2.3_255/lpcxpresso/tools/bin/../lib/gcc/arm-none-eabi/4.5.1/../../../../arm-none-eabi/lib/thumb2/libc.a(lib_a-printf.o)
 .debug_frame   0x000047b0       0x64 /usr/local/lpcxpresso_4.2.3_255/lpcxpresso/tools/bin/../lib/gcc/arm-none-eabi/4.5.1/../../../../arm-none-eabi/lib/thumb2/libc.a(lib_a-snprintf.o)
 .debug_frame   0x00004814       0x64 /usr/local/lpcxpresso_4.2.3_255/lpcxpresso/tools/bin/../lib/gcc/arm-none-eabi/4.5.1/../../../../arm-none-eabi/lib/thumb2/libc.a(lib_a-sprintf.o)
 .debug_frame   0x00004878       0x68 /usr/local/lpcxpresso_4.2.3_255/lpcxpresso/tools/bin/../lib/gcc/arm-none-eabi/4.5.1/../../../../arm-none-eabi/lib/thumb2/libc.a(lib_a-sscanf.o)
 .debug_frame   0x000048e0       0x80 /usr/local/lpcxpresso_4.2.3_255/lpcxpresso/tools/bin/../lib/gcc/arm-none-eabi/4.5.1/../../../../arm-none-eabi/lib/thumb2/libc.a(lib_a-stdio.o)
 .debug_frame   0x00004960       0x2c /usr/local/lpcxpresso_4.2.3_255/lpcxpresso/tools/bin/../lib/gcc/arm-none-eabi/4.5.1/../../../../arm-none-eabi/lib/thumb2/libc.a(lib_a-strcat.o)
 .debug_frame   0x0000498c       0x2c /usr/local/lpcxpresso_4.2.3_255/lpcxpresso/tools/bin/../lib/gcc/arm-none-eabi/4.5.1/../../../../arm-none-eabi/lib/thumb2/libc.a(lib_a-strchr.o)
 .debug_frame   0x000049b8       0x30 /usr/local/lpcxpresso_4.2.3_255/lpcxpresso/tools/bin/../lib/gcc/arm-none-eabi/4.5.1/../../../../arm-none-eabi/lib/thumb2/libc.a(lib_a-strcmp.o)
 .debug_frame   0x000049e8       0x20 /usr/local/lpcxpresso_4.2.3_255/lpcxpresso/tools/bin/../lib/gcc/arm-none-eabi/4.5.1/../../../../arm-none-eabi/lib/thumb2/libc.a(lib_a-strcpy.o)
 .debug_frame   0x00004a08       0x20 /usr/local/lpcxpresso_4.2.3_255/lpcxpresso/tools/bin/../lib/gcc/arm-none-eabi/4.5.1/../../../../arm-none-eabi/lib/thumb2/libc.a(lib_a-strlen.o)
 .debug_frame   0x00004a28       0x2c /usr/local/lpcxpresso_4.2.3_255/lpcxpresso/tools/bin/../lib/gcc/arm-none-eabi/4.5.1/../../../../arm-none-eabi/lib/thumb2/libc.a(lib_a-strncmp.o)
 .debug_frame   0x00004a54       0x2c /usr/local/lpcxpresso_4.2.3_255/lpcxpresso/tools/bin/../lib/gcc/arm-none-eabi/4.5.1/../../../../arm-none-eabi/lib/thumb2/libc.a(lib_a-strncpy.o)
 .debug_frame   0x00004a80       0x2c /usr/local/lpcxpresso_4.2.3_255/lpcxpresso/tools/bin/../lib/gcc/arm-none-eabi/4.5.1/../../../../arm-none-eabi/lib/thumb2/libc.a(lib_a-strrchr.o)
 .debug_frame   0x00004aac       0x90 /usr/local/lpcxpresso_4.2.3_255/lpcxpresso/tools/bin/../lib/gcc/arm-none-eabi/4.5.1/../../../../arm-none-eabi/lib/thumb2/libc.a(lib_a-strstr.o)
 .debug_frame   0x00004b3c       0x3c /usr/local/lpcxpresso_4.2.3_255/lpcxpresso/tools/bin/../lib/gcc/arm-none-eabi/4.5.1/../../../../arm-none-eabi/lib/thumb2/libc.a(lib_a-svfprintf.o)
 .debug_frame   0x00004b78       0x3c /usr/local/lpcxpresso_4.2.3_255/lpcxpresso/tools/bin/../lib/gcc/arm-none-eabi/4.5.1/../../../../arm-none-eabi/lib/thumb2/libc.a(lib_a-svfscanf.o)
 .debug_frame   0x00004bb4       0x58 /usr/local/lpcxpresso_4.2.3_255/lpcxpresso/tools/bin/../lib/gcc/arm-none-eabi/4.5.1/../../../../arm-none-eabi/lib/thumb2/libc.a(lib_a-vfprintf.o)
 .debug_frame   0x00004c0c       0x48 /usr/local/lpcxpresso_4.2.3_255/lpcxpresso/tools/bin/../lib/gcc/arm-none-eabi/4.5.1/../../../../arm-none-eabi/lib/thumb2/libc.a(lib_a-vsprintf.o)
 .debug_frame   0x00004c54       0x2c /usr/local/lpcxpresso_4.2.3_255/lpcxpresso/tools/bin/../lib/gcc/arm-none-eabi/4.5.1/../../../../arm-none-eabi/lib/thumb2/libc.a(lib_a-writer.o)
 .debug_frame   0x00004c80       0x2c /usr/local/lpcxpresso_4.2.3_255/lpcxpresso/tools/bin/../lib/gcc/arm-none-eabi/4.5.1/../../../../arm-none-eabi/lib/thumb2/libc.a(lib_a-wsetup.o)
 .debug_frame   0x00004cac       0x2c /usr/local/lpcxpresso_4.2.3_255/lpcxpresso/tools/bin/../lib/gcc/arm-none-eabi/4.5.1/../../../../arm-none-eabi/lib/thumb2/libc.a(lib_a-closer.o)
 .debug_frame   0x00004cd8       0x68 /usr/local/lpcxpresso_4.2.3_255/lpcxpresso/tools/bin/../lib/gcc/arm-none-eabi/4.5.1/../../../../arm-none-eabi/lib/thumb2/libc.a(lib_a-dtoa.o)
 .debug_frame   0x00004d40       0x40 /usr/local/lpcxpresso_4.2.3_255/lpcxpresso/tools/bin/../lib/gcc/arm-none-eabi/4.5.1/../../../../arm-none-eabi/lib/thumb2/libc.a(lib_a-fflush.o)
 .debug_frame   0x00004d80      0x114 /usr/local/lpcxpresso_4.2.3_255/lpcxpresso/tools/bin/../lib/gcc/arm-none-eabi/4.5.1/../../../../arm-none-eabi/lib/thumb2/libc.a(lib_a-findfp.o)
 .debug_frame   0x00004e94       0x50 /usr/local/lpcxpresso_4.2.3_255/lpcxpresso/tools/bin/../lib/gcc/arm-none-eabi/4.5.1/../../../../arm-none-eabi/lib/thumb2/libc.a(lib_a-freer.o)
 .debug_frame   0x00004ee4       0x54 /usr/local/lpcxpresso_4.2.3_255/lpcxpresso/tools/bin/../lib/gcc/arm-none-eabi/4.5.1/../../../../arm-none-eabi/lib/thumb2/libc.a(lib_a-fwalk.o)
 .debug_frame   0x00004f38       0x20 /usr/local/lpcxpresso_4.2.3_255/lpcxpresso/tools/bin/../lib/gcc/arm-none-eabi/4.5.1/../../../../arm-none-eabi/lib/thumb2/libc.a(lib_a-iswspace.o)
 .debug_frame   0x00004f58       0x98 /usr/local/lpcxpresso_4.2.3_255/lpcxpresso/tools/bin/../lib/gcc/arm-none-eabi/4.5.1/../../../../arm-none-eabi/lib/thumb2/libc.a(lib_a-locale.o)
 .debug_frame   0x00004ff0       0x2c /usr/local/lpcxpresso_4.2.3_255/lpcxpresso/tools/bin/../lib/gcc/arm-none-eabi/4.5.1/../../../../arm-none-eabi/lib/thumb2/libc.a(lib_a-lseekr.o)
 .debug_frame   0x0000501c       0x34 /usr/local/lpcxpresso_4.2.3_255/lpcxpresso/tools/bin/../lib/gcc/arm-none-eabi/4.5.1/../../../../arm-none-eabi/lib/thumb2/libc.a(lib_a-makebuf.o)
 .debug_frame   0x00005050       0x30 /usr/local/lpcxpresso_4.2.3_255/lpcxpresso/tools/bin/../lib/gcc/arm-none-eabi/4.5.1/../../../../arm-none-eabi/lib/thumb2/libc.a(lib_a-malloc.o)
 .debug_frame   0x00005080       0x3c /usr/local/lpcxpresso_4.2.3_255/lpcxpresso/tools/bin/../lib/gcc/arm-none-eabi/4.5.1/../../../../arm-none-eabi/lib/thumb2/libc.a(lib_a-mallocr.o)
 .debug_frame   0x000050bc       0x60 /usr/local/lpcxpresso_4.2.3_255/lpcxpresso/tools/bin/../lib/gcc/arm-none-eabi/4.5.1/../../../../arm-none-eabi/lib/thumb2/libc.a(lib_a-mbrtowc.o)
 .debug_frame   0x0000511c       0x48 /usr/local/lpcxpresso_4.2.3_255/lpcxpresso/tools/bin/../lib/gcc/arm-none-eabi/4.5.1/../../../../arm-none-eabi/lib/thumb2/libc.a(lib_a-mbtowc_r.o)
 .debug_frame   0x00005164       0x2c /usr/local/lpcxpresso_4.2.3_255/lpcxpresso/tools/bin/../lib/gcc/arm-none-eabi/4.5.1/../../../../arm-none-eabi/lib/thumb2/libc.a(lib_a-memchr.o)
 .debug_frame   0x00005190       0x30 /usr/local/lpcxpresso_4.2.3_255/lpcxpresso/tools/bin/../lib/gcc/arm-none-eabi/4.5.1/../../../../arm-none-eabi/lib/thumb2/libc.a(lib_a-mlock.o)
 .debug_frame   0x000051c0      0x244 /usr/local/lpcxpresso_4.2.3_255/lpcxpresso/tools/bin/../lib/gcc/arm-none-eabi/4.5.1/../../../../arm-none-eabi/lib/thumb2/libc.a(lib_a-mprec.o)
 .debug_frame   0x00005404       0x2c /usr/local/lpcxpresso_4.2.3_255/lpcxpresso/tools/bin/../lib/gcc/arm-none-eabi/4.5.1/../../../../arm-none-eabi/lib/thumb2/libc.a(lib_a-readr.o)
 .debug_frame   0x00005430       0x64 /usr/local/lpcxpresso_4.2.3_255/lpcxpresso/tools/bin/../lib/gcc/arm-none-eabi/4.5.1/../../../../arm-none-eabi/lib/thumb2/libc.a(lib_a-reent.o)
 .debug_frame   0x00005494       0x28 /usr/local/lpcxpresso_4.2.3_255/lpcxpresso/tools/bin/../lib/gcc/arm-none-eabi/4.5.1/../../../../arm-none-eabi/lib/thumb2/libc.a(lib_a-s_fpclassify.o)
 .debug_frame   0x000054bc       0x2c /usr/local/lpcxpresso_4.2.3_255/lpcxpresso/tools/bin/../lib/gcc/arm-none-eabi/4.5.1/../../../../arm-none-eabi/lib/thumb2/libc.a(lib_a-sbrkr.o)
 .debug_frame   0x000054e8       0x2c /usr/local/lpcxpresso_4.2.3_255/lpcxpresso/tools/bin/../lib/gcc/arm-none-eabi/4.5.1/../../../../arm-none-eabi/lib/thumb2/libc.a(lib_a-sccl.o)
 .debug_frame   0x00005514       0x20 /usr/local/lpcxpresso_4.2.3_255/lpcxpresso/tools/bin/../lib/gcc/arm-none-eabi/4.5.1/../../../../arm-none-eabi/lib/thumb2/libc.a(lib_a-sf_nan.o)
 .debug_frame   0x00005534       0x84 /usr/local/lpcxpresso_4.2.3_255/lpcxpresso/tools/bin/../lib/gcc/arm-none-eabi/4.5.1/../../../../arm-none-eabi/lib/thumb2/libc.a(lib_a-strtod.o)
 .debug_frame   0x000055b8       0x54 /usr/local/lpcxpresso_4.2.3_255/lpcxpresso/tools/bin/../lib/gcc/arm-none-eabi/4.5.1/../../../../arm-none-eabi/lib/thumb2/libc.a(lib_a-strtol.o)
 .debug_frame   0x0000560c       0x3c /usr/local/lpcxpresso_4.2.3_255/lpcxpresso/tools/bin/../lib/gcc/arm-none-eabi/4.5.1/../../../../arm-none-eabi/lib/thumb2/libc.a(lib_a-strtoll_r.o)
 .debug_frame   0x00005648       0x54 /usr/local/lpcxpresso_4.2.3_255/lpcxpresso/tools/bin/../lib/gcc/arm-none-eabi/4.5.1/../../../../arm-none-eabi/lib/thumb2/libc.a(lib_a-strtoul.o)
 .debug_frame   0x0000569c       0x3c /usr/local/lpcxpresso_4.2.3_255/lpcxpresso/tools/bin/../lib/gcc/arm-none-eabi/4.5.1/../../../../arm-none-eabi/lib/thumb2/libc.a(lib_a-strtoull_r.o)
 .debug_frame   0x000056d8       0x68 /usr/local/lpcxpresso_4.2.3_255/lpcxpresso/tools/bin/../lib/gcc/arm-none-eabi/4.5.1/../../../../arm-none-eabi/lib/thumb2/libc.a(lib_a-svfiprintf.o)
 .debug_frame   0x00005740       0xa0 /usr/local/lpcxpresso_4.2.3_255/lpcxpresso/tools/bin/../lib/gcc/arm-none-eabi/4.5.1/../../../../arm-none-eabi/lib/thumb2/libc.a(lib_a-svfiscanf.o)
 .debug_frame   0x000057e0       0x5c /usr/local/lpcxpresso_4.2.3_255/lpcxpresso/tools/bin/../lib/gcc/arm-none-eabi/4.5.1/../../../../arm-none-eabi/lib/thumb2/libc.a(lib_a-ungetc.o)
 .debug_frame   0x0000583c       0x7c /usr/local/lpcxpresso_4.2.3_255/lpcxpresso/tools/bin/../lib/gcc/arm-none-eabi/4.5.1/../../../../arm-none-eabi/lib/thumb2/libc.a(lib_a-vfiprintf.o)
 .debug_frame   0x000058b8       0x2c /usr/local/lpcxpresso_4.2.3_255/lpcxpresso/tools/bin/../lib/gcc/arm-none-eabi/4.5.1/../../../../arm-none-eabi/lib/thumb2/libc.a(lib_a-callocr.o)
 .debug_frame   0x000058e4       0x3c /usr/local/lpcxpresso_4.2.3_255/lpcxpresso/tools/bin/../lib/gcc/arm-none-eabi/4.5.1/../../../../arm-none-eabi/lib/thumb2/libc.a(lib_a-fclose.o)
 .debug_frame   0x00005920       0x54 /usr/local/lpcxpresso_4.2.3_255/lpcxpresso/tools/bin/../lib/gcc/arm-none-eabi/4.5.1/../../../../arm-none-eabi/lib/thumb2/libc.a(lib_a-fputwc.o)
 .debug_frame   0x00005974       0x2c /usr/local/lpcxpresso_4.2.3_255/lpcxpresso/tools/bin/../lib/gcc/arm-none-eabi/4.5.1/../../../../arm-none-eabi/lib/thumb2/libc.a(lib_a-fstatr.o)
 .debug_frame   0x000059a0       0x3c /usr/local/lpcxpresso_4.2.3_255/lpcxpresso/tools/bin/../lib/gcc/arm-none-eabi/4.5.1/../../../../arm-none-eabi/lib/thumb2/libc.a(lib_a-fvwrite.o)
 .debug_frame   0x000059dc       0x6c /usr/local/lpcxpresso_4.2.3_255/lpcxpresso/tools/bin/../lib/gcc/arm-none-eabi/4.5.1/../../../../arm-none-eabi/lib/thumb2/libc.a(lib_a-gdtoa-gethex.o)
 .debug_frame   0x00005a48       0x3c /usr/local/lpcxpresso_4.2.3_255/lpcxpresso/tools/bin/../lib/gcc/arm-none-eabi/4.5.1/../../../../arm-none-eabi/lib/thumb2/libc.a(lib_a-gdtoa-hexnan.o)
 .debug_frame   0x00005a84       0x2c /usr/local/lpcxpresso_4.2.3_255/lpcxpresso/tools/bin/../lib/gcc/arm-none-eabi/4.5.1/../../../../arm-none-eabi/lib/thumb2/libc.a(lib_a-isattyr.o)
 .debug_frame   0x00005ab0       0x2c /usr/local/lpcxpresso_4.2.3_255/lpcxpresso/tools/bin/../lib/gcc/arm-none-eabi/4.5.1/../../../../arm-none-eabi/lib/thumb2/libc.a(lib_a-memmove.o)
 .debug_frame   0x00005adc       0x3c /usr/local/lpcxpresso_4.2.3_255/lpcxpresso/tools/bin/../lib/gcc/arm-none-eabi/4.5.1/../../../../arm-none-eabi/lib/thumb2/libc.a(lib_a-reallocr.o)
 .debug_frame   0x00005b18       0x3c /usr/local/lpcxpresso_4.2.3_255/lpcxpresso/tools/bin/../lib/gcc/arm-none-eabi/4.5.1/../../../../arm-none-eabi/lib/thumb2/libc.a(lib_a-wbuf.o)
 .debug_frame   0x00005b54       0x5c /usr/local/lpcxpresso_4.2.3_255/lpcxpresso/tools/bin/../lib/gcc/arm-none-eabi/4.5.1/../../../../arm-none-eabi/lib/thumb2/libc.a(lib_a-wcrtomb.o)
 .debug_frame   0x00005bb0       0x44 /usr/local/lpcxpresso_4.2.3_255/lpcxpresso/tools/bin/../lib/gcc/arm-none-eabi/4.5.1/../../../../arm-none-eabi/lib/thumb2/libc.a(lib_a-wctomb_r.o)
 .debug_frame   0x00005bf4       0x2c /usr/local/lpcxpresso_4.2.3_255/lpcxpresso/tools/bin/../lib/gcc/arm-none-eabi/4.5.1/../../../../arm-none-eabi/lib/thumb2/libcr_newlib_nohost.a(_cr_sbrk.o)
 .debug_frame   0x00005c20       0x20 /usr/local/lpcxpresso_4.2.3_255/lpcxpresso/tools/bin/../lib/gcc/arm-none-eabi/4.5.1/../../../../arm-none-eabi/lib/thumb2/libcr_newlib_nohost.a(close.o)
 .debug_frame   0x00005c40       0x20 /usr/local/lpcxpresso_4.2.3_255/lpcxpresso/tools/bin/../lib/gcc/arm-none-eabi/4.5.1/../../../../arm-none-eabi/lib/thumb2/libcr_newlib_nohost.a(fstat.o)
 .debug_frame   0x00005c60       0x20 /usr/local/lpcxpresso_4.2.3_255/lpcxpresso/tools/bin/../lib/gcc/arm-none-eabi/4.5.1/../../../../arm-none-eabi/lib/thumb2/libcr_newlib_nohost.a(isatty.o)
 .debug_frame   0x00005c80       0x20 /usr/local/lpcxpresso_4.2.3_255/lpcxpresso/tools/bin/../lib/gcc/arm-none-eabi/4.5.1/../../../../arm-none-eabi/lib/thumb2/libcr_newlib_nohost.a(lseek.o)
 .debug_frame   0x00005ca0       0x20 /usr/local/lpcxpresso_4.2.3_255/lpcxpresso/tools/bin/../lib/gcc/arm-none-eabi/4.5.1/../../../../arm-none-eabi/lib/thumb2/libcr_newlib_nohost.a(read.o)
 .debug_frame   0x00005cc0       0x20 /usr/local/lpcxpresso_4.2.3_255/lpcxpresso/tools/bin/../lib/gcc/arm-none-eabi/4.5.1/../../../../arm-none-eabi/lib/thumb2/libcr_newlib_nohost.a(write.o)
 .debug_frame   0x00005ce0       0x20 /usr/local/lpcxpresso_4.2.3_255/lpcxpresso/tools/bin/../lib/gcc/arm-none-eabi/4.5.1/../../../../arm-none-eabi/lib/thumb2/libcr_newlib_nohost.a(_cr_check_heap.o)
 .debug_frame   0x00005d00       0x20 /usr/local/lpcxpresso_4.2.3_255/lpcxpresso/tools/bin/../lib/gcc/arm-none-eabi/4.5.1/../../../../arm-none-eabi/lib/thumb2/libc.a(lib_a-errno.o)
