Archive member included because of file (symbol)

/home/nlv14991/workspaceLPC/STE-LPC1768-/CMSISv1p30_LPC17xx/Debug/libCMSISv1p30_LPC17xx.a(system_LPC17xx.o)
                              ./cr_startup_lpc17.o (SystemInit)
/home/nlv14991/workspaceLPC/STE-LPC1768-/FreeRTOS_Library/Debug/libFreeRTOS_Library.a(queue.o)
                              ./webserver/uIP_Task.o (xQueueCreate)
/home/nlv14991/workspaceLPC/STE-LPC1768-/FreeRTOS_Library/Debug/libFreeRTOS_Library.a(tasks.o)
                              ./main.o (xTaskGenericCreate)
/home/nlv14991/workspaceLPC/STE-LPC1768-/FreeRTOS_Library/Debug/libFreeRTOS_Library.a(heap_2.o)
                              /home/nlv14991/workspaceLPC/STE-LPC1768-/FreeRTOS_Library/Debug/libFreeRTOS_Library.a(queue.o) (pvPortMalloc)
/home/nlv14991/workspaceLPC/STE-LPC1768-/FreeRTOS_Library/Debug/libFreeRTOS_Library.a(port.o)
                              /home/nlv14991/workspaceLPC/STE-LPC1768-/FreeRTOS_Library/Debug/libFreeRTOS_Library.a(tasks.o) (pxPortInitialiseStack)
/home/nlv14991/workspaceLPC/STE-LPC1768-/FreeRTOS_Library/Debug/libFreeRTOS_Library.a(list.o)
                              /home/nlv14991/workspaceLPC/STE-LPC1768-/FreeRTOS_Library/Debug/libFreeRTOS_Library.a(queue.o) (vListInitialise)
/usr/local/lpcxpresso_4.2.3_255/lpcxpresso/tools/bin/../lib/gcc/arm-none-eabi/4.5.1/../../../../arm-none-eabi/lib/thumb2/libcr_c.a(fpprintf.o)
                              ./cr_startup_lpc17.o (sprintf)
/usr/local/lpcxpresso_4.2.3_255/lpcxpresso/tools/bin/../lib/gcc/arm-none-eabi/4.5.1/../../../../arm-none-eabi/lib/thumb2/libcr_c.a(memcmp.o)
                              /home/nlv14991/workspaceLPC/STE-LPC1768-/FreeRTOS_Library/Debug/libFreeRTOS_Library.a(tasks.o) (memcmp)
/usr/local/lpcxpresso_4.2.3_255/lpcxpresso/tools/bin/../lib/gcc/arm-none-eabi/4.5.1/../../../../arm-none-eabi/lib/thumb2/libcr_c.a(printf.o)
                              /usr/local/lpcxpresso_4.2.3_255/lpcxpresso/tools/bin/../lib/gcc/arm-none-eabi/4.5.1/../../../../arm-none-eabi/lib/thumb2/libcr_c.a(fpprintf.o) (__vfprintf)
/usr/local/lpcxpresso_4.2.3_255/lpcxpresso/tools/bin/../lib/gcc/arm-none-eabi/4.5.1/../../../../arm-none-eabi/lib/thumb2/libcr_c.a(scanf.o)
                              ./webserver/uIP_Task.o (sscanf)
/usr/local/lpcxpresso_4.2.3_255/lpcxpresso/tools/bin/../lib/gcc/arm-none-eabi/4.5.1/../../../../arm-none-eabi/lib/thumb2/libcr_c.a(stdio.o)
                              /usr/local/lpcxpresso_4.2.3_255/lpcxpresso/tools/bin/../lib/gcc/arm-none-eabi/4.5.1/../../../../arm-none-eabi/lib/thumb2/libcr_c.a(fpprintf.o) (__Ciob)
/usr/local/lpcxpresso_4.2.3_255/lpcxpresso/tools/bin/../lib/gcc/arm-none-eabi/4.5.1/../../../../arm-none-eabi/lib/thumb2/libcr_c.a(strcat.o)
                              ./webserver/httpd-cgi.o (strcat)
/usr/local/lpcxpresso_4.2.3_255/lpcxpresso/tools/bin/../lib/gcc/arm-none-eabi/4.5.1/../../../../arm-none-eabi/lib/thumb2/libcr_c.a(strchr.o)
                              ./webserver/httpd-cgi.o (strchr)
/usr/local/lpcxpresso_4.2.3_255/lpcxpresso/tools/bin/../lib/gcc/arm-none-eabi/4.5.1/../../../../arm-none-eabi/lib/thumb2/libcr_c.a(strcmp.o)
                              ./uip_ftp/Connections.o (strcmp)
/usr/local/lpcxpresso_4.2.3_255/lpcxpresso/tools/bin/../lib/gcc/arm-none-eabi/4.5.1/../../../../arm-none-eabi/lib/thumb2/libcr_c.a(strcpy.o)
                              ./webserver/httpd.o (strcpy)
/usr/local/lpcxpresso_4.2.3_255/lpcxpresso/tools/bin/../lib/gcc/arm-none-eabi/4.5.1/../../../../arm-none-eabi/lib/thumb2/libcr_c.a(strlen.o)
                              ./cr_startup_lpc17.o (strlen)
/usr/local/lpcxpresso_4.2.3_255/lpcxpresso/tools/bin/../lib/gcc/arm-none-eabi/4.5.1/../../../../arm-none-eabi/lib/thumb2/libcr_c.a(strncmp.o)
                              ./webserver/httpd-cgi.o (strncmp)
/usr/local/lpcxpresso_4.2.3_255/lpcxpresso/tools/bin/../lib/gcc/arm-none-eabi/4.5.1/../../../../arm-none-eabi/lib/thumb2/libcr_c.a(strncpy.o)
                              ./webserver/httpd.o (strncpy)
/usr/local/lpcxpresso_4.2.3_255/lpcxpresso/tools/bin/../lib/gcc/arm-none-eabi/4.5.1/../../../../arm-none-eabi/lib/thumb2/libcr_c.a(strrchr.o)
                              ./webserver/httpd.o (strrchr)
/usr/local/lpcxpresso_4.2.3_255/lpcxpresso/tools/bin/../lib/gcc/arm-none-eabi/4.5.1/../../../../arm-none-eabi/lib/thumb2/libcr_c.a(strstr.o)
                              ./webserver/uIP_Task.o (strstr)
/usr/local/lpcxpresso_4.2.3_255/lpcxpresso/tools/bin/../lib/gcc/arm-none-eabi/4.5.1/../../../../arm-none-eabi/lib/thumb2/libcr_c.a(ungetc.o)
                              /usr/local/lpcxpresso_4.2.3_255/lpcxpresso/tools/bin/../lib/gcc/arm-none-eabi/4.5.1/../../../../arm-none-eabi/lib/thumb2/libcr_c.a(scanf.o) (ungetc)
/usr/local/lpcxpresso_4.2.3_255/lpcxpresso/tools/bin/../lib/gcc/arm-none-eabi/4.5.1/../../../../arm-none-eabi/lib/thumb2/libcr_c.a(memcpy.o)
                              ./webserver/httpd.o (memcpy)
/usr/local/lpcxpresso_4.2.3_255/lpcxpresso/tools/bin/../lib/gcc/arm-none-eabi/4.5.1/../../../../arm-none-eabi/lib/thumb2/libcr_c.a(memset.o)
                              ./webserver/uip_arp.o (memset)
/usr/local/lpcxpresso_4.2.3_255/lpcxpresso/tools/bin/../lib/gcc/arm-none-eabi/4.5.1/../../../../arm-none-eabi/lib/thumb2/libcr_c.a(__fillbuf.o)
                              /usr/local/lpcxpresso_4.2.3_255/lpcxpresso/tools/bin/../lib/gcc/arm-none-eabi/4.5.1/../../../../arm-none-eabi/lib/thumb2/libcr_c.a(scanf.o) (__filbuf)
/usr/local/lpcxpresso_4.2.3_255/lpcxpresso/tools/bin/../lib/gcc/arm-none-eabi/4.5.1/../../../../arm-none-eabi/lib/thumb2/libcr_c.a(_deferredlazyseek.o)
                              /usr/local/lpcxpresso_4.2.3_255/lpcxpresso/tools/bin/../lib/gcc/arm-none-eabi/4.5.1/../../../../arm-none-eabi/lib/thumb2/libcr_c.a(__fillbuf.o) (_deferredlazyseek)
/usr/local/lpcxpresso_4.2.3_255/lpcxpresso/tools/bin/../lib/gcc/arm-none-eabi/4.5.1/../../../../arm-none-eabi/lib/thumb2/libcr_c.a(_fflush.o)
                              /usr/local/lpcxpresso_4.2.3_255/lpcxpresso/tools/bin/../lib/gcc/arm-none-eabi/4.5.1/../../../../arm-none-eabi/lib/thumb2/libcr_c.a(__fillbuf.o) (_fflush)
/usr/local/lpcxpresso_4.2.3_255/lpcxpresso/tools/bin/../lib/gcc/arm-none-eabi/4.5.1/../../../../arm-none-eabi/lib/thumb2/libcr_c.a(_frexpl.o)
                              /usr/local/lpcxpresso_4.2.3_255/lpcxpresso/tools/bin/../lib/gcc/arm-none-eabi/4.5.1/../../../../arm-none-eabi/lib/thumb2/libcr_c.a(fpprintf.o) (_frexpl)
/usr/local/lpcxpresso_4.2.3_255/lpcxpresso/tools/bin/../lib/gcc/arm-none-eabi/4.5.1/../../../../arm-none-eabi/lib/thumb2/libcr_c.a(_hugeval.o)
                              /usr/local/lpcxpresso_4.2.3_255/lpcxpresso/tools/bin/../lib/gcc/arm-none-eabi/4.5.1/../../../../arm-none-eabi/lib/thumb2/libcr_c.a(scanf.o) (__huge_vall)
/usr/local/lpcxpresso_4.2.3_255/lpcxpresso/tools/bin/../lib/gcc/arm-none-eabi/4.5.1/../../../../arm-none-eabi/lib/thumb2/libcr_c.a(_ldexpl.o)
                              /usr/local/lpcxpresso_4.2.3_255/lpcxpresso/tools/bin/../lib/gcc/arm-none-eabi/4.5.1/../../../../arm-none-eabi/lib/thumb2/libcr_c.a(fpprintf.o) (_ldexpl)
/usr/local/lpcxpresso_4.2.3_255/lpcxpresso/tools/bin/../lib/gcc/arm-none-eabi/4.5.1/../../../../arm-none-eabi/lib/thumb2/libcr_c.a(_writebuf.o)
                              /usr/local/lpcxpresso_4.2.3_255/lpcxpresso/tools/bin/../lib/gcc/arm-none-eabi/4.5.1/../../../../arm-none-eabi/lib/thumb2/libcr_c.a(_deferredlazyseek.o) (_Cwritebuf)
/usr/local/lpcxpresso_4.2.3_255/lpcxpresso/tools/bin/../lib/gcc/arm-none-eabi/4.5.1/../../../../arm-none-eabi/lib/thumb2/libcr_c.a(alloc.o)
                              /usr/local/lpcxpresso_4.2.3_255/lpcxpresso/tools/bin/../lib/gcc/arm-none-eabi/4.5.1/../../../../arm-none-eabi/lib/thumb2/libcr_c.a(fpprintf.o) (malloc)
/usr/local/lpcxpresso_4.2.3_255/lpcxpresso/tools/bin/../lib/gcc/arm-none-eabi/4.5.1/../../../../arm-none-eabi/lib/thumb2/libcr_c.a(ctype.o)
                              /usr/local/lpcxpresso_4.2.3_255/lpcxpresso/tools/bin/../lib/gcc/arm-none-eabi/4.5.1/../../../../arm-none-eabi/lib/thumb2/libcr_c.a(printf.o) (__ctype)
/usr/local/lpcxpresso_4.2.3_255/lpcxpresso/tools/bin/../lib/gcc/arm-none-eabi/4.5.1/../../../../arm-none-eabi/lib/thumb2/libcr_c.a(errno.o)
                              /usr/local/lpcxpresso_4.2.3_255/lpcxpresso/tools/bin/../lib/gcc/arm-none-eabi/4.5.1/../../../../arm-none-eabi/lib/thumb2/libcr_c.a(scanf.o) (errno)
/usr/local/lpcxpresso_4.2.3_255/lpcxpresso/tools/bin/../lib/gcc/arm-none-eabi/4.5.1/../../../../arm-none-eabi/lib/thumb2/libcr_c.a(fseek.o)
                              /usr/local/lpcxpresso_4.2.3_255/lpcxpresso/tools/bin/../lib/gcc/arm-none-eabi/4.5.1/../../../../arm-none-eabi/lib/thumb2/libcr_c.a(_deferredlazyseek.o) (fseek)
/usr/local/lpcxpresso_4.2.3_255/lpcxpresso/tools/bin/../lib/gcc/arm-none-eabi/4.5.1/../../../../arm-none-eabi/lib/thumb2/libcr_c.a(ftell.o)
                              /usr/local/lpcxpresso_4.2.3_255/lpcxpresso/tools/bin/../lib/gcc/arm-none-eabi/4.5.1/../../../../arm-none-eabi/lib/thumb2/libcr_c.a(fseek.o) (ftell)
/usr/local/lpcxpresso_4.2.3_255/lpcxpresso/tools/bin/../lib/gcc/arm-none-eabi/4.5.1/../../../../arm-none-eabi/lib/thumb2/libcr_c.a(__init_alloc.o)
                              /usr/local/lpcxpresso_4.2.3_255/lpcxpresso/tools/bin/../lib/gcc/arm-none-eabi/4.5.1/../../../../arm-none-eabi/lib/thumb2/libcr_c.a(alloc.o) (__heaps)
/usr/local/lpcxpresso_4.2.3_255/lpcxpresso/tools/bin/../lib/gcc/arm-none-eabi/4.5.1/thumb2/libcr_eabihelpers.a(division.o)
                              ./driver_source/lpc17xx_i2s.o (__aeabi_uldivmod)
/usr/local/lpcxpresso_4.2.3_255/lpcxpresso/tools/bin/../lib/gcc/arm-none-eabi/4.5.1/thumb2/libcr_eabihelpers.a(double.o)
                              /usr/local/lpcxpresso_4.2.3_255/lpcxpresso/tools/bin/../lib/gcc/arm-none-eabi/4.5.1/../../../../arm-none-eabi/lib/thumb2/libcr_c.a(fpprintf.o) (__aeabi_dmul)
/usr/local/lpcxpresso_4.2.3_255/lpcxpresso/tools/bin/../lib/gcc/arm-none-eabi/4.5.1/thumb2/libcr_eabihelpers.a(memcpy.o)
                              /usr/local/lpcxpresso_4.2.3_255/lpcxpresso/tools/bin/../lib/gcc/arm-none-eabi/4.5.1/../../../../arm-none-eabi/lib/thumb2/libcr_c.a(memcpy.o) (__aeabi_memcpy)
/usr/local/lpcxpresso_4.2.3_255/lpcxpresso/tools/bin/../lib/gcc/arm-none-eabi/4.5.1/../../../../arm-none-eabi/lib/thumb2/libcr_nohost.a(__sys_appexit.o)
                              /usr/local/lpcxpresso_4.2.3_255/lpcxpresso/tools/bin/../lib/gcc/arm-none-eabi/4.5.1/../../../../arm-none-eabi/lib/thumb2/libcr_c.a(alloc.o) (__sys_appexit)
/usr/local/lpcxpresso_4.2.3_255/lpcxpresso/tools/bin/../lib/gcc/arm-none-eabi/4.5.1/../../../../arm-none-eabi/lib/thumb2/libcr_nohost.a(__sys_flen.o)
                              /usr/local/lpcxpresso_4.2.3_255/lpcxpresso/tools/bin/../lib/gcc/arm-none-eabi/4.5.1/../../../../arm-none-eabi/lib/thumb2/libcr_c.a(_writebuf.o) (__sys_flen)
/usr/local/lpcxpresso_4.2.3_255/lpcxpresso/tools/bin/../lib/gcc/arm-none-eabi/4.5.1/../../../../arm-none-eabi/lib/thumb2/libcr_nohost.a(__sys_istty.o)
                              /usr/local/lpcxpresso_4.2.3_255/lpcxpresso/tools/bin/../lib/gcc/arm-none-eabi/4.5.1/../../../../arm-none-eabi/lib/thumb2/libcr_c.a(_deferredlazyseek.o) (__sys_istty)
/usr/local/lpcxpresso_4.2.3_255/lpcxpresso/tools/bin/../lib/gcc/arm-none-eabi/4.5.1/../../../../arm-none-eabi/lib/thumb2/libcr_nohost.a(__sys_read.o)
                              /usr/local/lpcxpresso_4.2.3_255/lpcxpresso/tools/bin/../lib/gcc/arm-none-eabi/4.5.1/../../../../arm-none-eabi/lib/thumb2/libcr_c.a(__fillbuf.o) (__sys_read)
/usr/local/lpcxpresso_4.2.3_255/lpcxpresso/tools/bin/../lib/gcc/arm-none-eabi/4.5.1/../../../../arm-none-eabi/lib/thumb2/libcr_nohost.a(__sys_readc.o)
                              /usr/local/lpcxpresso_4.2.3_255/lpcxpresso/tools/bin/../lib/gcc/arm-none-eabi/4.5.1/../../../../arm-none-eabi/lib/thumb2/libcr_c.a(__fillbuf.o) (__sys_readc)
/usr/local/lpcxpresso_4.2.3_255/lpcxpresso/tools/bin/../lib/gcc/arm-none-eabi/4.5.1/../../../../arm-none-eabi/lib/thumb2/libcr_nohost.a(__sys_seek.o)
                              /usr/local/lpcxpresso_4.2.3_255/lpcxpresso/tools/bin/../lib/gcc/arm-none-eabi/4.5.1/../../../../arm-none-eabi/lib/thumb2/libcr_c.a(__fillbuf.o) (__sys_seek)
/usr/local/lpcxpresso_4.2.3_255/lpcxpresso/tools/bin/../lib/gcc/arm-none-eabi/4.5.1/../../../../arm-none-eabi/lib/thumb2/libcr_nohost.a(__sys_write.o)
                              /usr/local/lpcxpresso_4.2.3_255/lpcxpresso/tools/bin/../lib/gcc/arm-none-eabi/4.5.1/../../../../arm-none-eabi/lib/thumb2/libcr_c.a(fpprintf.o) (__sys_write)
/usr/local/lpcxpresso_4.2.3_255/lpcxpresso/tools/bin/../lib/gcc/arm-none-eabi/4.5.1/../../../../arm-none-eabi/lib/thumb2/libcr_nohost.a(_cr_sbrk.o)
                              /usr/local/lpcxpresso_4.2.3_255/lpcxpresso/tools/bin/../lib/gcc/arm-none-eabi/4.5.1/../../../../arm-none-eabi/lib/thumb2/libcr_c.a(alloc.o) (_sbrk)
/usr/local/lpcxpresso_4.2.3_255/lpcxpresso/tools/bin/../lib/gcc/arm-none-eabi/4.5.1/../../../../arm-none-eabi/lib/thumb2/libcr_nohost.a(_cr_check_heap.o)
                              /usr/local/lpcxpresso_4.2.3_255/lpcxpresso/tools/bin/../lib/gcc/arm-none-eabi/4.5.1/../../../../arm-none-eabi/lib/thumb2/libcr_nohost.a(_cr_sbrk.o) (__check_heap_overflow)

Allocating common symbols
Common symbol       size              file

ulString            0x4               ./webserver/httpd-cgi.o
TDBufNonVol         0x4               ./UsbHost/Host/usbhost_lpc17xx.o
File1               0x224             ./UsbHost/Main/usbhost_main.o
uip_len             0x2               ./webserver/uip.o
xCountingSemaphore  0x4               ./main.o
USBFs               0x69c             ./UsbHost/Main/usbhost_main.o
driveAttached       0x2               ./uip_ftp/FTPD.o
pcStatus            0x4               ./webserver/httpd-cgi.o
uip_sappdata        0x4               ./webserver/uip.o
uip_acc32           0x4               ./webserver/uip.o
transferMCfg        0x2c              ./lcd_i2c.o
FATBuffer           0x4               ./UsbHost/Host/usbhost_lpc17xx.o
MS_BlkSize          0x4               ./UsbHost/MassStorage/usbhost_ms.o
uip_flags           0x1               ./webserver/uip.o
RTS_State_usb       0x4               ./UsbHost/Uart/usbhost_uart.o
rb                  0x210             ./uart_fullmodem_test.o
Hcca                0x4               ./UsbHost/Host/usbhost_lpc17xx.o
SysTickCnt          0x4               ./LedBlinky.o
TxIntStat_usb       0x1               ./UsbHost/Uart/usbhost_uart.o
File2               0x224             ./UsbHost/Main/usbhost_main.o
uip_appdata         0x4               ./webserver/uip.o
uip_conn            0x4               ./webserver/uip.o
uip_conns           0x820             ./webserver/uip.o
master_test         0x2               ./lcd_i2c.o
TDTail              0x4               ./UsbHost/Host/usbhost_lpc17xx.o
Master_Buf          0x21              ./lcd_i2c.o
EDBulkOut           0x4               ./UsbHost/Host/usbhost_lpc17xx.o
UserBuffer          0x4               ./UsbHost/Host/usbhost_lpc17xx.o
gUSBConnected       0x4               ./UsbHost/Host/usbhost_lpc17xx.o
TDBuffer            0x4               ./UsbHost/Host/usbhost_lpc17xx.o
ftpd_state          0xb38             ./uip_ftp/FTPD.o
uip_listenports     0x50              ./webserver/uip.o
uip_draddr          0x4               ./webserver/uip.o
uip_stat            0x2c              ./webserver/uip.o
EDBulkIn            0x4               ./UsbHost/Host/usbhost_lpc17xx.o
EDCtrl              0x4               ./UsbHost/Host/usbhost_lpc17xx.o
rb_usb              0x210             ./UsbHost/Uart/usbhost_uart.o
TxIntStat           0x1               ./uart_fullmodem_test.o
TDHead              0x4               ./UsbHost/Host/usbhost_lpc17xx.o
RTS_State           0x4               ./uart_fullmodem_test.o
__heaps             0x4               /usr/local/lpcxpresso_4.2.3_255/lpcxpresso/tools/bin/../lib/gcc/arm-none-eabi/4.5.1/../../../../arm-none-eabi/lib/thumb2/libcr_c.a(__init_alloc.o)
__end_of_heap       0x4               /usr/local/lpcxpresso_4.2.3_255/lpcxpresso/tools/bin/../lib/gcc/arm-none-eabi/4.5.1/../../../../arm-none-eabi/lib/thumb2/libcr_c.a(__init_alloc.o)
FULLCAN_ENABLE      0x1               ./driver_source/lpc17xx_can.o
uip_netmask         0x4               ./webserver/uip.o
uip_hostaddr        0x4               ./webserver/uip.o
tcp_appdata         0x1b8             ./uip_ftp/ftp_main.o
__Ciob              0x140             /usr/local/lpcxpresso_4.2.3_255/lpcxpresso/tools/bin/../lib/gcc/arm-none-eabi/4.5.1/../../../../arm-none-eabi/lib/thumb2/libcr_c.a(stdio.o)
uip_buf             0x4               ./webserver/emac.o
uip_slen            0x2               ./webserver/uip.o

Discarded input sections

 .text          0x00000000        0x0 ./LedBlinky.o
 .data          0x00000000        0x0 ./LedBlinky.o
 .bss           0x00000000        0x0 ./LedBlinky.o
 .text.Delay    0x00000000       0x14 ./LedBlinky.o
 .text.entry_led
                0x00000000       0xa4 ./LedBlinky.o
 .text          0x00000000        0x0 ./cr_startup_lpc17.o
 .data          0x00000000        0x0 ./cr_startup_lpc17.o
 .bss           0x00000000        0x0 ./cr_startup_lpc17.o
 .text.SVCall_Handler
                0x00000000        0x4 ./cr_startup_lpc17.o
 .text.PendSV_Handler
                0x00000000        0x4 ./cr_startup_lpc17.o
 .text.SysTick_Handler
                0x00000000        0x4 ./cr_startup_lpc17.o
 .text          0x00000000        0x0 ./lcd_i2c.o
 .data          0x00000000        0x0 ./lcd_i2c.o
 .bss           0x00000000        0x0 ./lcd_i2c.o
 .text.Buffer_Init
                0x00000000       0x94 ./lcd_i2c.o
 .text.Error_Loop_S
                0x00000000        0x4 ./lcd_i2c.o
 .text.lcd_entry
                0x00000000      0x2b4 ./lcd_i2c.o
 .text.vLCDTask
                0x00000000        0x4 ./lcd_i2c.o
 .rodata.str1.4
                0x00000000        0x8 ./lcd_i2c.o
 .text          0x00000000        0x0 ./main.o
 .data          0x00000000        0x0 ./main.o
 .bss           0x00000000        0x0 ./main.o
 .text          0x00000000        0x0 ./uart_fullmodem_test.o
 .bss           0x00000000        0x0 ./uart_fullmodem_test.o
 .text.print_menu
                0x00000000       0x44 ./uart_fullmodem_test.o
 .text.UART1_ModemCallBack
                0x00000000       0x24 ./uart_fullmodem_test.o
 .text.UARTSend
                0x00000000      0x1c0 ./uart_fullmodem_test.o
 .text.UARTReceive
                0x00000000      0x15c ./uart_fullmodem_test.o
 .text          0x00000000        0x0 ./webserver/emac.o
 .data          0x00000000        0x0 ./webserver/emac.o
 .text          0x00000000        0x0 ./webserver/http-strings.o
 .data          0x00000000        0x0 ./webserver/http-strings.o
 .bss           0x00000000        0x0 ./webserver/http-strings.o
 .text          0x00000000        0x0 ./webserver/httpd-cgi.o
 .text          0x00000000        0x0 ./webserver/httpd-fs.o
 .data          0x00000000        0x0 ./webserver/httpd-fs.o
 .text.httpd_fs_init
                0x00000000       0x1c ./webserver/httpd-fs.o
 .text          0x00000000        0x0 ./webserver/httpd.o
 .data          0x00000000        0x0 ./webserver/httpd.o
 .bss           0x00000000        0x0 ./webserver/httpd.o
 .text          0x00000000        0x0 ./webserver/psock.o
 .data          0x00000000        0x0 ./webserver/psock.o
 .bss           0x00000000        0x0 ./webserver/psock.o
 .text.psock_newdata
                0x00000000       0x30 ./webserver/psock.o
 .text.psock_readbuf
                0x00000000      0x10c ./webserver/psock.o
 .rodata.str1.4
                0x00000000       0x14 ./webserver/psock.o
 .text          0x00000000        0x0 ./webserver/timer.o
 .data          0x00000000        0x0 ./webserver/timer.o
 .bss           0x00000000        0x0 ./webserver/timer.o
 .text.timer_restart
                0x00000000        0xc ./webserver/timer.o
 .text          0x00000000        0x0 ./webserver/uIP_Task.o
 .data          0x00000000        0x0 ./webserver/uIP_Task.o
 .text.clock_init
                0x00000000        0x4 ./webserver/uIP_Task.o
 .text          0x00000000        0x0 ./webserver/uip.o
 .data          0x00000000        0x0 ./webserver/uip.o
 .text.uip_setipid
                0x00000000        0xc ./webserver/uip.o
 .text.uip_chksum
                0x00000000      0x134 ./webserver/uip.o
 .text.uip_ipchksum
                0x00000000      0x13c ./webserver/uip.o
 .text.uip_udpchksum
                0x00000000      0x1e8 ./webserver/uip.o
 .text          0x00000000        0x0 ./webserver/uip_arp.o
 .data          0x00000000        0x0 ./webserver/uip_arp.o
 .text.uip_arp_init
                0x00000000       0x34 ./webserver/uip_arp.o
 .text          0x00000000        0x0 ./uip_ftp/Connections.o
 .data          0x00000000        0x0 ./uip_ftp/Connections.o
 .text.Convert_to_upper
                0x00000000       0x10 ./uip_ftp/Connections.o
 .text.Closed_data_conn
                0x00000000       0x48 ./uip_ftp/Connections.o
 .text.Aborted_data_conn
                0x00000000       0x48 ./uip_ftp/Connections.o
 .text.CreateFile
                0x00000000       0x88 ./uip_ftp/Connections.o
 .text          0x00000000        0x0 ./uip_ftp/FTPD.o
 .data          0x00000000        0x0 ./uip_ftp/FTPD.o
 .bss           0x00000000        0x0 ./uip_ftp/FTPD.o
 .text          0x00000000        0x0 ./uip_ftp/FTP_Strings.o
 .data          0x00000000       0x44 ./uip_ftp/FTP_Strings.o
 .bss           0x00000000        0x0 ./uip_ftp/FTP_Strings.o
 .rodata.str1.4
                0x00000000      0x1f4 ./uip_ftp/FTP_Strings.o
 .text          0x00000000        0x0 ./uip_ftp/ftp_main.o
 .data          0x00000000        0x0 ./uip_ftp/ftp_main.o
 .bss           0x00000000        0x0 ./uip_ftp/ftp_main.o
 .text.ftp_main
                0x00000000      0x4a0 ./uip_ftp/ftp_main.o
 .text.uip_tcp_appcall
                0x00000000        0x4 ./uip_ftp/ftp_main.o
 .rodata.str1.4
                0x00000000       0x74 ./uip_ftp/ftp_main.o
 .text          0x00000000        0x0 ./driver_source/lpc17xx_adc.o
 .data          0x00000000        0x0 ./driver_source/lpc17xx_adc.o
 .bss           0x00000000        0x0 ./driver_source/lpc17xx_adc.o
 .text.ADC_Init
                0x00000000       0x60 ./driver_source/lpc17xx_adc.o
 .text.ADC_DeInit
                0x00000000       0x34 ./driver_source/lpc17xx_adc.o
 .text.ADC_GetData
                0x00000000       0x14 ./driver_source/lpc17xx_adc.o
 .text.ADC_StartCmd
                0x00000000       0x44 ./driver_source/lpc17xx_adc.o
 .text.ADC_BurstCmd
                0x00000000       0x34 ./driver_source/lpc17xx_adc.o
 .text.ADC_PowerdownCmd
                0x00000000       0x34 ./driver_source/lpc17xx_adc.o
 .text.ADC_EdgeStartConfig
                0x00000000       0x54 ./driver_source/lpc17xx_adc.o
 .text.ADC_IntConfig
                0x00000000       0x50 ./driver_source/lpc17xx_adc.o
 .text.ADC_ChannelCmd
                0x00000000       0x44 ./driver_source/lpc17xx_adc.o
 .text.ADC_ChannelGetData
                0x00000000       0x2c ./driver_source/lpc17xx_adc.o
 .text.ADC_ChannelGetStatus
                0x00000000       0x60 ./driver_source/lpc17xx_adc.o
 .text.ADC_GlobalGetData
                0x00000000       0x28 ./driver_source/lpc17xx_adc.o
 .text.ADC_GlobalGetStatus
                0x00000000       0x58 ./driver_source/lpc17xx_adc.o
 .rodata.str1.4
                0x00000000       0x20 ./driver_source/lpc17xx_adc.o
 .text          0x00000000        0x0 ./driver_source/lpc17xx_can.o
 .data          0x00000000       0x10 ./driver_source/lpc17xx_can.o
 .bss           0x00000000       0x3c ./driver_source/lpc17xx_can.o
 .text.CAN_SetBaudRate
                0x00000000       0xc0 ./driver_source/lpc17xx_can.o
 .text.CAN_Init
                0x00000000      0x17c ./driver_source/lpc17xx_can.o
 .text.CAN_DeInit
                0x00000000       0x68 ./driver_source/lpc17xx_can.o
 .text.CAN_SetupAFLUT
                0x00000000      0x5e0 ./driver_source/lpc17xx_can.o
 .text.CAN_LoadExplicitEntry
                0x00000000      0x704 ./driver_source/lpc17xx_can.o
 .text.CAN_LoadFullCANEntry
                0x00000000      0x6e0 ./driver_source/lpc17xx_can.o
 .text.CAN_LoadGroupEntry
                0x00000000      0x6b4 ./driver_source/lpc17xx_can.o
 .text.CAN_RemoveEntry
                0x00000000      0xcb4 ./driver_source/lpc17xx_can.o
 .text.CAN_SendMsg
                0x00000000      0x150 ./driver_source/lpc17xx_can.o
 .text.CAN_ReceiveMsg
                0x00000000       0x98 ./driver_source/lpc17xx_can.o
 .text.FCAN_ReadObj
                0x00000000      0x304 ./driver_source/lpc17xx_can.o
 .text.CAN_GetCTRLStatus
                0x00000000       0x6c ./driver_source/lpc17xx_can.o
 .text.CAN_GetCRStatus
                0x00000000       0x48 ./driver_source/lpc17xx_can.o
 .text.CAN_IRQCmd
                0x00000000       0xbc ./driver_source/lpc17xx_can.o
 .text.CAN_SetupCBS
                0x00000000       0x2c ./driver_source/lpc17xx_can.o
 .text.CAN_SetAFMode
                0x00000000       0x5c ./driver_source/lpc17xx_can.o
 .text.CAN_ModeConfig
                0x00000000      0x110 ./driver_source/lpc17xx_can.o
 .text.CAN_IntHandler
                0x00000000      0x16c ./driver_source/lpc17xx_can.o
 .rodata        0x00000000       0x44 ./driver_source/lpc17xx_can.o
 .rodata.str1.4
                0x00000000       0x20 ./driver_source/lpc17xx_can.o
 COMMON         0x00000000        0x1 ./driver_source/lpc17xx_can.o
 .text          0x00000000        0x0 ./driver_source/lpc17xx_clkpwr.o
 .data          0x00000000        0x0 ./driver_source/lpc17xx_clkpwr.o
 .bss           0x00000000        0x0 ./driver_source/lpc17xx_clkpwr.o
 .text.CLKPWR_GetPCLKSEL
                0x00000000       0x20 ./driver_source/lpc17xx_clkpwr.o
 .text.CLKPWR_Sleep
                0x00000000       0x14 ./driver_source/lpc17xx_clkpwr.o
 .text.CLKPWR_DeepSleep
                0x00000000       0x20 ./driver_source/lpc17xx_clkpwr.o
 .text.CLKPWR_PowerDown
                0x00000000       0x20 ./driver_source/lpc17xx_clkpwr.o
 .text.CLKPWR_DeepPowerDown
                0x00000000       0x20 ./driver_source/lpc17xx_clkpwr.o
 .text          0x00000000        0x0 ./driver_source/lpc17xx_dac.o
 .data          0x00000000        0x0 ./driver_source/lpc17xx_dac.o
 .bss           0x00000000        0x0 ./driver_source/lpc17xx_dac.o
 .text.DAC_Init
                0x00000000       0x30 ./driver_source/lpc17xx_dac.o
 .text.DAC_UpdateValue
                0x00000000       0x30 ./driver_source/lpc17xx_dac.o
 .text.DAC_SetBias
                0x00000000       0x34 ./driver_source/lpc17xx_dac.o
 .text.DAC_ConfigDAConverterControl
                0x00000000       0x50 ./driver_source/lpc17xx_dac.o
 .text.DAC_SetDMATimeOut
                0x00000000       0x28 ./driver_source/lpc17xx_dac.o
 .rodata.str1.4
                0x00000000       0x20 ./driver_source/lpc17xx_dac.o
 .text          0x00000000        0x0 ./driver_source/lpc17xx_emac.o
 .data          0x00000000        0x0 ./driver_source/lpc17xx_emac.o
 .bss           0x00000000     0x2a90 ./driver_source/lpc17xx_emac.o
 .text.setEmacAddr
                0x00000000       0x28 ./driver_source/lpc17xx_emac.o
 .text.EMAC_DeInit
                0x00000000       0x1c ./driver_source/lpc17xx_emac.o
 .text.EMAC_CheckPHYStatus
                0x00000000       0x74 ./driver_source/lpc17xx_emac.o
 .text.EMAC_SetPHYMode
                0x00000000      0x2f0 ./driver_source/lpc17xx_emac.o
 .text.EMAC_Init
                0x00000000      0x284 ./driver_source/lpc17xx_emac.o
 .text.EMAC_UpdatePHYStatus
                0x00000000       0xb0 ./driver_source/lpc17xx_emac.o
 .text.EMAC_SetHashFilter
                0x00000000      0x40c ./driver_source/lpc17xx_emac.o
 .text.EMAC_CRCCalc
                0x00000000       0xd8 ./driver_source/lpc17xx_emac.o
 .text.EMAC_SetFilterMode
                0x00000000       0x18 ./driver_source/lpc17xx_emac.o
 .text.EMAC_GetWoLStatus
                0x00000000       0x18 ./driver_source/lpc17xx_emac.o
 .text.EMAC_WritePacketBuffer
                0x00000000       0x98 ./driver_source/lpc17xx_emac.o
 .text.EMAC_ReadPacketBuffer
                0x00000000       0x88 ./driver_source/lpc17xx_emac.o
 .text.EMAC_StandardIRQHandler
                0x00000000       0xc4 ./driver_source/lpc17xx_emac.o
 .text.EMAC_SetupIntCBS
                0x00000000       0x90 ./driver_source/lpc17xx_emac.o
 .text.EMAC_IntCmd
                0x00000000       0x18 ./driver_source/lpc17xx_emac.o
 .text.EMAC_IntGetStatus
                0x00000000       0x18 ./driver_source/lpc17xx_emac.o
 .text.EMAC_CheckReceiveIndex
                0x00000000       0x14 ./driver_source/lpc17xx_emac.o
 .text.EMAC_CheckTransmitIndex
                0x00000000       0x18 ./driver_source/lpc17xx_emac.o
 .text.EMAC_CheckReceiveDataStatus
                0x00000000       0x24 ./driver_source/lpc17xx_emac.o
 .text.EMAC_GetReceiveDataSize
                0x00000000       0x20 ./driver_source/lpc17xx_emac.o
 .text.EMAC_UpdateRxConsumeIndex
                0x00000000       0x18 ./driver_source/lpc17xx_emac.o
 .text.EMAC_UpdateTxProduceIndex
                0x00000000       0x18 ./driver_source/lpc17xx_emac.o
 .rodata        0x00000000        0x8 ./driver_source/lpc17xx_emac.o
 .text          0x00000000        0x0 ./driver_source/lpc17xx_gpdma.o
 .data          0x00000000       0x20 ./driver_source/lpc17xx_gpdma.o
 .text.GPDMA_Init
                0x00000000       0x78 ./driver_source/lpc17xx_gpdma.o
 .text.GPDMA_Setup
                0x00000000      0x228 ./driver_source/lpc17xx_gpdma.o
 .text.GPDMA_ChannelCmd
                0x00000000       0x20 ./driver_source/lpc17xx_gpdma.o
 .rodata        0x00000000       0x90 ./driver_source/lpc17xx_gpdma.o
 .text          0x00000000        0x0 ./driver_source/lpc17xx_gpio.o
 .data          0x00000000        0x0 ./driver_source/lpc17xx_gpio.o
 .bss           0x00000000        0x0 ./driver_source/lpc17xx_gpio.o
 .text.FIO_SetDir
                0x00000000       0x28 ./driver_source/lpc17xx_gpio.o
 .text.FIO_SetValue
                0x00000000       0x18 ./driver_source/lpc17xx_gpio.o
 .text.FIO_ClearValue
                0x00000000       0x18 ./driver_source/lpc17xx_gpio.o
 .text.FIO_ReadValue
                0x00000000       0x1c ./driver_source/lpc17xx_gpio.o
 .text.FIO_SetMask
                0x00000000       0x28 ./driver_source/lpc17xx_gpio.o
 .text.FIO_HalfWordSetDir
                0x00000000       0x54 ./driver_source/lpc17xx_gpio.o
 .text.FIO_HalfWordSetMask
                0x00000000       0x54 ./driver_source/lpc17xx_gpio.o
 .text.FIO_HalfWordSetValue
                0x00000000       0x20 ./driver_source/lpc17xx_gpio.o
 .text.FIO_HalfWordClearValue
                0x00000000       0x20 ./driver_source/lpc17xx_gpio.o
 .text.FIO_HalfWordReadValue
                0x00000000       0x28 ./driver_source/lpc17xx_gpio.o
 .text.FIO_ByteSetDir
                0x00000000       0x38 ./driver_source/lpc17xx_gpio.o
 .text.FIO_ByteSetMask
                0x00000000       0x3c ./driver_source/lpc17xx_gpio.o
 .text.FIO_ByteSetValue
                0x00000000       0x20 ./driver_source/lpc17xx_gpio.o
 .text.FIO_ByteClearValue
                0x00000000       0x20 ./driver_source/lpc17xx_gpio.o
 .text.FIO_ByteReadValue
                0x00000000       0x28 ./driver_source/lpc17xx_gpio.o
 .text          0x00000000        0x0 ./driver_source/lpc17xx_i2c.o
 .data          0x00000000        0x0 ./driver_source/lpc17xx_i2c.o
 .text.I2C_SlaveHandler
                0x00000000      0x254 ./driver_source/lpc17xx_i2c.o
 .text.I2C_IntCmd
                0x00000000       0xb0 ./driver_source/lpc17xx_i2c.o
 .text.I2C_SetClock
                0x00000000       0x90 ./driver_source/lpc17xx_i2c.o
 .text.I2C_DeInit
                0x00000000       0x90 ./driver_source/lpc17xx_i2c.o
 .text.I2C_SlaveTransferData
                0x00000000      0x1d8 ./driver_source/lpc17xx_i2c.o
 .text.I2C_SetOwnSlaveAddr
                0x00000000       0xc8 ./driver_source/lpc17xx_i2c.o
 .text.I2C_MonitorModeConfig
                0x00000000       0x70 ./driver_source/lpc17xx_i2c.o
 .text.I2C_MonitorModeCmd
                0x00000000       0x6c ./driver_source/lpc17xx_i2c.o
 .text.I2C_MonitorGetDatabuffer
                0x00000000       0x44 ./driver_source/lpc17xx_i2c.o
 .text          0x00000000        0x0 ./driver_source/lpc17xx_i2s.o
 .data          0x00000000        0x0 ./driver_source/lpc17xx_i2s.o
 .text.I2S_GetWordWidth
                0x00000000       0x58 ./driver_source/lpc17xx_i2s.o
 .text.I2S_GetChannel
                0x00000000       0x58 ./driver_source/lpc17xx_i2s.o
 .text.I2S_Init
                0x00000000       0x38 ./driver_source/lpc17xx_i2s.o
 .text.I2S_Config
                0x00000000       0xe8 ./driver_source/lpc17xx_i2s.o
 .text.I2S_DeInit
                0x00000000       0x2c ./driver_source/lpc17xx_i2s.o
 .text.I2S_GetLevel
                0x00000000       0x48 ./driver_source/lpc17xx_i2s.o
 .text.I2S_Start
                0x00000000       0x2c ./driver_source/lpc17xx_i2s.o
 .text.I2S_Send
                0x00000000       0x24 ./driver_source/lpc17xx_i2s.o
 .text.I2S_Receive
                0x00000000       0x24 ./driver_source/lpc17xx_i2s.o
 .text.I2S_Pause
                0x00000000       0x50 ./driver_source/lpc17xx_i2s.o
 .text.I2S_Mute
                0x00000000       0x50 ./driver_source/lpc17xx_i2s.o
 .text.I2S_Stop
                0x00000000       0x68 ./driver_source/lpc17xx_i2s.o
 .text.I2S_FreqConfig
                0x00000000      0x274 ./driver_source/lpc17xx_i2s.o
 .text.I2S_SetBitRate
                0x00000000       0x60 ./driver_source/lpc17xx_i2s.o
 .text.I2S_ModeConfig
                0x00000000       0xfc ./driver_source/lpc17xx_i2s.o
 .text.I2S_DMAConfig
                0x00000000       0x9c ./driver_source/lpc17xx_i2s.o
 .text.I2S_DMACmd
                0x00000000       0xc4 ./driver_source/lpc17xx_i2s.o
 .text.I2S_IRQConfig
                0x00000000       0x70 ./driver_source/lpc17xx_i2s.o
 .text.I2S_IRQCmd
                0x00000000       0x60 ./driver_source/lpc17xx_i2s.o
 .rodata        0x00000000        0x4 ./driver_source/lpc17xx_i2s.o
 .rodata.str1.4
                0x00000000       0x20 ./driver_source/lpc17xx_i2s.o
 .text          0x00000000        0x0 ./driver_source/lpc17xx_libcfg_default.o
 .data          0x00000000        0x0 ./driver_source/lpc17xx_libcfg_default.o
 .bss           0x00000000        0x0 ./driver_source/lpc17xx_libcfg_default.o
 .text          0x00000000        0x0 ./driver_source/lpc17xx_mcpwm.o
 .data          0x00000000        0x0 ./driver_source/lpc17xx_mcpwm.o
 .bss           0x00000000        0x0 ./driver_source/lpc17xx_mcpwm.o
 .text.MCPWM_Init
                0x00000000       0x1c ./driver_source/lpc17xx_mcpwm.o
 .text.MCPWM_ConfigChannel
                0x00000000       0xdc ./driver_source/lpc17xx_mcpwm.o
 .text.MCPWM_WriteToShadow
                0x00000000       0x28 ./driver_source/lpc17xx_mcpwm.o
 .text.MCPWM_ConfigCapture
                0x00000000       0xe0 ./driver_source/lpc17xx_mcpwm.o
 .text.MCPWM_ClearCapture
                0x00000000       0x14 ./driver_source/lpc17xx_mcpwm.o
 .text.MCPWM_GetCapture
                0x00000000       0x18 ./driver_source/lpc17xx_mcpwm.o
 .text.MCPWM_CountConfig
                0x00000000       0xa0 ./driver_source/lpc17xx_mcpwm.o
 .text.MCPWM_Start
                0x00000000       0x28 ./driver_source/lpc17xx_mcpwm.o
 .text.MCPWM_Stop
                0x00000000       0x28 ./driver_source/lpc17xx_mcpwm.o
 .text.MCPWM_ACMode
                0x00000000       0x14 ./driver_source/lpc17xx_mcpwm.o
 .text.MCPWM_DCMode
                0x00000000       0x28 ./driver_source/lpc17xx_mcpwm.o
 .text.MCPWM_IntConfig
                0x00000000        0xc ./driver_source/lpc17xx_mcpwm.o
 .text.MCPWM_IntSet
                0x00000000        0x4 ./driver_source/lpc17xx_mcpwm.o
 .text.MCPWM_IntClear
                0x00000000        0x4 ./driver_source/lpc17xx_mcpwm.o
 .text.MCPWM_GetIntStatus
                0x00000000        0xc ./driver_source/lpc17xx_mcpwm.o
 .text          0x00000000        0x0 ./driver_source/lpc17xx_nvic.o
 .data          0x00000000        0x0 ./driver_source/lpc17xx_nvic.o
 .bss           0x00000000        0x0 ./driver_source/lpc17xx_nvic.o
 .text.NVIC_DeInit
                0x00000000       0x68 ./driver_source/lpc17xx_nvic.o
 .text.NVIC_SCBDeInit
                0x00000000       0x78 ./driver_source/lpc17xx_nvic.o
 .text.NVIC_SetVTOR
                0x00000000       0x14 ./driver_source/lpc17xx_nvic.o
 .text          0x00000000        0x0 ./driver_source/lpc17xx_pinsel.o
 .data          0x00000000        0x0 ./driver_source/lpc17xx_pinsel.o
 .bss           0x00000000        0x0 ./driver_source/lpc17xx_pinsel.o
 .text.PINSEL_SetPinFunc
                0x00000000       0x30 ./driver_source/lpc17xx_pinsel.o
 .text.PINSEL_ConfigTraceFunc
                0x00000000       0x30 ./driver_source/lpc17xx_pinsel.o
 .text.PINSEL_SetResistorMode
                0x00000000       0x30 ./driver_source/lpc17xx_pinsel.o
 .text.PINSEL_SetOpenDrainMode
                0x00000000       0x3c ./driver_source/lpc17xx_pinsel.o
 .text.PINSEL_SetI2C0Pins
                0x00000000       0x14 ./driver_source/lpc17xx_pinsel.o
 .text          0x00000000        0x0 ./driver_source/lpc17xx_pwm.o
 .data          0x00000000        0x0 ./driver_source/lpc17xx_pwm.o
 .bss           0x00000000        0x0 ./driver_source/lpc17xx_pwm.o
 .text.PWM_GetIntStatus
                0x00000000       0x90 ./driver_source/lpc17xx_pwm.o
 .text.PWM_ClearIntPending
                0x00000000       0x88 ./driver_source/lpc17xx_pwm.o
 .text.PWM_ConfigStructInit
                0x00000000       0x28 ./driver_source/lpc17xx_pwm.o
 .text.PWM_Init
                0x00000000      0x104 ./driver_source/lpc17xx_pwm.o
 .text.PWM_DeInit
                0x00000000       0x3c ./driver_source/lpc17xx_pwm.o
 .text.PWM_Cmd  0x00000000       0x48 ./driver_source/lpc17xx_pwm.o
 .text.PWM_CounterCmd
                0x00000000       0x4c ./driver_source/lpc17xx_pwm.o
 .text.PWM_ResetCounter
                0x00000000       0x34 ./driver_source/lpc17xx_pwm.o
 .text.PWM_ConfigMatch
                0x00000000      0x150 ./driver_source/lpc17xx_pwm.o
 .text.PWM_ConfigCapture
                0x00000000      0x158 ./driver_source/lpc17xx_pwm.o
 .text.PWM_GetCaptureValue
                0x00000000       0x48 ./driver_source/lpc17xx_pwm.o
 .text.PWM_MatchUpdate
                0x00000000       0xc8 ./driver_source/lpc17xx_pwm.o
 .text.PWM_ChannelConfig
                0x00000000       0x9c ./driver_source/lpc17xx_pwm.o
 .text.PWM_ChannelCmd
                0x00000000       0x84 ./driver_source/lpc17xx_pwm.o
 .rodata.str1.4
                0x00000000       0x20 ./driver_source/lpc17xx_pwm.o
 .text          0x00000000        0x0 ./driver_source/lpc17xx_qei.o
 .data          0x00000000        0x0 ./driver_source/lpc17xx_qei.o
 .bss           0x00000000        0x0 ./driver_source/lpc17xx_qei.o
 .text.QEI_Reset
                0x00000000       0x4c ./driver_source/lpc17xx_qei.o
 .text.QEI_Init
                0x00000000       0x5c ./driver_source/lpc17xx_qei.o
 .text.QEI_DeInit
                0x00000000       0x2c ./driver_source/lpc17xx_qei.o
 .text.QEI_ConfigStructInit
                0x00000000       0x14 ./driver_source/lpc17xx_qei.o
 .text.QEI_GetStatus
                0x00000000       0x40 ./driver_source/lpc17xx_qei.o
 .text.QEI_GetPosition
                0x00000000       0x24 ./driver_source/lpc17xx_qei.o
 .text.QEI_SetMaxPosition
                0x00000000       0x24 ./driver_source/lpc17xx_qei.o
 .text.QEI_SetPositionComp
                0x00000000       0x3c ./driver_source/lpc17xx_qei.o
 .text.QEI_GetIndex
                0x00000000       0x24 ./driver_source/lpc17xx_qei.o
 .text.QEI_SetIndexComp
                0x00000000       0x24 ./driver_source/lpc17xx_qei.o
 .text.QEI_SetTimerReload
                0x00000000       0x6c ./driver_source/lpc17xx_qei.o
 .text.QEI_GetTimer
                0x00000000       0x24 ./driver_source/lpc17xx_qei.o
 .text.QEI_GetVelocity
                0x00000000       0x24 ./driver_source/lpc17xx_qei.o
 .text.QEI_GetVelocityCap
                0x00000000       0x24 ./driver_source/lpc17xx_qei.o
 .text.QEI_SetVelocityComp
                0x00000000       0x28 ./driver_source/lpc17xx_qei.o
 .text.QEI_SetDigiFilter
                0x00000000       0x28 ./driver_source/lpc17xx_qei.o
 .text.QEI_GetIntStatus
                0x00000000       0xc4 ./driver_source/lpc17xx_qei.o
 .text.QEI_IntCmd
                0x00000000       0xe0 ./driver_source/lpc17xx_qei.o
 .text.QEI_IntSet
                0x00000000       0xbc ./driver_source/lpc17xx_qei.o
 .text.QEI_IntClear
                0x00000000       0xbc ./driver_source/lpc17xx_qei.o
 .text.QEI_CalculateRPM
                0x00000000       0x4c ./driver_source/lpc17xx_qei.o
 .rodata.str1.4
                0x00000000       0x20 ./driver_source/lpc17xx_qei.o
 .text          0x00000000        0x0 ./driver_source/lpc17xx_rit.o
 .data          0x00000000        0x0 ./driver_source/lpc17xx_rit.o
 .bss           0x00000000        0x0 ./driver_source/lpc17xx_rit.o
 .text.RIT_Init
                0x00000000       0x38 ./driver_source/lpc17xx_rit.o
 .text.RIT_DeInit
                0x00000000       0x38 ./driver_source/lpc17xx_rit.o
 .text.RIT_TimerConfig
                0x00000000       0x2c ./driver_source/lpc17xx_rit.o
 .text.RIT_Cmd  0x00000000       0x48 ./driver_source/lpc17xx_rit.o
 .text.RIT_TimerClearCmd
                0x00000000       0x48 ./driver_source/lpc17xx_rit.o
 .text.RIT_TimerEnableOnBreakCmd
                0x00000000       0x48 ./driver_source/lpc17xx_rit.o
 .text.RIT_GetIntStatus
                0x00000000       0x30 ./driver_source/lpc17xx_rit.o
 .rodata.str1.4
                0x00000000       0x20 ./driver_source/lpc17xx_rit.o
 .text          0x00000000        0x0 ./driver_source/lpc17xx_rtc.o
 .data          0x00000000        0x0 ./driver_source/lpc17xx_rtc.o
 .bss           0x00000000        0x0 ./driver_source/lpc17xx_rtc.o
 .text.RTC_DeInit
                0x00000000       0x30 ./driver_source/lpc17xx_rtc.o
 .text.RTC_CntIncrIntConfig
                0x00000000      0x11c ./driver_source/lpc17xx_rtc.o
 .text.RTC_AlarmIntConfig
                0x00000000      0x11c ./driver_source/lpc17xx_rtc.o
 .text.RTC_GetTime
                0x00000000       0x98 ./driver_source/lpc17xx_rtc.o
 .text.RTC_SetFullTime
                0x00000000       0x70 ./driver_source/lpc17xx_rtc.o
 .text.RTC_SetAlarmTime
                0x00000000      0x134 ./driver_source/lpc17xx_rtc.o
 .text.RTC_GetAlarmTime
                0x00000000       0x64 ./driver_source/lpc17xx_rtc.o
 .text.RTC_SetFullAlarmTime
                0x00000000       0x74 ./driver_source/lpc17xx_rtc.o
 .text.RTC_GetFullAlarmTime
                0x00000000       0x74 ./driver_source/lpc17xx_rtc.o
 .text.RTC_GetIntPending
                0x00000000       0x44 ./driver_source/lpc17xx_rtc.o
 .text.RTC_ClearIntPending
                0x00000000       0x40 ./driver_source/lpc17xx_rtc.o
 .text.RTC_CalibConfig
                0x00000000       0x6c ./driver_source/lpc17xx_rtc.o
 .text.RTC_WriteGPREG
                0x00000000       0x40 ./driver_source/lpc17xx_rtc.o
 .text.RTC_ReadGPREG
                0x00000000       0x40 ./driver_source/lpc17xx_rtc.o
 .text          0x00000000        0x0 ./driver_source/lpc17xx_sd.o
 .text.LPC17xx_SPI_Select
                0x00000000       0x14 ./driver_source/lpc17xx_sd.o
 .text.LPC17xx_SPI_DeSelect
                0x00000000       0x14 ./driver_source/lpc17xx_sd.o
 .text.LPC17xx_SPI_Release
                0x00000000       0x1c ./driver_source/lpc17xx_sd.o
 .text.disk_timerproc
                0x00000000       0x30 ./driver_source/lpc17xx_sd.o
 .text          0x00000000        0x0 ./driver_source/lpc17xx_spi.o
 .data          0x00000000        0x0 ./driver_source/lpc17xx_spi.o
 .text.SPI_SetClock
                0x00000000       0x88 ./driver_source/lpc17xx_spi.o
 .text.SPI_DeInit
                0x00000000       0x38 ./driver_source/lpc17xx_spi.o
 .text.SPI_ReadWrite
                0x00000000      0x20c ./driver_source/lpc17xx_spi.o
 .text.SPI_IntCmd
                0x00000000       0x50 ./driver_source/lpc17xx_spi.o
 .text.SPI_GetIntStatus
                0x00000000       0x28 ./driver_source/lpc17xx_spi.o
 .text.SPI_ClearIntPending
                0x00000000       0x24 ./driver_source/lpc17xx_spi.o
 .text.SPI_GetStatus
                0x00000000       0x28 ./driver_source/lpc17xx_spi.o
 .text.SPI_CheckStatus
                0x00000000       0x4c ./driver_source/lpc17xx_spi.o
 .text.SPI_StdIntHandler
                0x00000000       0x10 ./driver_source/lpc17xx_spi.o
 .text          0x00000000        0x0 ./driver_source/lpc17xx_ssp.o
 .data          0x00000000        0x0 ./driver_source/lpc17xx_ssp.o
 .text.SSP_IntHandler
                0x00000000      0x2e0 ./driver_source/lpc17xx_ssp.o
 .text.SSP_SetClock
                0x00000000       0xa4 ./driver_source/lpc17xx_ssp.o
 .text.SSP_DeInit
                0x00000000       0x6c ./driver_source/lpc17xx_ssp.o
 .text.SSP_Init
                0x00000000      0x150 ./driver_source/lpc17xx_ssp.o
 .text.SSP_ConfigStructInit
                0x00000000       0x1c ./driver_source/lpc17xx_ssp.o
 .text.SSP_Cmd  0x00000000       0x64 ./driver_source/lpc17xx_ssp.o
 .text.SSP_LoopBackCmd
                0x00000000       0x64 ./driver_source/lpc17xx_ssp.o
 .text.SSP_SlaveOutputCmd
                0x00000000       0x64 ./driver_source/lpc17xx_ssp.o
 .text.SSP_SendData
                0x00000000       0x3c ./driver_source/lpc17xx_ssp.o
 .text.SSP_ReceiveData
                0x00000000       0x3c ./driver_source/lpc17xx_ssp.o
 .text.SSP_ReadWrite
                0x00000000      0x4d4 ./driver_source/lpc17xx_ssp.o
 .text.SSP_GetStatus
                0x00000000       0x8c ./driver_source/lpc17xx_ssp.o
 .text.SSP_IntConfig
                0x00000000       0x78 ./driver_source/lpc17xx_ssp.o
 .text.SSP_GetRawIntStatus
                0x00000000       0x6c ./driver_source/lpc17xx_ssp.o
 .text.SSP_GetIntStatus
                0x00000000       0x6c ./driver_source/lpc17xx_ssp.o
 .text.SSP_ClearIntPending
                0x00000000       0x54 ./driver_source/lpc17xx_ssp.o
 .text.SSP_DMACmd
                0x00000000       0x7c ./driver_source/lpc17xx_ssp.o
 .rodata.str1.4
                0x00000000       0x20 ./driver_source/lpc17xx_ssp.o
 .text          0x00000000        0x0 ./driver_source/lpc17xx_timer.o
 .data          0x00000000        0x0 ./driver_source/lpc17xx_timer.o
 .bss           0x00000000        0x0 ./driver_source/lpc17xx_timer.o
 .text.TIM_GetPClock
                0x00000000       0x28 ./driver_source/lpc17xx_timer.o
 .text.TIM_ConverUSecToVal
                0x00000000       0x80 ./driver_source/lpc17xx_timer.o
 .text.TIM_ConverPtrToTimeNum
                0x00000000       0x44 ./driver_source/lpc17xx_timer.o
 .text.TIM_GetIntStatus
                0x00000000       0x84 ./driver_source/lpc17xx_timer.o
 .text.TIM_GetIntCaptureStatus
                0x00000000       0x84 ./driver_source/lpc17xx_timer.o
 .text.TIM_ClearIntPending
                0x00000000       0x78 ./driver_source/lpc17xx_timer.o
 .text.TIM_ClearIntCapturePending
                0x00000000       0x7c ./driver_source/lpc17xx_timer.o
 .text.TIM_ConfigStructInit
                0x00000000       0x10 ./driver_source/lpc17xx_timer.o
 .text.TIM_Init
                0x00000000      0x1b0 ./driver_source/lpc17xx_timer.o
 .text.TIM_DeInit
                0x00000000       0xac ./driver_source/lpc17xx_timer.o
 .text.TIM_Cmd  0x00000000       0x6c ./driver_source/lpc17xx_timer.o
 .text.TIM_ResetCounter
                0x00000000       0x6c ./driver_source/lpc17xx_timer.o
 .text.TIM_ConfigMatch
                0x00000000      0x118 ./driver_source/lpc17xx_timer.o
 .text.TIM_ConfigCapture
                0x00000000       0xc0 ./driver_source/lpc17xx_timer.o
 .text.TIM_GetCaptureValue
                0x00000000       0x7c ./driver_source/lpc17xx_timer.o
 .rodata.str1.4
                0x00000000       0x24 ./driver_source/lpc17xx_timer.o
 .text          0x00000000        0x0 ./driver_source/lpc17xx_uart.o
 .data          0x00000000        0x0 ./driver_source/lpc17xx_uart.o
 .text.UART_Send.clone.1
                0x00000000      0x1e8 ./driver_source/lpc17xx_uart.o
 .text.getUartNum
                0x00000000       0x30 ./driver_source/lpc17xx_uart.o
 .text.UART_SendData
                0x00000000       0x60 ./driver_source/lpc17xx_uart.o
 .text.UART_ReceiveData
                0x00000000       0x60 ./driver_source/lpc17xx_uart.o
 .text.UART_ForceBreak
                0x00000000       0x6c ./driver_source/lpc17xx_uart.o
 .text.UART_IrDAInvtInputCmd
                0x00000000       0x5c ./driver_source/lpc17xx_uart.o
 .text.UART_IrDACmd
                0x00000000       0x54 ./driver_source/lpc17xx_uart.o
 .text.UART_IrDAPulseDivConfig
                0x00000000       0x54 ./driver_source/lpc17xx_uart.o
 .text.UART_GetLineStatus
                0x00000000       0x60 ./driver_source/lpc17xx_uart.o
 .text.UART_ABCmd
                0x00000000       0xfc ./driver_source/lpc17xx_uart.o
 .text.UART_FullModemConfigMode
                0x00000000       0x78 ./driver_source/lpc17xx_uart.o
 .text.UART_FullModemGetStatus
                0x00000000       0x24 ./driver_source/lpc17xx_uart.o
 .text.UART_RS485Config
                0x00000000      0x13c ./driver_source/lpc17xx_uart.o
 .text.UART_RS485ReceiverCmd
                0x00000000       0x18 ./driver_source/lpc17xx_uart.o
 .text.UART_RS485Send
                0x00000000       0x2c ./driver_source/lpc17xx_uart.o
 .text.UART_RS485SendSlvAddr
                0x00000000       0x2c ./driver_source/lpc17xx_uart.o
 .text.UART_RS485SendData
                0x00000000       0x14 ./driver_source/lpc17xx_uart.o
 .text          0x00000000        0x0 ./driver_source/lpc17xx_wdt.o
 .data          0x00000000        0x0 ./driver_source/lpc17xx_wdt.o
 .bss           0x00000000        0x0 ./driver_source/lpc17xx_wdt.o
 .text.WDT_SetTimeOut
                0x00000000       0xa0 ./driver_source/lpc17xx_wdt.o
 .text.WDT_Init
                0x00000000       0x80 ./driver_source/lpc17xx_wdt.o
 .text.WDT_Start
                0x00000000       0xa4 ./driver_source/lpc17xx_wdt.o
 .text.WDT_ReadTimeOutFlag
                0x00000000        0xc ./driver_source/lpc17xx_wdt.o
 .text.WDT_ClrTimeOutFlag
                0x00000000       0x10 ./driver_source/lpc17xx_wdt.o
 .text.WDT_UpdateTimeOut
                0x00000000       0x98 ./driver_source/lpc17xx_wdt.o
 .text.WDT_Feed
                0x00000000       0x14 ./driver_source/lpc17xx_wdt.o
 .text.WDT_GetCurrentCount
                0x00000000        0x8 ./driver_source/lpc17xx_wdt.o
 .rodata.str1.4
                0x00000000       0x20 ./driver_source/lpc17xx_wdt.o
 .text          0x00000000        0x0 ./UsbHost/Uart/usbhost_uart.o
 .data          0x00000000        0x0 ./UsbHost/Uart/usbhost_uart.o
 .text.UARTSend_usb
                0x00000000      0x1c0 ./UsbHost/Uart/usbhost_uart.o
 .text.UARTReceive_usb
                0x00000000      0x15c ./UsbHost/Uart/usbhost_uart.o
 .text.UART1_ModemCallBack_usb
                0x00000000       0x24 ./UsbHost/Uart/usbhost_uart.o
 .text.UART_PrintChar
                0x00000000       0x1c ./UsbHost/Uart/usbhost_uart.o
 .text.UART_PrintStr
                0x00000000       0x70 ./UsbHost/Uart/usbhost_uart.o
 .text          0x00000000        0x0 ./UsbHost/MassStorage/usbhost_ms.o
 .data          0x00000000        0x0 ./UsbHost/MassStorage/usbhost_ms.o
 .bss           0x00000000        0x0 ./UsbHost/MassStorage/usbhost_ms.o
 .text.MS_GetMaxLUN
                0x00000000       0x24 ./UsbHost/MassStorage/usbhost_ms.o
 .text.MS_GetSenseInfo
                0x00000000       0x78 ./UsbHost/MassStorage/usbhost_ms.o
 .text          0x00000000        0x0 ./UsbHost/Main/usbhost_main.o
 .data          0x00000000        0x0 ./UsbHost/Main/usbhost_main.o
 .text          0x00000000        0x0 ./UsbHost/Host/usb_ms_diskio.o
 .text.FAT_GetFATType_USB
                0x00000000       0x10 ./UsbHost/Host/usb_ms_diskio.o
 .text.USB_disk_timerproc
                0x00000000       0x28 ./UsbHost/Host/usb_ms_diskio.o
 .text          0x00000000        0x0 ./UsbHost/Host/usbhost_lpc17xx.o
 .data          0x00000000        0x0 ./UsbHost/Host/usbhost_lpc17xx.o
 .text.Host_DelayMS
                0x00000000        0x4 ./UsbHost/Host/usbhost_lpc17xx.o
 .text.Host_DelayUS
                0x00000000        0x4 ./UsbHost/Host/usbhost_lpc17xx.o
 .text.Host_CtrlSend
                0x00000000      0x120 ./UsbHost/Host/usbhost_lpc17xx.o
 .text.Host_FillSetup
                0x00000000       0xd8 ./UsbHost/Host/usbhost_lpc17xx.o
 .text.Host_TDInit
                0x00000000        0xc ./UsbHost/Host/usbhost_lpc17xx.o
 .text.Host_EDInit
                0x00000000        0xc ./UsbHost/Host/usbhost_lpc17xx.o
 .text.Host_HCCAInit
                0x00000000       0x48 ./UsbHost/Host/usbhost_lpc17xx.o
 .text.Host_WDHWait
                0x00000000       0x1c ./UsbHost/Host/usbhost_lpc17xx.o
 .text.ReadLE32U
                0x00000000       0x24 ./UsbHost/Host/usbhost_lpc17xx.o
 .text.WriteLE16U
                0x00000000       0x10 ./UsbHost/Host/usbhost_lpc17xx.o
 .text.ReadBE16U
                0x00000000       0x18 ./UsbHost/Host/usbhost_lpc17xx.o
 .text          0x00000000        0x0 ./LPCUSB/USB_CDC.o
 .data          0x00000000        0x8 ./LPCUSB/USB_CDC.o
 .bss           0x00000000       0x50 ./LPCUSB/USB_CDC.o
 .text.USBFrameHandler
                0x00000000       0x20 ./LPCUSB/USB_CDC.o
 .text.BulkOut  0x00000000       0xcc ./LPCUSB/USB_CDC.o
 .text.BulkIn   0x00000000       0x98 ./LPCUSB/USB_CDC.o
 .text.HandleClassRequest
                0x00000000       0x40 ./LPCUSB/USB_CDC.o
 .text.VCOM_putchar
                0x00000000       0x2c ./LPCUSB/USB_CDC.o
 .text.VCOM_getchar
                0x00000000       0x24 ./LPCUSB/USB_CDC.o
 .text.USB_IRQHandler
                0x00000000        0x4 ./LPCUSB/USB_CDC.o
 .text.CPUcpsie
                0x00000000        0xc ./LPCUSB/USB_CDC.o
 .text.vUSBTask
                0x00000000      0x13c ./LPCUSB/USB_CDC.o
 .rodata        0x00000000       0x90 ./LPCUSB/USB_CDC.o
 .rodata.str1.4
                0x00000000       0x58 ./LPCUSB/USB_CDC.o
 .text          0x00000000        0x0 ./LPCUSB/usbcontrol.o
 .data          0x00000000        0x0 ./LPCUSB/usbcontrol.o
 .bss           0x00000000       0x34 ./LPCUSB/usbcontrol.o
 .text.USBHandleControlTransfer
                0x00000000      0x120 ./LPCUSB/usbcontrol.o
 .text.USBRegisterRequestHandler
                0x00000000       0x14 ./LPCUSB/usbcontrol.o
 .text          0x00000000        0x0 ./LPCUSB/usbhw_lpc.o
 .data          0x00000000        0x0 ./LPCUSB/usbhw_lpc.o
 .bss           0x00000000       0x48 ./LPCUSB/usbhw_lpc.o
 .text.USBHwEPConfig
                0x00000000       0x9c ./LPCUSB/usbhw_lpc.o
 .text.USBHwRegisterEPIntHandler
                0x00000000       0x44 ./LPCUSB/usbhw_lpc.o
 .text.USBHwRegisterDevIntHandler
                0x00000000       0x20 ./LPCUSB/usbhw_lpc.o
 .text.USBHwRegisterFrameHandler
                0x00000000       0x20 ./LPCUSB/usbhw_lpc.o
 .text.USBHwSetAddress
                0x00000000       0x5c ./LPCUSB/usbhw_lpc.o
 .text.USBHwConnect
                0x00000000       0x60 ./LPCUSB/usbhw_lpc.o
 .text.USBHwNakIntEnable
                0x00000000       0x58 ./LPCUSB/usbhw_lpc.o
 .text.USBHwEPGetStatus
                0x00000000       0x68 ./LPCUSB/usbhw_lpc.o
 .text.USBHwEPStall
                0x00000000       0x6c ./LPCUSB/usbhw_lpc.o
 .text.USBHwEPWrite
                0x00000000       0xb8 ./LPCUSB/usbhw_lpc.o
 .text.USBHwEPRead
                0x00000000      0x1d0 ./LPCUSB/usbhw_lpc.o
 .text.USBHwConfigDevice
                0x00000000       0x60 ./LPCUSB/usbhw_lpc.o
 .text.USBHwISR
                0x00000000      0x174 ./LPCUSB/usbhw_lpc.o
 .text.USBHwInit
                0x00000000      0x104 ./LPCUSB/usbhw_lpc.o
 .text          0x00000000        0x0 ./LPCUSB/usbinit.o
 .data          0x00000000        0x0 ./LPCUSB/usbinit.o
 .bss           0x00000000        0x8 ./LPCUSB/usbinit.o
 .text.HandleUsbReset
                0x00000000        0x4 ./LPCUSB/usbinit.o
 .text.USBInit  0x00000000       0x54 ./LPCUSB/usbinit.o
 .text          0x00000000        0x0 ./LPCUSB/usbstdreq.o
 .data          0x00000000        0x0 ./LPCUSB/usbstdreq.o
 .bss           0x00000000        0xc ./LPCUSB/usbstdreq.o
 .text.USBRegisterDescriptors
                0x00000000        0xc ./LPCUSB/usbstdreq.o
 .text.USBGetDescriptor
                0x00000000       0x58 ./LPCUSB/usbstdreq.o
 .text.USBHandleStandardRequest
                0x00000000      0x1c0 ./LPCUSB/usbstdreq.o
 .text.USBRegisterCustomReqHandler
                0x00000000        0xc ./LPCUSB/usbstdreq.o
 .text          0x00000000        0x0 ./FatFs/option/cc932.o
 .data          0x00000000        0x0 ./FatFs/option/cc932.o
 .bss           0x00000000        0x0 ./FatFs/option/cc932.o
 .text          0x00000000        0x0 ./FatFs/option/syncobj.o
 .data          0x00000000        0x0 ./FatFs/option/syncobj.o
 .bss           0x00000000        0x0 ./FatFs/option/syncobj.o
 .text          0x00000000        0x0 ./FatFs/option/syscall.o
 .data          0x00000000        0x0 ./FatFs/option/syscall.o
 .bss           0x00000000        0x0 ./FatFs/option/syscall.o
 .text          0x00000000        0x0 ./FatFs/diskio.o
 .data          0x00000000        0x0 ./FatFs/diskio.o
 .bss           0x00000000        0x0 ./FatFs/diskio.o
 .text          0x00000000        0x0 ./FatFs/ff.o
 .data          0x00000000        0x0 ./FatFs/ff.o
 .text.clust2sect
                0x00000000       0x18 ./FatFs/ff.o
 .text.f_stat   0x00000000       0x4c ./FatFs/ff.o
 .text.f_getfree
                0x00000000      0x268 ./FatFs/ff.o
 .text.f_chmod  0x00000000       0x68 ./FatFs/ff.o
 .text.f_utime  0x00000000       0x70 ./FatFs/ff.o
 .text.f_rename
                0x00000000      0x2dc ./FatFs/ff.o
 .text.f_mkfs   0x00000000      0x8c8 ./FatFs/ff.o
 .rodata        0x00000000       0x30 ./FatFs/ff.o
 .text          0x00000000        0x0 /home/nlv14991/workspaceLPC/STE-LPC1768-/CMSISv1p30_LPC17xx/Debug/libCMSISv1p30_LPC17xx.a(system_LPC17xx.o)
 .bss           0x00000000        0x0 /home/nlv14991/workspaceLPC/STE-LPC1768-/CMSISv1p30_LPC17xx/Debug/libCMSISv1p30_LPC17xx.a(system_LPC17xx.o)
 .text.SystemCoreClockUpdate
                0x00000000       0xdc /home/nlv14991/workspaceLPC/STE-LPC1768-/CMSISv1p30_LPC17xx/Debug/libCMSISv1p30_LPC17xx.a(system_LPC17xx.o)
 .data          0x00000000        0x0 /home/nlv14991/workspaceLPC/STE-LPC1768-/FreeRTOS_Library/Debug/libFreeRTOS_Library.a(queue.o)
 .bss           0x00000000        0x0 /home/nlv14991/workspaceLPC/STE-LPC1768-/FreeRTOS_Library/Debug/libFreeRTOS_Library.a(queue.o)
 .data          0x00000000        0x0 /home/nlv14991/workspaceLPC/STE-LPC1768-/FreeRTOS_Library/Debug/libFreeRTOS_Library.a(tasks.o)
 .data          0x00000000        0x0 /home/nlv14991/workspaceLPC/STE-LPC1768-/FreeRTOS_Library/Debug/libFreeRTOS_Library.a(heap_2.o)
 .bss           0x00000000        0x0 /home/nlv14991/workspaceLPC/STE-LPC1768-/FreeRTOS_Library/Debug/libFreeRTOS_Library.a(port.o)
 .rodata        0x00000000        0x4 /home/nlv14991/workspaceLPC/STE-LPC1768-/FreeRTOS_Library/Debug/libFreeRTOS_Library.a(port.o)
 .data          0x00000000        0x0 /home/nlv14991/workspaceLPC/STE-LPC1768-/FreeRTOS_Library/Debug/libFreeRTOS_Library.a(list.o)
 .bss           0x00000000        0x0 /home/nlv14991/workspaceLPC/STE-LPC1768-/FreeRTOS_Library/Debug/libFreeRTOS_Library.a(list.o)
 .text          0x00000000        0x0 /usr/local/lpcxpresso_4.2.3_255/lpcxpresso/tools/bin/../lib/gcc/arm-none-eabi/4.5.1/../../../../arm-none-eabi/lib/thumb2/libcr_c.a(fpprintf.o)
 .data          0x00000000        0x0 /usr/local/lpcxpresso_4.2.3_255/lpcxpresso/tools/bin/../lib/gcc/arm-none-eabi/4.5.1/../../../../arm-none-eabi/lib/thumb2/libcr_c.a(fpprintf.o)
 .bss           0x00000000        0x0 /usr/local/lpcxpresso_4.2.3_255/lpcxpresso/tools/bin/../lib/gcc/arm-none-eabi/4.5.1/../../../../arm-none-eabi/lib/thumb2/libcr_c.a(fpprintf.o)
 .text.fprintf  0x00000000       0x30 /usr/local/lpcxpresso_4.2.3_255/lpcxpresso/tools/bin/../lib/gcc/arm-none-eabi/4.5.1/../../../../arm-none-eabi/lib/thumb2/libcr_c.a(fpprintf.o)
 .text.printf_char
                0x00000000       0x34 /usr/local/lpcxpresso_4.2.3_255/lpcxpresso/tools/bin/../lib/gcc/arm-none-eabi/4.5.1/../../../../arm-none-eabi/lib/thumb2/libcr_c.a(fpprintf.o)
 .text.vfprintf
                0x00000000       0x1c /usr/local/lpcxpresso_4.2.3_255/lpcxpresso/tools/bin/../lib/gcc/arm-none-eabi/4.5.1/../../../../arm-none-eabi/lib/thumb2/libcr_c.a(fpprintf.o)
 .text.vprintf  0x00000000       0x24 /usr/local/lpcxpresso_4.2.3_255/lpcxpresso/tools/bin/../lib/gcc/arm-none-eabi/4.5.1/../../../../arm-none-eabi/lib/thumb2/libcr_c.a(fpprintf.o)
 .text.vsnprintf
                0x00000000       0x5c /usr/local/lpcxpresso_4.2.3_255/lpcxpresso/tools/bin/../lib/gcc/arm-none-eabi/4.5.1/../../../../arm-none-eabi/lib/thumb2/libcr_c.a(fpprintf.o)
 .text.printf   0x00000000       0x50 /usr/local/lpcxpresso_4.2.3_255/lpcxpresso/tools/bin/../lib/gcc/arm-none-eabi/4.5.1/../../../../arm-none-eabi/lib/thumb2/libcr_c.a(fpprintf.o)
 .text          0x00000000        0x0 /usr/local/lpcxpresso_4.2.3_255/lpcxpresso/tools/bin/../lib/gcc/arm-none-eabi/4.5.1/../../../../arm-none-eabi/lib/thumb2/libcr_c.a(memcmp.o)
 .data          0x00000000        0x0 /usr/local/lpcxpresso_4.2.3_255/lpcxpresso/tools/bin/../lib/gcc/arm-none-eabi/4.5.1/../../../../arm-none-eabi/lib/thumb2/libcr_c.a(memcmp.o)
 .bss           0x00000000        0x0 /usr/local/lpcxpresso_4.2.3_255/lpcxpresso/tools/bin/../lib/gcc/arm-none-eabi/4.5.1/../../../../arm-none-eabi/lib/thumb2/libcr_c.a(memcmp.o)
 .text          0x00000000        0x0 /usr/local/lpcxpresso_4.2.3_255/lpcxpresso/tools/bin/../lib/gcc/arm-none-eabi/4.5.1/../../../../arm-none-eabi/lib/thumb2/libcr_c.a(printf.o)
 .data          0x00000000        0x0 /usr/local/lpcxpresso_4.2.3_255/lpcxpresso/tools/bin/../lib/gcc/arm-none-eabi/4.5.1/../../../../arm-none-eabi/lib/thumb2/libcr_c.a(printf.o)
 .bss           0x00000000        0x0 /usr/local/lpcxpresso_4.2.3_255/lpcxpresso/tools/bin/../lib/gcc/arm-none-eabi/4.5.1/../../../../arm-none-eabi/lib/thumb2/libcr_c.a(printf.o)
 .text.no_fp_display
                0x00000000        0x4 /usr/local/lpcxpresso_4.2.3_255/lpcxpresso/tools/bin/../lib/gcc/arm-none-eabi/4.5.1/../../../../arm-none-eabi/lib/thumb2/libcr_c.a(printf.o)
 .text._fprintf
                0x00000000       0x30 /usr/local/lpcxpresso_4.2.3_255/lpcxpresso/tools/bin/../lib/gcc/arm-none-eabi/4.5.1/../../../../arm-none-eabi/lib/thumb2/libcr_c.a(printf.o)
 .text._printf_char
                0x00000000       0x34 /usr/local/lpcxpresso_4.2.3_255/lpcxpresso/tools/bin/../lib/gcc/arm-none-eabi/4.5.1/../../../../arm-none-eabi/lib/thumb2/libcr_c.a(printf.o)
 .text._sprintf
                0x00000000       0x70 /usr/local/lpcxpresso_4.2.3_255/lpcxpresso/tools/bin/../lib/gcc/arm-none-eabi/4.5.1/../../../../arm-none-eabi/lib/thumb2/libcr_c.a(printf.o)
 .text._snprintf
                0x00000000       0x6c /usr/local/lpcxpresso_4.2.3_255/lpcxpresso/tools/bin/../lib/gcc/arm-none-eabi/4.5.1/../../../../arm-none-eabi/lib/thumb2/libcr_c.a(printf.o)
 .text._vfprintf
                0x00000000       0x20 /usr/local/lpcxpresso_4.2.3_255/lpcxpresso/tools/bin/../lib/gcc/arm-none-eabi/4.5.1/../../../../arm-none-eabi/lib/thumb2/libcr_c.a(printf.o)
 .text._vsprintf
                0x00000000       0x5c /usr/local/lpcxpresso_4.2.3_255/lpcxpresso/tools/bin/../lib/gcc/arm-none-eabi/4.5.1/../../../../arm-none-eabi/lib/thumb2/libcr_c.a(printf.o)
 .text._vsnprintf
                0x00000000       0x5c /usr/local/lpcxpresso_4.2.3_255/lpcxpresso/tools/bin/../lib/gcc/arm-none-eabi/4.5.1/../../../../arm-none-eabi/lib/thumb2/libcr_c.a(printf.o)
 .text._printf  0x00000000       0x50 /usr/local/lpcxpresso_4.2.3_255/lpcxpresso/tools/bin/../lib/gcc/arm-none-eabi/4.5.1/../../../../arm-none-eabi/lib/thumb2/libcr_c.a(printf.o)
 .text          0x00000000        0x0 /usr/local/lpcxpresso_4.2.3_255/lpcxpresso/tools/bin/../lib/gcc/arm-none-eabi/4.5.1/../../../../arm-none-eabi/lib/thumb2/libcr_c.a(scanf.o)
 .data          0x00000000        0x0 /usr/local/lpcxpresso_4.2.3_255/lpcxpresso/tools/bin/../lib/gcc/arm-none-eabi/4.5.1/../../../../arm-none-eabi/lib/thumb2/libcr_c.a(scanf.o)
 .bss           0x00000000        0x0 /usr/local/lpcxpresso_4.2.3_255/lpcxpresso/tools/bin/../lib/gcc/arm-none-eabi/4.5.1/../../../../arm-none-eabi/lib/thumb2/libcr_c.a(scanf.o)
 .text._strtoul
                0x00000000       0xc0 /usr/local/lpcxpresso_4.2.3_255/lpcxpresso/tools/bin/../lib/gcc/arm-none-eabi/4.5.1/../../../../arm-none-eabi/lib/thumb2/libcr_c.a(scanf.o)
 .text._ncc_vfscanf
                0x00000000        0x4 /usr/local/lpcxpresso_4.2.3_255/lpcxpresso/tools/bin/../lib/gcc/arm-none-eabi/4.5.1/../../../../arm-none-eabi/lib/thumb2/libcr_c.a(scanf.o)
 .text.fscanf   0x00000000       0x18 /usr/local/lpcxpresso_4.2.3_255/lpcxpresso/tools/bin/../lib/gcc/arm-none-eabi/4.5.1/../../../../arm-none-eabi/lib/thumb2/libcr_c.a(scanf.o)
 .text.scanf    0x00000000       0x20 /usr/local/lpcxpresso_4.2.3_255/lpcxpresso/tools/bin/../lib/gcc/arm-none-eabi/4.5.1/../../../../arm-none-eabi/lib/thumb2/libcr_c.a(scanf.o)
 .text.strtod   0x00000000       0x38 /usr/local/lpcxpresso_4.2.3_255/lpcxpresso/tools/bin/../lib/gcc/arm-none-eabi/4.5.1/../../../../arm-none-eabi/lib/thumb2/libcr_c.a(scanf.o)
 .text.strtol   0x00000000       0x78 /usr/local/lpcxpresso_4.2.3_255/lpcxpresso/tools/bin/../lib/gcc/arm-none-eabi/4.5.1/../../../../arm-none-eabi/lib/thumb2/libcr_c.a(scanf.o)
 .text.strtoul  0x00000000       0x88 /usr/local/lpcxpresso_4.2.3_255/lpcxpresso/tools/bin/../lib/gcc/arm-none-eabi/4.5.1/../../../../arm-none-eabi/lib/thumb2/libcr_c.a(scanf.o)
 .text.atof     0x00000000       0x14 /usr/local/lpcxpresso_4.2.3_255/lpcxpresso/tools/bin/../lib/gcc/arm-none-eabi/4.5.1/../../../../arm-none-eabi/lib/thumb2/libcr_c.a(scanf.o)
 .text.atoi     0x00000000       0x18 /usr/local/lpcxpresso_4.2.3_255/lpcxpresso/tools/bin/../lib/gcc/arm-none-eabi/4.5.1/../../../../arm-none-eabi/lib/thumb2/libcr_c.a(scanf.o)
 .text.atol     0x00000000       0x18 /usr/local/lpcxpresso_4.2.3_255/lpcxpresso/tools/bin/../lib/gcc/arm-none-eabi/4.5.1/../../../../arm-none-eabi/lib/thumb2/libcr_c.a(scanf.o)
 .rodata.str1.1
                0x00000000        0x6 /usr/local/lpcxpresso_4.2.3_255/lpcxpresso/tools/bin/../lib/gcc/arm-none-eabi/4.5.1/../../../../arm-none-eabi/lib/thumb2/libcr_c.a(scanf.o)
 .text          0x00000000        0x0 /usr/local/lpcxpresso_4.2.3_255/lpcxpresso/tools/bin/../lib/gcc/arm-none-eabi/4.5.1/../../../../arm-none-eabi/lib/thumb2/libcr_c.a(stdio.o)
 .data          0x00000000        0x0 /usr/local/lpcxpresso_4.2.3_255/lpcxpresso/tools/bin/../lib/gcc/arm-none-eabi/4.5.1/../../../../arm-none-eabi/lib/thumb2/libcr_c.a(stdio.o)
 .bss           0x00000000        0x0 /usr/local/lpcxpresso_4.2.3_255/lpcxpresso/tools/bin/../lib/gcc/arm-none-eabi/4.5.1/../../../../arm-none-eabi/lib/thumb2/libcr_c.a(stdio.o)
 .text.fgetc    0x00000000       0x1a /usr/local/lpcxpresso_4.2.3_255/lpcxpresso/tools/bin/../lib/gcc/arm-none-eabi/4.5.1/../../../../arm-none-eabi/lib/thumb2/libcr_c.a(stdio.o)
 .text.fputc    0x00000000       0x22 /usr/local/lpcxpresso_4.2.3_255/lpcxpresso/tools/bin/../lib/gcc/arm-none-eabi/4.5.1/../../../../arm-none-eabi/lib/thumb2/libcr_c.a(stdio.o)
 .text.getc     0x00000000       0x1a /usr/local/lpcxpresso_4.2.3_255/lpcxpresso/tools/bin/../lib/gcc/arm-none-eabi/4.5.1/../../../../arm-none-eabi/lib/thumb2/libcr_c.a(stdio.o)
 .text.getchar  0x00000000       0x20 /usr/local/lpcxpresso_4.2.3_255/lpcxpresso/tools/bin/../lib/gcc/arm-none-eabi/4.5.1/../../../../arm-none-eabi/lib/thumb2/libcr_c.a(stdio.o)
 .text.putc     0x00000000       0x22 /usr/local/lpcxpresso_4.2.3_255/lpcxpresso/tools/bin/../lib/gcc/arm-none-eabi/4.5.1/../../../../arm-none-eabi/lib/thumb2/libcr_c.a(stdio.o)
 .text.putchar  0x00000000       0x24 /usr/local/lpcxpresso_4.2.3_255/lpcxpresso/tools/bin/../lib/gcc/arm-none-eabi/4.5.1/../../../../arm-none-eabi/lib/thumb2/libcr_c.a(stdio.o)
 .text.feof     0x00000000        0x8 /usr/local/lpcxpresso_4.2.3_255/lpcxpresso/tools/bin/../lib/gcc/arm-none-eabi/4.5.1/../../../../arm-none-eabi/lib/thumb2/libcr_c.a(stdio.o)
 .text.ferror   0x00000000        0x8 /usr/local/lpcxpresso_4.2.3_255/lpcxpresso/tools/bin/../lib/gcc/arm-none-eabi/4.5.1/../../../../arm-none-eabi/lib/thumb2/libcr_c.a(stdio.o)
 .text.clearerr
                0x00000000        0xe /usr/local/lpcxpresso_4.2.3_255/lpcxpresso/tools/bin/../lib/gcc/arm-none-eabi/4.5.1/../../../../arm-none-eabi/lib/thumb2/libcr_c.a(stdio.o)
 COMMON         0x00000000      0x140 /usr/local/lpcxpresso_4.2.3_255/lpcxpresso/tools/bin/../lib/gcc/arm-none-eabi/4.5.1/../../../../arm-none-eabi/lib/thumb2/libcr_c.a(stdio.o)
 .text          0x00000000        0x0 /usr/local/lpcxpresso_4.2.3_255/lpcxpresso/tools/bin/../lib/gcc/arm-none-eabi/4.5.1/../../../../arm-none-eabi/lib/thumb2/libcr_c.a(strcat.o)
 .data          0x00000000        0x0 /usr/local/lpcxpresso_4.2.3_255/lpcxpresso/tools/bin/../lib/gcc/arm-none-eabi/4.5.1/../../../../arm-none-eabi/lib/thumb2/libcr_c.a(strcat.o)
 .bss           0x00000000        0x0 /usr/local/lpcxpresso_4.2.3_255/lpcxpresso/tools/bin/../lib/gcc/arm-none-eabi/4.5.1/../../../../arm-none-eabi/lib/thumb2/libcr_c.a(strcat.o)
 .text          0x00000000        0x0 /usr/local/lpcxpresso_4.2.3_255/lpcxpresso/tools/bin/../lib/gcc/arm-none-eabi/4.5.1/../../../../arm-none-eabi/lib/thumb2/libcr_c.a(strchr.o)
 .data          0x00000000        0x0 /usr/local/lpcxpresso_4.2.3_255/lpcxpresso/tools/bin/../lib/gcc/arm-none-eabi/4.5.1/../../../../arm-none-eabi/lib/thumb2/libcr_c.a(strchr.o)
 .bss           0x00000000        0x0 /usr/local/lpcxpresso_4.2.3_255/lpcxpresso/tools/bin/../lib/gcc/arm-none-eabi/4.5.1/../../../../arm-none-eabi/lib/thumb2/libcr_c.a(strchr.o)
 .text          0x00000000        0x0 /usr/local/lpcxpresso_4.2.3_255/lpcxpresso/tools/bin/../lib/gcc/arm-none-eabi/4.5.1/../../../../arm-none-eabi/lib/thumb2/libcr_c.a(strcmp.o)
 .data          0x00000000        0x0 /usr/local/lpcxpresso_4.2.3_255/lpcxpresso/tools/bin/../lib/gcc/arm-none-eabi/4.5.1/../../../../arm-none-eabi/lib/thumb2/libcr_c.a(strcmp.o)
 .bss           0x00000000        0x0 /usr/local/lpcxpresso_4.2.3_255/lpcxpresso/tools/bin/../lib/gcc/arm-none-eabi/4.5.1/../../../../arm-none-eabi/lib/thumb2/libcr_c.a(strcmp.o)
 .text          0x00000000        0x0 /usr/local/lpcxpresso_4.2.3_255/lpcxpresso/tools/bin/../lib/gcc/arm-none-eabi/4.5.1/../../../../arm-none-eabi/lib/thumb2/libcr_c.a(strcpy.o)
 .data          0x00000000        0x0 /usr/local/lpcxpresso_4.2.3_255/lpcxpresso/tools/bin/../lib/gcc/arm-none-eabi/4.5.1/../../../../arm-none-eabi/lib/thumb2/libcr_c.a(strcpy.o)
 .bss           0x00000000        0x0 /usr/local/lpcxpresso_4.2.3_255/lpcxpresso/tools/bin/../lib/gcc/arm-none-eabi/4.5.1/../../../../arm-none-eabi/lib/thumb2/libcr_c.a(strcpy.o)
 .text          0x00000000        0x0 /usr/local/lpcxpresso_4.2.3_255/lpcxpresso/tools/bin/../lib/gcc/arm-none-eabi/4.5.1/../../../../arm-none-eabi/lib/thumb2/libcr_c.a(strlen.o)
 .data          0x00000000        0x0 /usr/local/lpcxpresso_4.2.3_255/lpcxpresso/tools/bin/../lib/gcc/arm-none-eabi/4.5.1/../../../../arm-none-eabi/lib/thumb2/libcr_c.a(strlen.o)
 .bss           0x00000000        0x0 /usr/local/lpcxpresso_4.2.3_255/lpcxpresso/tools/bin/../lib/gcc/arm-none-eabi/4.5.1/../../../../arm-none-eabi/lib/thumb2/libcr_c.a(strlen.o)
 .text          0x00000000        0x0 /usr/local/lpcxpresso_4.2.3_255/lpcxpresso/tools/bin/../lib/gcc/arm-none-eabi/4.5.1/../../../../arm-none-eabi/lib/thumb2/libcr_c.a(strncmp.o)
 .data          0x00000000        0x0 /usr/local/lpcxpresso_4.2.3_255/lpcxpresso/tools/bin/../lib/gcc/arm-none-eabi/4.5.1/../../../../arm-none-eabi/lib/thumb2/libcr_c.a(strncmp.o)
 .bss           0x00000000        0x0 /usr/local/lpcxpresso_4.2.3_255/lpcxpresso/tools/bin/../lib/gcc/arm-none-eabi/4.5.1/../../../../arm-none-eabi/lib/thumb2/libcr_c.a(strncmp.o)
 .text          0x00000000        0x0 /usr/local/lpcxpresso_4.2.3_255/lpcxpresso/tools/bin/../lib/gcc/arm-none-eabi/4.5.1/../../../../arm-none-eabi/lib/thumb2/libcr_c.a(strncpy.o)
 .data          0x00000000        0x0 /usr/local/lpcxpresso_4.2.3_255/lpcxpresso/tools/bin/../lib/gcc/arm-none-eabi/4.5.1/../../../../arm-none-eabi/lib/thumb2/libcr_c.a(strncpy.o)
 .bss           0x00000000        0x0 /usr/local/lpcxpresso_4.2.3_255/lpcxpresso/tools/bin/../lib/gcc/arm-none-eabi/4.5.1/../../../../arm-none-eabi/lib/thumb2/libcr_c.a(strncpy.o)
 .text          0x00000000        0x0 /usr/local/lpcxpresso_4.2.3_255/lpcxpresso/tools/bin/../lib/gcc/arm-none-eabi/4.5.1/../../../../arm-none-eabi/lib/thumb2/libcr_c.a(strrchr.o)
 .data          0x00000000        0x0 /usr/local/lpcxpresso_4.2.3_255/lpcxpresso/tools/bin/../lib/gcc/arm-none-eabi/4.5.1/../../../../arm-none-eabi/lib/thumb2/libcr_c.a(strrchr.o)
 .bss           0x00000000        0x0 /usr/local/lpcxpresso_4.2.3_255/lpcxpresso/tools/bin/../lib/gcc/arm-none-eabi/4.5.1/../../../../arm-none-eabi/lib/thumb2/libcr_c.a(strrchr.o)
 .text          0x00000000        0x0 /usr/local/lpcxpresso_4.2.3_255/lpcxpresso/tools/bin/../lib/gcc/arm-none-eabi/4.5.1/../../../../arm-none-eabi/lib/thumb2/libcr_c.a(strstr.o)
 .data          0x00000000        0x0 /usr/local/lpcxpresso_4.2.3_255/lpcxpresso/tools/bin/../lib/gcc/arm-none-eabi/4.5.1/../../../../arm-none-eabi/lib/thumb2/libcr_c.a(strstr.o)
 .bss           0x00000000        0x0 /usr/local/lpcxpresso_4.2.3_255/lpcxpresso/tools/bin/../lib/gcc/arm-none-eabi/4.5.1/../../../../arm-none-eabi/lib/thumb2/libcr_c.a(strstr.o)
 .text          0x00000000        0x0 /usr/local/lpcxpresso_4.2.3_255/lpcxpresso/tools/bin/../lib/gcc/arm-none-eabi/4.5.1/../../../../arm-none-eabi/lib/thumb2/libcr_c.a(ungetc.o)
 .data          0x00000000        0x0 /usr/local/lpcxpresso_4.2.3_255/lpcxpresso/tools/bin/../lib/gcc/arm-none-eabi/4.5.1/../../../../arm-none-eabi/lib/thumb2/libcr_c.a(ungetc.o)
 .bss           0x00000000        0x0 /usr/local/lpcxpresso_4.2.3_255/lpcxpresso/tools/bin/../lib/gcc/arm-none-eabi/4.5.1/../../../../arm-none-eabi/lib/thumb2/libcr_c.a(ungetc.o)
 .text          0x00000000        0x0 /usr/local/lpcxpresso_4.2.3_255/lpcxpresso/tools/bin/../lib/gcc/arm-none-eabi/4.5.1/../../../../arm-none-eabi/lib/thumb2/libcr_c.a(memcpy.o)
 .data          0x00000000        0x0 /usr/local/lpcxpresso_4.2.3_255/lpcxpresso/tools/bin/../lib/gcc/arm-none-eabi/4.5.1/../../../../arm-none-eabi/lib/thumb2/libcr_c.a(memcpy.o)
 .bss           0x00000000        0x0 /usr/local/lpcxpresso_4.2.3_255/lpcxpresso/tools/bin/../lib/gcc/arm-none-eabi/4.5.1/../../../../arm-none-eabi/lib/thumb2/libcr_c.a(memcpy.o)
 .text          0x00000000        0x0 /usr/local/lpcxpresso_4.2.3_255/lpcxpresso/tools/bin/../lib/gcc/arm-none-eabi/4.5.1/../../../../arm-none-eabi/lib/thumb2/libcr_c.a(memset.o)
 .data          0x00000000        0x0 /usr/local/lpcxpresso_4.2.3_255/lpcxpresso/tools/bin/../lib/gcc/arm-none-eabi/4.5.1/../../../../arm-none-eabi/lib/thumb2/libcr_c.a(memset.o)
 .bss           0x00000000        0x0 /usr/local/lpcxpresso_4.2.3_255/lpcxpresso/tools/bin/../lib/gcc/arm-none-eabi/4.5.1/../../../../arm-none-eabi/lib/thumb2/libcr_c.a(memset.o)
 .text          0x00000000        0x0 /usr/local/lpcxpresso_4.2.3_255/lpcxpresso/tools/bin/../lib/gcc/arm-none-eabi/4.5.1/../../../../arm-none-eabi/lib/thumb2/libcr_c.a(__fillbuf.o)
 .data          0x00000000        0x0 /usr/local/lpcxpresso_4.2.3_255/lpcxpresso/tools/bin/../lib/gcc/arm-none-eabi/4.5.1/../../../../arm-none-eabi/lib/thumb2/libcr_c.a(__fillbuf.o)
 .bss           0x00000000        0x0 /usr/local/lpcxpresso_4.2.3_255/lpcxpresso/tools/bin/../lib/gcc/arm-none-eabi/4.5.1/../../../../arm-none-eabi/lib/thumb2/libcr_c.a(__fillbuf.o)
 .text._fillb2  0x00000000       0x1e /usr/local/lpcxpresso_4.2.3_255/lpcxpresso/tools/bin/../lib/gcc/arm-none-eabi/4.5.1/../../../../arm-none-eabi/lib/thumb2/libcr_c.a(__fillbuf.o)
 .text          0x00000000        0x0 /usr/local/lpcxpresso_4.2.3_255/lpcxpresso/tools/bin/../lib/gcc/arm-none-eabi/4.5.1/../../../../arm-none-eabi/lib/thumb2/libcr_c.a(_deferredlazyseek.o)
 .data          0x00000000        0x0 /usr/local/lpcxpresso_4.2.3_255/lpcxpresso/tools/bin/../lib/gcc/arm-none-eabi/4.5.1/../../../../arm-none-eabi/lib/thumb2/libcr_c.a(_deferredlazyseek.o)
 .bss           0x00000000        0x0 /usr/local/lpcxpresso_4.2.3_255/lpcxpresso/tools/bin/../lib/gcc/arm-none-eabi/4.5.1/../../../../arm-none-eabi/lib/thumb2/libcr_c.a(_deferredlazyseek.o)
 .text          0x00000000        0x0 /usr/local/lpcxpresso_4.2.3_255/lpcxpresso/tools/bin/../lib/gcc/arm-none-eabi/4.5.1/../../../../arm-none-eabi/lib/thumb2/libcr_c.a(_fflush.o)
 .data          0x00000000        0x0 /usr/local/lpcxpresso_4.2.3_255/lpcxpresso/tools/bin/../lib/gcc/arm-none-eabi/4.5.1/../../../../arm-none-eabi/lib/thumb2/libcr_c.a(_fflush.o)
 .bss           0x00000000        0x0 /usr/local/lpcxpresso_4.2.3_255/lpcxpresso/tools/bin/../lib/gcc/arm-none-eabi/4.5.1/../../../../arm-none-eabi/lib/thumb2/libcr_c.a(_fflush.o)
 .text          0x00000000        0x0 /usr/local/lpcxpresso_4.2.3_255/lpcxpresso/tools/bin/../lib/gcc/arm-none-eabi/4.5.1/../../../../arm-none-eabi/lib/thumb2/libcr_c.a(_frexpl.o)
 .data          0x00000000        0x0 /usr/local/lpcxpresso_4.2.3_255/lpcxpresso/tools/bin/../lib/gcc/arm-none-eabi/4.5.1/../../../../arm-none-eabi/lib/thumb2/libcr_c.a(_frexpl.o)
 .bss           0x00000000        0x0 /usr/local/lpcxpresso_4.2.3_255/lpcxpresso/tools/bin/../lib/gcc/arm-none-eabi/4.5.1/../../../../arm-none-eabi/lib/thumb2/libcr_c.a(_frexpl.o)
 .text          0x00000000        0x0 /usr/local/lpcxpresso_4.2.3_255/lpcxpresso/tools/bin/../lib/gcc/arm-none-eabi/4.5.1/../../../../arm-none-eabi/lib/thumb2/libcr_c.a(_hugeval.o)
 .data          0x00000000        0x0 /usr/local/lpcxpresso_4.2.3_255/lpcxpresso/tools/bin/../lib/gcc/arm-none-eabi/4.5.1/../../../../arm-none-eabi/lib/thumb2/libcr_c.a(_hugeval.o)
 .bss           0x00000000        0x0 /usr/local/lpcxpresso_4.2.3_255/lpcxpresso/tools/bin/../lib/gcc/arm-none-eabi/4.5.1/../../../../arm-none-eabi/lib/thumb2/libcr_c.a(_hugeval.o)
 .rodata.__huge_val
                0x00000000        0x8 /usr/local/lpcxpresso_4.2.3_255/lpcxpresso/tools/bin/../lib/gcc/arm-none-eabi/4.5.1/../../../../arm-none-eabi/lib/thumb2/libcr_c.a(_hugeval.o)
 .text          0x00000000        0x0 /usr/local/lpcxpresso_4.2.3_255/lpcxpresso/tools/bin/../lib/gcc/arm-none-eabi/4.5.1/../../../../arm-none-eabi/lib/thumb2/libcr_c.a(_ldexpl.o)
 .data          0x00000000        0x0 /usr/local/lpcxpresso_4.2.3_255/lpcxpresso/tools/bin/../lib/gcc/arm-none-eabi/4.5.1/../../../../arm-none-eabi/lib/thumb2/libcr_c.a(_ldexpl.o)
 .bss           0x00000000        0x0 /usr/local/lpcxpresso_4.2.3_255/lpcxpresso/tools/bin/../lib/gcc/arm-none-eabi/4.5.1/../../../../arm-none-eabi/lib/thumb2/libcr_c.a(_ldexpl.o)
 .text          0x00000000        0x0 /usr/local/lpcxpresso_4.2.3_255/lpcxpresso/tools/bin/../lib/gcc/arm-none-eabi/4.5.1/../../../../arm-none-eabi/lib/thumb2/libcr_c.a(_writebuf.o)
 .data          0x00000000        0x0 /usr/local/lpcxpresso_4.2.3_255/lpcxpresso/tools/bin/../lib/gcc/arm-none-eabi/4.5.1/../../../../arm-none-eabi/lib/thumb2/libcr_c.a(_writebuf.o)
 .bss           0x00000000        0x0 /usr/local/lpcxpresso_4.2.3_255/lpcxpresso/tools/bin/../lib/gcc/arm-none-eabi/4.5.1/../../../../arm-none-eabi/lib/thumb2/libcr_c.a(_writebuf.o)
 .text          0x00000000        0x0 /usr/local/lpcxpresso_4.2.3_255/lpcxpresso/tools/bin/../lib/gcc/arm-none-eabi/4.5.1/../../../../arm-none-eabi/lib/thumb2/libcr_c.a(alloc.o)
 .data          0x00000000        0x0 /usr/local/lpcxpresso_4.2.3_255/lpcxpresso/tools/bin/../lib/gcc/arm-none-eabi/4.5.1/../../../../arm-none-eabi/lib/thumb2/libcr_c.a(alloc.o)
 .bss           0x00000000        0x0 /usr/local/lpcxpresso_4.2.3_255/lpcxpresso/tools/bin/../lib/gcc/arm-none-eabi/4.5.1/../../../../arm-none-eabi/lib/thumb2/libcr_c.a(alloc.o)
 .text.free     0x00000000        0xa /usr/local/lpcxpresso_4.2.3_255/lpcxpresso/tools/bin/../lib/gcc/arm-none-eabi/4.5.1/../../../../arm-none-eabi/lib/thumb2/libcr_c.a(alloc.o)
 .text.calloc   0x00000000       0x50 /usr/local/lpcxpresso_4.2.3_255/lpcxpresso/tools/bin/../lib/gcc/arm-none-eabi/4.5.1/../../../../arm-none-eabi/lib/thumb2/libcr_c.a(alloc.o)
 .text.realloc  0x00000000       0x1c /usr/local/lpcxpresso_4.2.3_255/lpcxpresso/tools/bin/../lib/gcc/arm-none-eabi/4.5.1/../../../../arm-none-eabi/lib/thumb2/libcr_c.a(alloc.o)
 .text          0x00000000        0x0 /usr/local/lpcxpresso_4.2.3_255/lpcxpresso/tools/bin/../lib/gcc/arm-none-eabi/4.5.1/../../../../arm-none-eabi/lib/thumb2/libcr_c.a(ctype.o)
 .data          0x00000000        0x0 /usr/local/lpcxpresso_4.2.3_255/lpcxpresso/tools/bin/../lib/gcc/arm-none-eabi/4.5.1/../../../../arm-none-eabi/lib/thumb2/libcr_c.a(ctype.o)
 .bss           0x00000000        0x0 /usr/local/lpcxpresso_4.2.3_255/lpcxpresso/tools/bin/../lib/gcc/arm-none-eabi/4.5.1/../../../../arm-none-eabi/lib/thumb2/libcr_c.a(ctype.o)
 .text.isalnum  0x00000000       0x14 /usr/local/lpcxpresso_4.2.3_255/lpcxpresso/tools/bin/../lib/gcc/arm-none-eabi/4.5.1/../../../../arm-none-eabi/lib/thumb2/libcr_c.a(ctype.o)
 .text.isalpha  0x00000000       0x14 /usr/local/lpcxpresso_4.2.3_255/lpcxpresso/tools/bin/../lib/gcc/arm-none-eabi/4.5.1/../../../../arm-none-eabi/lib/thumb2/libcr_c.a(ctype.o)
 .text.iscntrl  0x00000000       0x14 /usr/local/lpcxpresso_4.2.3_255/lpcxpresso/tools/bin/../lib/gcc/arm-none-eabi/4.5.1/../../../../arm-none-eabi/lib/thumb2/libcr_c.a(ctype.o)
 .text.isdigit  0x00000000       0x14 /usr/local/lpcxpresso_4.2.3_255/lpcxpresso/tools/bin/../lib/gcc/arm-none-eabi/4.5.1/../../../../arm-none-eabi/lib/thumb2/libcr_c.a(ctype.o)
 .text.isgraph  0x00000000       0x14 /usr/local/lpcxpresso_4.2.3_255/lpcxpresso/tools/bin/../lib/gcc/arm-none-eabi/4.5.1/../../../../arm-none-eabi/lib/thumb2/libcr_c.a(ctype.o)
 .text.islower  0x00000000       0x14 /usr/local/lpcxpresso_4.2.3_255/lpcxpresso/tools/bin/../lib/gcc/arm-none-eabi/4.5.1/../../../../arm-none-eabi/lib/thumb2/libcr_c.a(ctype.o)
 .text.isprint  0x00000000       0x14 /usr/local/lpcxpresso_4.2.3_255/lpcxpresso/tools/bin/../lib/gcc/arm-none-eabi/4.5.1/../../../../arm-none-eabi/lib/thumb2/libcr_c.a(ctype.o)
 .text.ispunct  0x00000000       0x14 /usr/local/lpcxpresso_4.2.3_255/lpcxpresso/tools/bin/../lib/gcc/arm-none-eabi/4.5.1/../../../../arm-none-eabi/lib/thumb2/libcr_c.a(ctype.o)
 .text.isspace  0x00000000       0x14 /usr/local/lpcxpresso_4.2.3_255/lpcxpresso/tools/bin/../lib/gcc/arm-none-eabi/4.5.1/../../../../arm-none-eabi/lib/thumb2/libcr_c.a(ctype.o)
 .text.isupper  0x00000000       0x14 /usr/local/lpcxpresso_4.2.3_255/lpcxpresso/tools/bin/../lib/gcc/arm-none-eabi/4.5.1/../../../../arm-none-eabi/lib/thumb2/libcr_c.a(ctype.o)
 .text.isxdigit
                0x00000000       0x14 /usr/local/lpcxpresso_4.2.3_255/lpcxpresso/tools/bin/../lib/gcc/arm-none-eabi/4.5.1/../../../../arm-none-eabi/lib/thumb2/libcr_c.a(ctype.o)
 .text.tolower  0x00000000       0x18 /usr/local/lpcxpresso_4.2.3_255/lpcxpresso/tools/bin/../lib/gcc/arm-none-eabi/4.5.1/../../../../arm-none-eabi/lib/thumb2/libcr_c.a(ctype.o)
 .text.toupper  0x00000000       0x18 /usr/local/lpcxpresso_4.2.3_255/lpcxpresso/tools/bin/../lib/gcc/arm-none-eabi/4.5.1/../../../../arm-none-eabi/lib/thumb2/libcr_c.a(ctype.o)
 .text          0x00000000        0x0 /usr/local/lpcxpresso_4.2.3_255/lpcxpresso/tools/bin/../lib/gcc/arm-none-eabi/4.5.1/../../../../arm-none-eabi/lib/thumb2/libcr_c.a(errno.o)
 .data          0x00000000        0x0 /usr/local/lpcxpresso_4.2.3_255/lpcxpresso/tools/bin/../lib/gcc/arm-none-eabi/4.5.1/../../../../arm-none-eabi/lib/thumb2/libcr_c.a(errno.o)
 .bss           0x00000000        0x0 /usr/local/lpcxpresso_4.2.3_255/lpcxpresso/tools/bin/../lib/gcc/arm-none-eabi/4.5.1/../../../../arm-none-eabi/lib/thumb2/libcr_c.a(errno.o)
 .text          0x00000000        0x0 /usr/local/lpcxpresso_4.2.3_255/lpcxpresso/tools/bin/../lib/gcc/arm-none-eabi/4.5.1/../../../../arm-none-eabi/lib/thumb2/libcr_c.a(fseek.o)
 .data          0x00000000        0x0 /usr/local/lpcxpresso_4.2.3_255/lpcxpresso/tools/bin/../lib/gcc/arm-none-eabi/4.5.1/../../../../arm-none-eabi/lib/thumb2/libcr_c.a(fseek.o)
 .bss           0x00000000        0x0 /usr/local/lpcxpresso_4.2.3_255/lpcxpresso/tools/bin/../lib/gcc/arm-none-eabi/4.5.1/../../../../arm-none-eabi/lib/thumb2/libcr_c.a(fseek.o)
 .text          0x00000000        0x0 /usr/local/lpcxpresso_4.2.3_255/lpcxpresso/tools/bin/../lib/gcc/arm-none-eabi/4.5.1/../../../../arm-none-eabi/lib/thumb2/libcr_c.a(ftell.o)
 .data          0x00000000        0x0 /usr/local/lpcxpresso_4.2.3_255/lpcxpresso/tools/bin/../lib/gcc/arm-none-eabi/4.5.1/../../../../arm-none-eabi/lib/thumb2/libcr_c.a(ftell.o)
 .bss           0x00000000        0x0 /usr/local/lpcxpresso_4.2.3_255/lpcxpresso/tools/bin/../lib/gcc/arm-none-eabi/4.5.1/../../../../arm-none-eabi/lib/thumb2/libcr_c.a(ftell.o)
 .text          0x00000000        0x0 /usr/local/lpcxpresso_4.2.3_255/lpcxpresso/tools/bin/../lib/gcc/arm-none-eabi/4.5.1/../../../../arm-none-eabi/lib/thumb2/libcr_c.a(__init_alloc.o)
 .data          0x00000000        0x0 /usr/local/lpcxpresso_4.2.3_255/lpcxpresso/tools/bin/../lib/gcc/arm-none-eabi/4.5.1/../../../../arm-none-eabi/lib/thumb2/libcr_c.a(__init_alloc.o)
 .bss           0x00000000        0x0 /usr/local/lpcxpresso_4.2.3_255/lpcxpresso/tools/bin/../lib/gcc/arm-none-eabi/4.5.1/../../../../arm-none-eabi/lib/thumb2/libcr_c.a(__init_alloc.o)
 .text._init_alloc
                0x00000000       0x14 /usr/local/lpcxpresso_4.2.3_255/lpcxpresso/tools/bin/../lib/gcc/arm-none-eabi/4.5.1/../../../../arm-none-eabi/lib/thumb2/libcr_c.a(__init_alloc.o)
 .text          0x00000000        0x0 /usr/local/lpcxpresso_4.2.3_255/lpcxpresso/tools/bin/../lib/gcc/arm-none-eabi/4.5.1/thumb2/libcr_eabihelpers.a(division.o)
 .data          0x00000000        0x0 /usr/local/lpcxpresso_4.2.3_255/lpcxpresso/tools/bin/../lib/gcc/arm-none-eabi/4.5.1/thumb2/libcr_eabihelpers.a(division.o)
 .bss           0x00000000        0x0 /usr/local/lpcxpresso_4.2.3_255/lpcxpresso/tools/bin/../lib/gcc/arm-none-eabi/4.5.1/thumb2/libcr_eabihelpers.a(division.o)
 .text.__aeabi_division_idiv
                0x00000000       0x10 /usr/local/lpcxpresso_4.2.3_255/lpcxpresso/tools/bin/../lib/gcc/arm-none-eabi/4.5.1/thumb2/libcr_eabihelpers.a(division.o)
 .text.__aeabi_division_idivmod
                0x00000000       0x16 /usr/local/lpcxpresso_4.2.3_255/lpcxpresso/tools/bin/../lib/gcc/arm-none-eabi/4.5.1/thumb2/libcr_eabihelpers.a(division.o)
 .text.__aeabi_division_uidiv
                0x00000000       0x10 /usr/local/lpcxpresso_4.2.3_255/lpcxpresso/tools/bin/../lib/gcc/arm-none-eabi/4.5.1/thumb2/libcr_eabihelpers.a(division.o)
 .text.__aeabi_division_uidivmod
                0x00000000       0x16 /usr/local/lpcxpresso_4.2.3_255/lpcxpresso/tools/bin/../lib/gcc/arm-none-eabi/4.5.1/thumb2/libcr_eabihelpers.a(division.o)
 .text.__aeabi_division_ldivmod
                0x00000000       0x26 /usr/local/lpcxpresso_4.2.3_255/lpcxpresso/tools/bin/../lib/gcc/arm-none-eabi/4.5.1/thumb2/libcr_eabihelpers.a(division.o)
 .text.__aeabi_division_uldivmod
                0x00000000      0x174 /usr/local/lpcxpresso_4.2.3_255/lpcxpresso/tools/bin/../lib/gcc/arm-none-eabi/4.5.1/thumb2/libcr_eabihelpers.a(division.o)
 .text.__aeabi_division_idiv0
                0x00000000        0x2 /usr/local/lpcxpresso_4.2.3_255/lpcxpresso/tools/bin/../lib/gcc/arm-none-eabi/4.5.1/thumb2/libcr_eabihelpers.a(division.o)
 .text.__aeabi_division_ldiv0
                0x00000000        0x2 /usr/local/lpcxpresso_4.2.3_255/lpcxpresso/tools/bin/../lib/gcc/arm-none-eabi/4.5.1/thumb2/libcr_eabihelpers.a(division.o)
 .text          0x00000000        0x0 /usr/local/lpcxpresso_4.2.3_255/lpcxpresso/tools/bin/../lib/gcc/arm-none-eabi/4.5.1/thumb2/libcr_eabihelpers.a(double.o)
 .data          0x00000000        0x0 /usr/local/lpcxpresso_4.2.3_255/lpcxpresso/tools/bin/../lib/gcc/arm-none-eabi/4.5.1/thumb2/libcr_eabihelpers.a(double.o)
 .bss           0x00000000        0x0 /usr/local/lpcxpresso_4.2.3_255/lpcxpresso/tools/bin/../lib/gcc/arm-none-eabi/4.5.1/thumb2/libcr_eabihelpers.a(double.o)
 .text.__aeabi_drsub
                0x00000000       0x1c /usr/local/lpcxpresso_4.2.3_255/lpcxpresso/tools/bin/../lib/gcc/arm-none-eabi/4.5.1/thumb2/libcr_eabihelpers.a(double.o)
 .text.__aeabi_dneg
                0x00000000        0xc /usr/local/lpcxpresso_4.2.3_255/lpcxpresso/tools/bin/../lib/gcc/arm-none-eabi/4.5.1/thumb2/libcr_eabihelpers.a(double.o)
 .text.__aeabi_d2uiz
                0x00000000       0x30 /usr/local/lpcxpresso_4.2.3_255/lpcxpresso/tools/bin/../lib/gcc/arm-none-eabi/4.5.1/thumb2/libcr_eabihelpers.a(double.o)
 .text.__aeabi_d2lz
                0x00000000       0x64 /usr/local/lpcxpresso_4.2.3_255/lpcxpresso/tools/bin/../lib/gcc/arm-none-eabi/4.5.1/thumb2/libcr_eabihelpers.a(double.o)
 .text.__aeabi_d2ulz
                0x00000000       0x50 /usr/local/lpcxpresso_4.2.3_255/lpcxpresso/tools/bin/../lib/gcc/arm-none-eabi/4.5.1/thumb2/libcr_eabihelpers.a(double.o)
 .text.__bhs_ul2d
                0x00000000       0x92 /usr/local/lpcxpresso_4.2.3_255/lpcxpresso/tools/bin/../lib/gcc/arm-none-eabi/4.5.1/thumb2/libcr_eabihelpers.a(double.o)
 .text.__aeabi_ui2d
                0x00000000        0x8 /usr/local/lpcxpresso_4.2.3_255/lpcxpresso/tools/bin/../lib/gcc/arm-none-eabi/4.5.1/thumb2/libcr_eabihelpers.a(double.o)
 .text.__aeabi_l2d
                0x00000000       0x16 /usr/local/lpcxpresso_4.2.3_255/lpcxpresso/tools/bin/../lib/gcc/arm-none-eabi/4.5.1/thumb2/libcr_eabihelpers.a(double.o)
 .text.__aeabi_ul2d
                0x00000000        0x8 /usr/local/lpcxpresso_4.2.3_255/lpcxpresso/tools/bin/../lib/gcc/arm-none-eabi/4.5.1/thumb2/libcr_eabihelpers.a(double.o)
 .text.__aeabi_dcmpgt
                0x00000000       0x58 /usr/local/lpcxpresso_4.2.3_255/lpcxpresso/tools/bin/../lib/gcc/arm-none-eabi/4.5.1/thumb2/libcr_eabihelpers.a(double.o)
 .text.__aeabi_dcmpun
                0x00000000       0x1a /usr/local/lpcxpresso_4.2.3_255/lpcxpresso/tools/bin/../lib/gcc/arm-none-eabi/4.5.1/thumb2/libcr_eabihelpers.a(double.o)
 .text.__aeabi_cdcmple
                0x00000000       0x30 /usr/local/lpcxpresso_4.2.3_255/lpcxpresso/tools/bin/../lib/gcc/arm-none-eabi/4.5.1/thumb2/libcr_eabihelpers.a(double.o)
 .text.__aeabi_cdrcmple
                0x00000000       0x16 /usr/local/lpcxpresso_4.2.3_255/lpcxpresso/tools/bin/../lib/gcc/arm-none-eabi/4.5.1/thumb2/libcr_eabihelpers.a(double.o)
 .text          0x00000000        0x0 /usr/local/lpcxpresso_4.2.3_255/lpcxpresso/tools/bin/../lib/gcc/arm-none-eabi/4.5.1/thumb2/libcr_eabihelpers.a(memcpy.o)
 .data          0x00000000        0x0 /usr/local/lpcxpresso_4.2.3_255/lpcxpresso/tools/bin/../lib/gcc/arm-none-eabi/4.5.1/thumb2/libcr_eabihelpers.a(memcpy.o)
 .bss           0x00000000        0x0 /usr/local/lpcxpresso_4.2.3_255/lpcxpresso/tools/bin/../lib/gcc/arm-none-eabi/4.5.1/thumb2/libcr_eabihelpers.a(memcpy.o)
 .text.__aeabi_memmove
                0x00000000       0x1c /usr/local/lpcxpresso_4.2.3_255/lpcxpresso/tools/bin/../lib/gcc/arm-none-eabi/4.5.1/thumb2/libcr_eabihelpers.a(memcpy.o)
 .text.__aeabi_memclr
                0x00000000        0x8 /usr/local/lpcxpresso_4.2.3_255/lpcxpresso/tools/bin/../lib/gcc/arm-none-eabi/4.5.1/thumb2/libcr_eabihelpers.a(memcpy.o)
 .text.__aeabi_memset
                0x00000000        0xa /usr/local/lpcxpresso_4.2.3_255/lpcxpresso/tools/bin/../lib/gcc/arm-none-eabi/4.5.1/thumb2/libcr_eabihelpers.a(memcpy.o)
 .text          0x00000000        0x0 /usr/local/lpcxpresso_4.2.3_255/lpcxpresso/tools/bin/../lib/gcc/arm-none-eabi/4.5.1/../../../../arm-none-eabi/lib/thumb2/libcr_nohost.a(__sys_appexit.o)
 .data          0x00000000        0x0 /usr/local/lpcxpresso_4.2.3_255/lpcxpresso/tools/bin/../lib/gcc/arm-none-eabi/4.5.1/../../../../arm-none-eabi/lib/thumb2/libcr_nohost.a(__sys_appexit.o)
 .bss           0x00000000        0x0 /usr/local/lpcxpresso_4.2.3_255/lpcxpresso/tools/bin/../lib/gcc/arm-none-eabi/4.5.1/../../../../arm-none-eabi/lib/thumb2/libcr_nohost.a(__sys_appexit.o)
 .text          0x00000000        0x0 /usr/local/lpcxpresso_4.2.3_255/lpcxpresso/tools/bin/../lib/gcc/arm-none-eabi/4.5.1/../../../../arm-none-eabi/lib/thumb2/libcr_nohost.a(__sys_flen.o)
 .data          0x00000000        0x0 /usr/local/lpcxpresso_4.2.3_255/lpcxpresso/tools/bin/../lib/gcc/arm-none-eabi/4.5.1/../../../../arm-none-eabi/lib/thumb2/libcr_nohost.a(__sys_flen.o)
 .bss           0x00000000        0x0 /usr/local/lpcxpresso_4.2.3_255/lpcxpresso/tools/bin/../lib/gcc/arm-none-eabi/4.5.1/../../../../arm-none-eabi/lib/thumb2/libcr_nohost.a(__sys_flen.o)
 .text          0x00000000        0x0 /usr/local/lpcxpresso_4.2.3_255/lpcxpresso/tools/bin/../lib/gcc/arm-none-eabi/4.5.1/../../../../arm-none-eabi/lib/thumb2/libcr_nohost.a(__sys_istty.o)
 .data          0x00000000        0x0 /usr/local/lpcxpresso_4.2.3_255/lpcxpresso/tools/bin/../lib/gcc/arm-none-eabi/4.5.1/../../../../arm-none-eabi/lib/thumb2/libcr_nohost.a(__sys_istty.o)
 .bss           0x00000000        0x0 /usr/local/lpcxpresso_4.2.3_255/lpcxpresso/tools/bin/../lib/gcc/arm-none-eabi/4.5.1/../../../../arm-none-eabi/lib/thumb2/libcr_nohost.a(__sys_istty.o)
 .text          0x00000000        0x0 /usr/local/lpcxpresso_4.2.3_255/lpcxpresso/tools/bin/../lib/gcc/arm-none-eabi/4.5.1/../../../../arm-none-eabi/lib/thumb2/libcr_nohost.a(__sys_read.o)
 .data          0x00000000        0x0 /usr/local/lpcxpresso_4.2.3_255/lpcxpresso/tools/bin/../lib/gcc/arm-none-eabi/4.5.1/../../../../arm-none-eabi/lib/thumb2/libcr_nohost.a(__sys_read.o)
 .bss           0x00000000        0x0 /usr/local/lpcxpresso_4.2.3_255/lpcxpresso/tools/bin/../lib/gcc/arm-none-eabi/4.5.1/../../../../arm-none-eabi/lib/thumb2/libcr_nohost.a(__sys_read.o)
 .text          0x00000000        0x0 /usr/local/lpcxpresso_4.2.3_255/lpcxpresso/tools/bin/../lib/gcc/arm-none-eabi/4.5.1/../../../../arm-none-eabi/lib/thumb2/libcr_nohost.a(__sys_readc.o)
 .data          0x00000000        0x0 /usr/local/lpcxpresso_4.2.3_255/lpcxpresso/tools/bin/../lib/gcc/arm-none-eabi/4.5.1/../../../../arm-none-eabi/lib/thumb2/libcr_nohost.a(__sys_readc.o)
 .bss           0x00000000        0x0 /usr/local/lpcxpresso_4.2.3_255/lpcxpresso/tools/bin/../lib/gcc/arm-none-eabi/4.5.1/../../../../arm-none-eabi/lib/thumb2/libcr_nohost.a(__sys_readc.o)
 .text          0x00000000        0x0 /usr/local/lpcxpresso_4.2.3_255/lpcxpresso/tools/bin/../lib/gcc/arm-none-eabi/4.5.1/../../../../arm-none-eabi/lib/thumb2/libcr_nohost.a(__sys_seek.o)
 .data          0x00000000        0x0 /usr/local/lpcxpresso_4.2.3_255/lpcxpresso/tools/bin/../lib/gcc/arm-none-eabi/4.5.1/../../../../arm-none-eabi/lib/thumb2/libcr_nohost.a(__sys_seek.o)
 .bss           0x00000000        0x0 /usr/local/lpcxpresso_4.2.3_255/lpcxpresso/tools/bin/../lib/gcc/arm-none-eabi/4.5.1/../../../../arm-none-eabi/lib/thumb2/libcr_nohost.a(__sys_seek.o)
 .text          0x00000000        0x0 /usr/local/lpcxpresso_4.2.3_255/lpcxpresso/tools/bin/../lib/gcc/arm-none-eabi/4.5.1/../../../../arm-none-eabi/lib/thumb2/libcr_nohost.a(__sys_write.o)
 .data          0x00000000        0x0 /usr/local/lpcxpresso_4.2.3_255/lpcxpresso/tools/bin/../lib/gcc/arm-none-eabi/4.5.1/../../../../arm-none-eabi/lib/thumb2/libcr_nohost.a(__sys_write.o)
 .bss           0x00000000        0x0 /usr/local/lpcxpresso_4.2.3_255/lpcxpresso/tools/bin/../lib/gcc/arm-none-eabi/4.5.1/../../../../arm-none-eabi/lib/thumb2/libcr_nohost.a(__sys_write.o)
 .text          0x00000000        0x0 /usr/local/lpcxpresso_4.2.3_255/lpcxpresso/tools/bin/../lib/gcc/arm-none-eabi/4.5.1/../../../../arm-none-eabi/lib/thumb2/libcr_nohost.a(_cr_sbrk.o)
 .data          0x00000000        0x0 /usr/local/lpcxpresso_4.2.3_255/lpcxpresso/tools/bin/../lib/gcc/arm-none-eabi/4.5.1/../../../../arm-none-eabi/lib/thumb2/libcr_nohost.a(_cr_sbrk.o)
 .bss           0x00000000        0x0 /usr/local/lpcxpresso_4.2.3_255/lpcxpresso/tools/bin/../lib/gcc/arm-none-eabi/4.5.1/../../../../arm-none-eabi/lib/thumb2/libcr_nohost.a(_cr_sbrk.o)
 .text          0x00000000        0x0 /usr/local/lpcxpresso_4.2.3_255/lpcxpresso/tools/bin/../lib/gcc/arm-none-eabi/4.5.1/../../../../arm-none-eabi/lib/thumb2/libcr_nohost.a(_cr_check_heap.o)
 .data          0x00000000        0x0 /usr/local/lpcxpresso_4.2.3_255/lpcxpresso/tools/bin/../lib/gcc/arm-none-eabi/4.5.1/../../../../arm-none-eabi/lib/thumb2/libcr_nohost.a(_cr_check_heap.o)
 .bss           0x00000000        0x0 /usr/local/lpcxpresso_4.2.3_255/lpcxpresso/tools/bin/../lib/gcc/arm-none-eabi/4.5.1/../../../../arm-none-eabi/lib/thumb2/libcr_nohost.a(_cr_check_heap.o)

Memory Configuration

Name             Origin             Length             Attributes
MFlash512        0x00000000         0x00080000         xr
RamLoc32         0x10000000         0x00008000         xrw
RamAHB32         0x2007c000         0x00008000         xrw
*default*        0x00000000         0xffffffff

Linker script and memory map

LOAD ./LedBlinky.o
LOAD ./cr_startup_lpc17.o
LOAD ./lcd_i2c.o
LOAD ./main.o
LOAD ./uart_fullmodem_test.o
LOAD ./webserver/emac.o
LOAD ./webserver/http-strings.o
LOAD ./webserver/httpd-cgi.o
LOAD ./webserver/httpd-fs.o
LOAD ./webserver/httpd.o
LOAD ./webserver/psock.o
LOAD ./webserver/timer.o
LOAD ./webserver/uIP_Task.o
LOAD ./webserver/uip.o
LOAD ./webserver/uip_arp.o
LOAD ./uip_ftp/Connections.o
LOAD ./uip_ftp/FTPD.o
LOAD ./uip_ftp/FTP_Strings.o
LOAD ./uip_ftp/ftp_main.o
LOAD ./driver_source/lpc17xx_adc.o
LOAD ./driver_source/lpc17xx_can.o
LOAD ./driver_source/lpc17xx_clkpwr.o
LOAD ./driver_source/lpc17xx_dac.o
LOAD ./driver_source/lpc17xx_emac.o
LOAD ./driver_source/lpc17xx_gpdma.o
LOAD ./driver_source/lpc17xx_gpio.o
LOAD ./driver_source/lpc17xx_i2c.o
LOAD ./driver_source/lpc17xx_i2s.o
LOAD ./driver_source/lpc17xx_libcfg_default.o
LOAD ./driver_source/lpc17xx_mcpwm.o
LOAD ./driver_source/lpc17xx_nvic.o
LOAD ./driver_source/lpc17xx_pinsel.o
LOAD ./driver_source/lpc17xx_pwm.o
LOAD ./driver_source/lpc17xx_qei.o
LOAD ./driver_source/lpc17xx_rit.o
LOAD ./driver_source/lpc17xx_rtc.o
LOAD ./driver_source/lpc17xx_sd.o
LOAD ./driver_source/lpc17xx_spi.o
LOAD ./driver_source/lpc17xx_ssp.o
LOAD ./driver_source/lpc17xx_timer.o
LOAD ./driver_source/lpc17xx_uart.o
LOAD ./driver_source/lpc17xx_wdt.o
LOAD ./UsbHost/Uart/usbhost_uart.o
LOAD ./UsbHost/MassStorage/usbhost_ms.o
LOAD ./UsbHost/Main/usbhost_main.o
LOAD ./UsbHost/Host/usb_ms_diskio.o
LOAD ./UsbHost/Host/usbhost_lpc17xx.o
LOAD ./LPCUSB/USB_CDC.o
LOAD ./LPCUSB/usbcontrol.o
LOAD ./LPCUSB/usbhw_lpc.o
LOAD ./LPCUSB/usbinit.o
LOAD ./LPCUSB/usbstdreq.o
LOAD ./FatFs/option/cc932.o
LOAD ./FatFs/option/syncobj.o
LOAD ./FatFs/option/syscall.o
LOAD ./FatFs/diskio.o
LOAD ./FatFs/ff.o
LOAD /home/nlv14991/workspaceLPC/STE-LPC1768-/CMSISv1p30_LPC17xx/Debug/libCMSISv1p30_LPC17xx.a
LOAD /home/nlv14991/workspaceLPC/STE-LPC1768-/FreeRTOS_Library/Debug/libFreeRTOS_Library.a
START GROUP
LOAD /usr/local/lpcxpresso_4.2.3_255/lpcxpresso/tools/bin/../lib/gcc/arm-none-eabi/4.5.1/../../../../arm-none-eabi/lib/thumb2/libcr_nohost.a
LOAD /usr/local/lpcxpresso_4.2.3_255/lpcxpresso/tools/bin/../lib/gcc/arm-none-eabi/4.5.1/../../../../arm-none-eabi/lib/thumb2/libcr_c.a
LOAD /usr/local/lpcxpresso_4.2.3_255/lpcxpresso/tools/bin/../lib/gcc/arm-none-eabi/4.5.1/thumb2/libcr_eabihelpers.a
END GROUP
                0x00080000                __top_MFlash512 = 0x80000
                0x10008000                __top_RamLoc32 = 0x10008000
                0x20084000                __top_RamAHB32 = 0x20084000

.text           0x00000000    0x28ec0
 FILL mask 0xff
 *(.isr_vector)
 .isr_vector    0x00000000       0xc4 ./cr_startup_lpc17.o
                0x00000000                g_pfnVectors
                0x000000c4                . = ALIGN (0x4)
                0x000000c4                __section_table_start = .
                0x000000c4                __data_section_table = .
                0x000000c4        0x4 LONG 0x28ec0 LOADADDR (.data)
                0x000000c8        0x4 LONG 0x10000000 ADDR (.data)
                0x000000cc        0x4 LONG 0xa4 SIZEOF (.data)
                0x000000d0        0x4 LONG 0x28ec0 LOADADDR (.data_RAM2)
                0x000000d4        0x4 LONG 0x2007c000 ADDR (.data_RAM2)
                0x000000d8        0x4 LONG 0x0 SIZEOF (.data_RAM2)
                0x000000dc                __data_section_table_end = .
                0x000000dc                __bss_section_table = .
                0x000000dc        0x4 LONG 0x100000a8 ADDR (.bss)
                0x000000e0        0x4 LONG 0x6118 SIZEOF (.bss)
                0x000000e4        0x4 LONG 0x2007c000 ADDR (.bss_RAM2)
                0x000000e8        0x4 LONG 0x0 SIZEOF (.bss_RAM2)
                0x000000ec                __bss_section_table_end = .
                0x000000ec                __section_table_end = .
 *(.after_vectors*)
 *(.text*)
 .text.SysTick_Handler
                0x000000ec       0x10 ./LedBlinky.o
                0x000000ec                SysTick_Handler
 .text.vLEDTask
                0x000000fc       0xa4 ./LedBlinky.o
                0x000000fc                vLEDTask
 .text.NMI_Handler
                0x000001a0        0x4 ./cr_startup_lpc17.o
                0x000001a0                NMI_Handler
 .text.HardFault_Handler
                0x000001a4       0x14 ./cr_startup_lpc17.o
                0x000001a4                HardFault_Handler
 .text.MemManage_Handler
                0x000001b8        0x4 ./cr_startup_lpc17.o
                0x000001b8                MemManage_Handler
 .text.BusFault_Handler
                0x000001bc        0x4 ./cr_startup_lpc17.o
                0x000001bc                BusFault_Handler
 .text.UsageFault_Handler
                0x000001c0        0x4 ./cr_startup_lpc17.o
                0x000001c0                UsageFault_Handler
 .text.DebugMon_Handler
                0x000001c4        0x4 ./cr_startup_lpc17.o
                0x000001c4                DebugMon_Handler
 .text.Reset_Handler
                0x000001c8       0xbc ./cr_startup_lpc17.o
                0x000001c8                Reset_Handler
                0x000001c8                ResetISR
 .text.hard_fault_handler_c
                0x00000284       0x84 ./cr_startup_lpc17.o
                0x00000284                hard_fault_handler_c
 .text.IntDefaultHandler
                0x00000308       0x18 ./cr_startup_lpc17.o
                0x00000308                TIMER2_IRQHandler
                0x00000308                RIT_IRQHandler
                0x00000308                PWM1_IRQHandler
                0x00000308                EINT2_IRQHandler
                0x00000308                EINT3_IRQHandler
                0x00000308                TIMER3_IRQHandler
                0x00000308                PLL0_IRQHandler
                0x00000308                CAN_IRQHandler
                0x00000308                PLL1_IRQHandler
                0x00000308                RTC_IRQHandler
                0x00000308                TIMER0_IRQHandler
                0x00000308                EINT1_IRQHandler
                0x00000308                TIMER1_IRQHandler
                0x00000308                ADC_IRQHandler
                0x00000308                BOD_IRQHandler
                0x00000308                WDT_IRQHandler
                0x00000308                QEI_IRQHandler
                0x00000308                EINT0_IRQHandler
                0x00000308                MCPWM_IRQHandler
 .text.LCD_Init
                0x00000320       0xc8 ./lcd_i2c.o
                0x00000320                LCD_Init
 .text.LCD_ClearScreen
                0x000003e8       0xd4 ./lcd_i2c.o
                0x000003e8                LCD_ClearScreen
 .text.LCD_PrintText
                0x000004bc      0x120 ./lcd_i2c.o
                0x000004bc                LCD_PrintText
 .text.main     0x000005dc       0xc0 ./main.o
                0x000005dc                main
 .text.vSoftwareInterruptHandler
                0x0000069c       0x54 ./main.o
                0x0000069c                vSoftwareInterruptHandler
 .text.vApplicationMallocFailedHook
                0x000006f0        0x4 ./main.o
                0x000006f0                vApplicationMallocFailedHook
 .text.vApplicationStackOverflowHook
                0x000006f4       0x10 ./main.o
                0x000006f4                vApplicationStackOverflowHook
 .text.vApplicationIdleHook
                0x00000704        0x4 ./main.o
                0x00000704                vApplicationIdleHook
 .text.vApplicationTickHook
                0x00000708        0x4 ./main.o
                0x00000708                vApplicationTickHook
 .text.UART1_IntErr
                0x0000070c       0x24 ./uart_fullmodem_test.o
                0x0000070c                UART1_IntErr
 .text.UART1_IntTransmit
                0x00000730       0xd4 ./uart_fullmodem_test.o
                0x00000730                UART1_IntTransmit
 .text.UART1_IntReceive
                0x00000804       0xa4 ./uart_fullmodem_test.o
                0x00000804                UART1_IntReceive
 .text.entry    0x000008a8      0x610 ./uart_fullmodem_test.o
                0x000008a8                entry
 .text.vUARTTask
                0x00000eb8        0x4 ./uart_fullmodem_test.o
                0x00000eb8                vUARTTask
 .text.lEMACInit
                0x00000ebc      0x988 ./webserver/emac.o
                0x00000ebc                lEMACInit
 .text.ulGetEMACRxData
                0x00001844      0x228 ./webserver/emac.o
                0x00001844                ulGetEMACRxData
 .text.vSendEMACTxData
                0x00001a6c      0x234 ./webserver/emac.o
                0x00001a6c                vSendEMACTxData
 .text.vEMAC_ISR
                0x00001ca0       0xfc ./webserver/emac.o
                0x00001ca0                vEMAC_ISR
 .text.nullfunction
                0x00001d9c        0x8 ./webserver/httpd-cgi.o
 .text.lcd_io   0x00001da4       0x4c ./webserver/httpd-cgi.o
 .text.led_io   0x00001df0       0x4c ./webserver/httpd-cgi.o
 .text.run_time
                0x00001e3c       0x4c ./webserver/httpd-cgi.o
 .text.rtos_stats
                0x00001e88       0x48 ./webserver/httpd-cgi.o
 .text.net_stats
                0x00001ed0       0x4c ./webserver/httpd-cgi.o
 .text.tcp_stats
                0x00001f1c       0x5c ./webserver/httpd-cgi.o
 .text.generate_lcd_txt
                0x00001f78       0x24 ./webserver/httpd-cgi.o
 .text.generate_io_state
                0x00001f9c       0x3c ./webserver/httpd-cgi.o
 .text.generate_runtime_stats
                0x00001fd8       0x3c ./webserver/httpd-cgi.o
 .text.generate_rtos_stats
                0x00002014       0x44 ./webserver/httpd-cgi.o
 .text.generate_net_stats
                0x00002058       0x30 ./webserver/httpd-cgi.o
 .text.generate_tcp_stats
                0x00002088       0xd4 ./webserver/httpd-cgi.o
 .text.file_stats
                0x0000215c       0x54 ./webserver/httpd-cgi.o
 .text.generate_file_stats
                0x000021b0       0x28 ./webserver/httpd-cgi.o
 .text.httpd_cgi
                0x000021d8       0x48 ./webserver/httpd-cgi.o
                0x000021d8                httpd_cgi
 .text.httpd_fs_open
                0x00002220       0x70 ./webserver/httpd-fs.o
                0x00002220                httpd_fs_open
 .text.httpd_fs_count
                0x00002290       0x60 ./webserver/httpd-fs.o
                0x00002290                httpd_fs_count
 .text.handle_input
                0x000022f0      0x118 ./webserver/httpd.o
 .text.send_headers
                0x00002408      0x214 ./webserver/httpd.o
 .text.generate_part_of_file
                0x0000261c       0x3c ./webserver/httpd.o
 .text.handle_output
                0x00002658      0x320 ./webserver/httpd.o
 .text.httpd_appcall
                0x00002978       0xa4 ./webserver/httpd.o
                0x00002978                httpd_appcall
 .text.networkd_appcall
                0x00002a1c       0x1c ./webserver/httpd.o
                0x00002a1c                networkd_appcall
 .text.httpd_init
                0x00002a38        0x8 ./webserver/httpd.o
                0x00002a38                httpd_init
 .text.psock_send
                0x00002a40       0xc8 ./webserver/psock.o
                0x00002a40                psock_send
 .text.psock_generator_send
                0x00002b08      0x130 ./webserver/psock.o
                0x00002b08                psock_generator_send
 .text.psock_datalen
                0x00002c38        0xc ./webserver/psock.o
                0x00002c38                psock_datalen
 .text.psock_readto
                0x00002c44      0x188 ./webserver/psock.o
                0x00002c44                psock_readto
 .text.psock_init
                0x00002dcc       0x18 ./webserver/psock.o
                0x00002dcc                psock_init
 .text.psock_sink_receive
                0x00002de4       0x9c ./webserver/psock.o
                0x00002de4                psock_sink_receive
 .text.timer_set
                0x00002e80       0x10 ./webserver/timer.o
                0x00002e80                timer_set
 .text.timer_reset
                0x00002e90        0xc ./webserver/timer.o
                0x00002e90                timer_reset
 .text.timer_expired
                0x00002e9c       0x18 ./webserver/timer.o
                0x00002e9c                timer_expired
 .text.clock_time
                0x00002eb4        0x4 ./webserver/uIP_Task.o
                0x00002eb4                clock_time
 .text.vuIP_Task
                0x00002eb8      0x414 ./webserver/uIP_Task.o
                0x00002eb8                vuIP_Task
 .text.vApplicationProcessFormInput
                0x000032cc      0x168 ./webserver/uIP_Task.o
                0x000032cc                vApplicationProcessFormInput
 .text.uip_add_rcv_nxt
                0x00003434       0xa0 ./webserver/uip.o
 .text.uip_add32
                0x000034d4       0x64 ./webserver/uip.o
                0x000034d4                uip_add32
 .text.uip_tcpchksum
                0x00003538      0x1e8 ./webserver/uip.o
                0x00003538                uip_tcpchksum
 .text.uip_init
                0x00003720       0x64 ./webserver/uip.o
                0x00003720                uip_init
 .text.uip_connect
                0x00003784      0x384 ./webserver/uip.o
                0x00003784                uip_connect
 .text.uip_unlisten
                0x00003b08       0xac ./webserver/uip.o
                0x00003b08                uip_unlisten
 .text.uip_listen
                0x00003bb4       0xa4 ./webserver/uip.o
                0x00003bb4                uip_listen
 .text.uip_process
                0x00003c58     0x1ac0 ./webserver/uip.o
                0x00003c58                uip_process
 .text.htons    0x00005718        0xc ./webserver/uip.o
                0x00005718                htons
 .text.uip_send
                0x00005724       0x30 ./webserver/uip.o
                0x00005724                uip_send
 .text.uip_arp_update
                0x00005754      0x32c ./webserver/uip_arp.o
 .text.uip_arp_timer
                0x00005a80       0x64 ./webserver/uip_arp.o
                0x00005a80                uip_arp_timer
 .text.uip_arp_ipin
                0x00005ae4       0x68 ./webserver/uip_arp.o
                0x00005ae4                uip_arp_ipin
 .text.uip_arp_arpin
                0x00005b4c      0x150 ./webserver/uip_arp.o
                0x00005b4c                uip_arp_arpin
 .text.uip_arp_out
                0x00005c9c      0x2c0 ./webserver/uip_arp.o
                0x00005c9c                uip_arp_out
 .text.Append_part_of_file
                0x00005f5c       0x68 ./uip_ftp/Connections.o
 .text.Generate_part_of_file
                0x00005fc4       0x74 ./uip_ftp/Connections.o
 .text.Generate_list_data
                0x00006038      0x14c ./uip_ftp/Connections.o
 .text.Generate_help_data
                0x00006184       0x68 ./uip_ftp/Connections.o
 .text.Send_257_response
                0x000061ec       0x20 ./uip_ftp/Connections.o
 .text.Cmd_help
                0x0000620c       0xcc ./uip_ftp/Connections.o
                0x0000620c                Cmd_help
 .text.Cmd_stru
                0x000062d8       0x8c ./uip_ftp/Connections.o
                0x000062d8                Cmd_stru
 .text.Cmd_mode
                0x00006364       0x8c ./uip_ftp/Connections.o
                0x00006364                Cmd_mode
 .text.Cmd_abor
                0x000063f0       0x5c ./uip_ftp/Connections.o
                0x000063f0                Cmd_abor
 .text.Cmd_type
                0x0000644c       0xa0 ./uip_ftp/Connections.o
                0x0000644c                Cmd_type
 .text.Cmd_noop
                0x000064ec       0x4c ./uip_ftp/Connections.o
                0x000064ec                Cmd_noop
 .text.Cmd_quit
                0x00006538       0x58 ./uip_ftp/Connections.o
                0x00006538                Cmd_quit
 .text.Cmd_user
                0x00006590       0x8c ./uip_ftp/Connections.o
                0x00006590                Cmd_user
 .text.Cmd_ukwn
                0x0000661c       0x48 ./uip_ftp/Connections.o
                0x0000661c                Cmd_ukwn
 .text.Cmd_cdup
                0x00006664      0x108 ./uip_ftp/Connections.o
                0x00006664                Cmd_cdup
 .text.Cmd_pwd  0x0000676c       0x70 ./uip_ftp/Connections.o
                0x0000676c                Cmd_pwd
 .text.Cmd_cwd  0x000067dc      0x194 ./uip_ftp/Connections.o
                0x000067dc                Cmd_cwd
 .text.Cmd_rmd  0x00006970      0x314 ./uip_ftp/Connections.o
                0x00006970                Cmd_rmd
 .text.Cmd_dele
                0x00006c84      0x314 ./uip_ftp/Connections.o
                0x00006c84                Cmd_dele
 .text.Cmd_mkd  0x00006f98      0x228 ./uip_ftp/Connections.o
                0x00006f98                Cmd_mkd
 .text.Send_PASV_response
                0x000071c0       0x8c ./uip_ftp/Connections.o
 .text.Cmd_stor
                0x0000724c      0x1cc ./uip_ftp/Connections.o
                0x0000724c                Cmd_stor
 .text.Cmd_retr
                0x00007418      0x254 ./uip_ftp/Connections.o
                0x00007418                Cmd_retr
 .text.Cmd_list
                0x0000766c      0x258 ./uip_ftp/Connections.o
                0x0000766c                Cmd_list
 .text.Cmd_port
                0x000078c4      0x190 ./uip_ftp/Connections.o
                0x000078c4                Cmd_port
 .text.Cmd_pasv
                0x00007a54       0x84 ./uip_ftp/Connections.o
                0x00007a54                Cmd_pasv
 .text.handle_cmd_input
                0x00007ad8      0x128 ./uip_ftp/Connections.o
                0x00007ad8                handle_cmd_input
 .text.handle_cmd_output
                0x00007c00      0x11c ./uip_ftp/Connections.o
                0x00007c00                handle_cmd_output
 .text.CloseFile
                0x00007d1c       0x1c ./uip_ftp/Connections.o
                0x00007d1c                CloseFile
 .text.handle_data_connection
                0x00007d38      0x1dc ./uip_ftp/Connections.o
                0x00007d38                handle_data_connection
 .text.ftpd_appcall
                0x00007f14      0x494 ./uip_ftp/FTPD.o
                0x00007f14                ftpd_appcall
 .text.ftpd_init
                0x000083a8       0x28 ./uip_ftp/FTPD.o
                0x000083a8                ftpd_init
 .text.appdata_init
                0x000083d0       0x78 ./uip_ftp/ftp_main.o
                0x000083d0                appdata_init
 .text.CLKPWR_SetPCLKDiv
                0x00008448       0x5c ./driver_source/lpc17xx_clkpwr.o
                0x00008448                CLKPWR_SetPCLKDiv
 .text.CLKPWR_GetPCLK
                0x000084a4       0x44 ./driver_source/lpc17xx_clkpwr.o
                0x000084a4                CLKPWR_GetPCLK
 .text.CLKPWR_ConfigPPWR
                0x000084e8       0x4c ./driver_source/lpc17xx_clkpwr.o
                0x000084e8                CLKPWR_ConfigPPWR
 .text.GPDMA_IntHandler
                0x00008534      0x2c0 ./driver_source/lpc17xx_gpdma.o
                0x00008534                GPDMA_IntHandler
 .text.GPIO_SetDir
                0x000087f4       0x28 ./driver_source/lpc17xx_gpio.o
                0x000087f4                GPIO_SetDir
 .text.GPIO_SetValue
                0x0000881c       0x18 ./driver_source/lpc17xx_gpio.o
                0x0000881c                GPIO_SetValue
 .text.GPIO_ClearValue
                0x00008834       0x18 ./driver_source/lpc17xx_gpio.o
                0x00008834                GPIO_ClearValue
 .text.GPIO_ReadValue
                0x0000884c       0x1c ./driver_source/lpc17xx_gpio.o
                0x0000884c                GPIO_ReadValue
 .text.I2C_MasterHandler
                0x00008868      0x264 ./driver_source/lpc17xx_i2c.o
                0x00008868                I2C_MasterHandler
 .text.I2C_Init
                0x00008acc      0x104 ./driver_source/lpc17xx_i2c.o
                0x00008acc                I2C_Init
 .text.I2C_Cmd  0x00008bd0       0x64 ./driver_source/lpc17xx_i2c.o
                0x00008bd0                I2C_Cmd
 .text.I2C_MasterTransferData
                0x00008c34      0x328 ./driver_source/lpc17xx_i2c.o
                0x00008c34                I2C_MasterTransferData
 .text.I2C0_StdIntHandler
                0x00008f5c       0x18 ./driver_source/lpc17xx_i2c.o
                0x00008f5c                I2C0_StdIntHandler
 .text.I2C1_StdIntHandler
                0x00008f74       0x18 ./driver_source/lpc17xx_i2c.o
                0x00008f74                I2C1_StdIntHandler
 .text.I2C2_StdIntHandler
                0x00008f8c       0x18 ./driver_source/lpc17xx_i2c.o
                0x00008f8c                I2C2_StdIntHandler
 .text.I2S_IntHandler
                0x00008fa4       0x5c ./driver_source/lpc17xx_i2s.o
                0x00008fa4                I2S_IntHandler
 .text.check_failed
                0x00009000        0x4 ./driver_source/lpc17xx_libcfg_default.o
                0x00009000                check_failed
 .text.PINSEL_ConfigPin
                0x00009004       0xa4 ./driver_source/lpc17xx_pinsel.o
                0x00009004                PINSEL_ConfigPin
 .text.RTC_Init
                0x000090a8       0x38 ./driver_source/lpc17xx_rtc.o
                0x000090a8                RTC_Init
 .text.RTC_ResetClockTickCounter
                0x000090e0       0x34 ./driver_source/lpc17xx_rtc.o
                0x000090e0                RTC_ResetClockTickCounter
 .text.RTC_Cmd  0x00009114       0x4c ./driver_source/lpc17xx_rtc.o
                0x00009114                RTC_Cmd
 .text.RTC_SetTime
                0x00009160      0x144 ./driver_source/lpc17xx_rtc.o
                0x00009160                RTC_SetTime
 .text.RTC_GetFullTime
                0x000092a4       0x70 ./driver_source/lpc17xx_rtc.o
                0x000092a4                RTC_GetFullTime
 .text.RTC_CalibCounterCmd
                0x00009314       0x50 ./driver_source/lpc17xx_rtc.o
                0x00009314                RTC_CalibCounterCmd
 .text.LPC17xx_SD_SendCmd
                0x00009364      0x1d0 ./driver_source/lpc17xx_sd.o
 .text.LPC17xx_SD_WirteDataBlock
                0x00009534      0x12c ./driver_source/lpc17xx_sd.o
 .text.MMC_disk_initialize
                0x00009660      0x1b4 ./driver_source/lpc17xx_sd.o
                0x00009660                MMC_disk_initialize
 .text.MMC_disk_ioctl
                0x00009814      0x69c ./driver_source/lpc17xx_sd.o
                0x00009814                MMC_disk_ioctl
 .text.MMC_disk_read
                0x00009eb0      0x388 ./driver_source/lpc17xx_sd.o
                0x00009eb0                MMC_disk_read
 .text.MMC_disk_status
                0x0000a238       0x14 ./driver_source/lpc17xx_sd.o
                0x0000a238                MMC_disk_status
 .text.MMC_disk_write
                0x0000a24c      0x21c ./driver_source/lpc17xx_sd.o
                0x0000a24c                MMC_disk_write
 .text.SPI_IntHandler
                0x0000a468       0xe8 ./driver_source/lpc17xx_spi.o
                0x0000a468                SPI_IntHandler
 .text.SPI_Init
                0x0000a550      0x100 ./driver_source/lpc17xx_spi.o
                0x0000a550                SPI_Init
 .text.SPI_ConfigStructInit
                0x0000a650       0x20 ./driver_source/lpc17xx_spi.o
                0x0000a650                SPI_ConfigStructInit
 .text.SPI_SendData
                0x0000a670       0x24 ./driver_source/lpc17xx_spi.o
                0x0000a670                SPI_SendData
 .text.SPI_ReceiveData
                0x0000a694       0x24 ./driver_source/lpc17xx_spi.o
                0x0000a694                SPI_ReceiveData
 .text.SSP0_StdIntHandler
                0x0000a6b8       0x18 ./driver_source/lpc17xx_ssp.o
                0x0000a6b8                SSP0_StdIntHandler
 .text.SSP1_StdIntHandler
                0x0000a6d0       0x18 ./driver_source/lpc17xx_ssp.o
                0x0000a6d0                SSP1_StdIntHandler
 .text.uart_set_divisors
                0x0000a6e8      0x65c ./driver_source/lpc17xx_uart.o
                0x0000a6e8                uart_set_divisors
 .text.UART_GenIntHandler
                0x0000ad44      0x114 ./driver_source/lpc17xx_uart.o
                0x0000ad44                UART_GenIntHandler
 .text.UART_DeInit
                0x0000ae58       0xd4 ./driver_source/lpc17xx_uart.o
                0x0000ae58                UART_DeInit
 .text.UART_Init
                0x0000af2c      0x234 ./driver_source/lpc17xx_uart.o
                0x0000af2c                UART_Init
 .text.UART_ConfigStructInit
                0x0000b160       0x14 ./driver_source/lpc17xx_uart.o
                0x0000b160                UART_ConfigStructInit
 .text.UART_IntConfig
                0x0000b174      0x13c ./driver_source/lpc17xx_uart.o
                0x0000b174                UART_IntConfig
 .text.UART_CheckBusy
                0x0000b2b0       0x10 ./driver_source/lpc17xx_uart.o
                0x0000b2b0                UART_CheckBusy
 .text.UART_FIFOConfig
                0x0000b2c0       0xf8 ./driver_source/lpc17xx_uart.o
                0x0000b2c0                UART_FIFOConfig
 .text.UART_FIFOConfigStructInit
                0x0000b3b8       0x10 ./driver_source/lpc17xx_uart.o
                0x0000b3b8                UART_FIFOConfigStructInit
 .text.UART_TxCmd
                0x0000b3c8       0x8c ./driver_source/lpc17xx_uart.o
                0x0000b3c8                UART_TxCmd
 .text.UART_FullModemForcePinState
                0x0000b454       0x74 ./driver_source/lpc17xx_uart.o
                0x0000b454                UART_FullModemForcePinState
 .text.UART_Send
                0x0000b4c8      0x3b4 ./driver_source/lpc17xx_uart.o
                0x0000b4c8                UART_Send
 .text.UART_Receive
                0x0000b87c      0x5bc ./driver_source/lpc17xx_uart.o
                0x0000b87c                UART_Receive
 .text.UART_SetupCbs
                0x0000be38       0x88 ./driver_source/lpc17xx_uart.o
                0x0000be38                UART_SetupCbs
 .text.UART0_StdIntHandler
                0x0000bec0        0xc ./driver_source/lpc17xx_uart.o
                0x0000bec0                UART0_StdIntHandler
 .text.UART1_StdIntHandler
                0x0000becc       0x18 ./driver_source/lpc17xx_uart.o
                0x0000becc                UART1_StdIntHandler
 .text.UART2_StdIntHandler
                0x0000bee4        0xc ./driver_source/lpc17xx_uart.o
                0x0000bee4                UART2_StdIntHandler
 .text.UART3_StdIntHandler
                0x0000bef0        0xc ./driver_source/lpc17xx_uart.o
                0x0000bef0                UART3_StdIntHandler
 .text.UART1_IntReceive_usb
                0x0000befc       0xa4 ./UsbHost/Uart/usbhost_uart.o
                0x0000befc                UART1_IntReceive_usb
 .text.UART1_IntErr_usb
                0x0000bfa0       0x24 ./UsbHost/Uart/usbhost_uart.o
                0x0000bfa0                UART1_IntErr_usb
 .text.UART1_IntTransmit_usb
                0x0000bfc4       0xd4 ./UsbHost/Uart/usbhost_uart.o
                0x0000bfc4                UART1_IntTransmit_usb
 .text.UART_Init_usb
                0x0000c098      0x11c ./UsbHost/Uart/usbhost_uart.o
                0x0000c098                UART_Init_usb
 .text.UART_Printf
                0x0000c1b4       0x90 ./UsbHost/Uart/usbhost_uart.o
                0x0000c1b4                UART_Printf
 .text.MS_ParseConfiguration
                0x0000c244      0x100 ./UsbHost/MassStorage/usbhost_ms.o
                0x0000c244                MS_ParseConfiguration
 .text.Fill_MSCommand
                0x0000c344      0x12c ./UsbHost/MassStorage/usbhost_ms.o
                0x0000c344                Fill_MSCommand
 .text.MS_BulkSend
                0x0000c470       0x94 ./UsbHost/MassStorage/usbhost_ms.o
                0x0000c470                MS_BulkSend
 .text.MS_BulkRecv
                0x0000c504       0xa4 ./UsbHost/MassStorage/usbhost_ms.o
                0x0000c504                MS_BulkRecv
 .text.MS_Inquire
                0x0000c5a8       0xb8 ./UsbHost/MassStorage/usbhost_ms.o
                0x0000c5a8                MS_Inquire
 .text.MS_ReadCapacity
                0x0000c660       0x98 ./UsbHost/MassStorage/usbhost_ms.o
                0x0000c660                MS_ReadCapacity
 .text.MS_TestUnitReady
                0x0000c6f8       0x64 ./UsbHost/MassStorage/usbhost_ms.o
                0x0000c6f8                MS_TestUnitReady
 .text.MS_Init  0x0000c75c      0x144 ./UsbHost/MassStorage/usbhost_ms.o
                0x0000c75c                MS_Init
 .text.usb_host_main
                0x0000c8a0      0x18c ./UsbHost/Main/usbhost_main.o
                0x0000c8a0                usb_host_main
 .text.get_fattime
                0x0000ca2c       0x3c ./UsbHost/Host/usb_ms_diskio.o
                0x0000ca2c                get_fattime
 .text.USB_disk_initialize
                0x0000ca68       0xdc ./UsbHost/Host/usb_ms_diskio.o
                0x0000ca68                USB_disk_initialize
 .text.USB_disk_ioctl
                0x0000cb44       0x3c ./UsbHost/Host/usb_ms_diskio.o
                0x0000cb44                USB_disk_ioctl
 .text.USB_disk_read
                0x0000cb80       0x14 ./UsbHost/Host/usb_ms_diskio.o
                0x0000cb80                USB_disk_read
 .text.USB_disk_status
                0x0000cb94       0x14 ./UsbHost/Host/usb_ms_diskio.o
                0x0000cb94                USB_disk_status
 .text.USB_disk_write
                0x0000cba8       0x14 ./UsbHost/Host/usb_ms_diskio.o
                0x0000cba8                USB_disk_write
 .text.Host_Init
                0x0000cbbc      0x24c ./UsbHost/Host/usbhost_lpc17xx.o
                0x0000cbbc                Host_Init
 .text.USB_IRQHandler_host
                0x0000ce08       0xf8 ./UsbHost/Host/usbhost_lpc17xx.o
                0x0000ce08                USB_IRQHandler_host
 .text.Host_ProcessTD
                0x0000cf00       0xec ./UsbHost/Host/usbhost_lpc17xx.o
                0x0000cf00                Host_ProcessTD
 .text.Host_EnumDev
                0x0000cfec      0x470 ./UsbHost/Host/usbhost_lpc17xx.o
                0x0000cfec                Host_EnumDev
 .text.Host_CtrlRecv
                0x0000d45c      0x120 ./UsbHost/Host/usbhost_lpc17xx.o
                0x0000d45c                Host_CtrlRecv
 .text.WriteLE32U
                0x0000d57c       0x24 ./UsbHost/Host/usbhost_lpc17xx.o
                0x0000d57c                WriteLE32U
 .text.ReadLE16U
                0x0000d5a0       0x18 ./UsbHost/Host/usbhost_lpc17xx.o
                0x0000d5a0                ReadLE16U
 .text.ReadBE32U
                0x0000d5b8       0x24 ./UsbHost/Host/usbhost_lpc17xx.o
                0x0000d5b8                ReadBE32U
 .text.WriteBE32U
                0x0000d5dc       0x24 ./UsbHost/Host/usbhost_lpc17xx.o
                0x0000d5dc                WriteBE32U
 .text.WriteBE16U
                0x0000d600       0x10 ./UsbHost/Host/usbhost_lpc17xx.o
                0x0000d600                WriteBE16U
 .text.ff_convert
                0x0000d610      0x218 ./FatFs/option/cc932.o
                0x0000d610                ff_convert
 .text.ff_wtoupper
                0x0000d828       0x34 ./FatFs/option/cc932.o
                0x0000d828                ff_wtoupper
 .text.disk_initialize
                0x0000d85c       0x38 ./FatFs/diskio.o
                0x0000d85c                disk_initialize
 .text.disk_status
                0x0000d894       0x1c ./FatFs/diskio.o
                0x0000d894                disk_status
 .text.disk_read
                0x0000d8b0       0x28 ./FatFs/diskio.o
                0x0000d8b0                disk_read
 .text.disk_write
                0x0000d8d8       0x28 ./FatFs/diskio.o
                0x0000d8d8                disk_write
 .text.disk_ioctl
                0x0000d900       0x30 ./FatFs/diskio.o
                0x0000d900                disk_ioctl
 .text.get_fileinfo
                0x0000d930      0x340 ./FatFs/ff.o
 .text.chk_mounted
                0x0000dc70      0x450 ./FatFs/ff.o
 .text.sync     0x0000e0c0      0x1c4 ./FatFs/ff.o
 .text.get_fat  0x0000e284      0x508 ./FatFs/ff.o
                0x0000e284                get_fat
 .text.dir_sdi  0x0000e78c       0xb4 ./FatFs/ff.o
 .text.put_fat  0x0000e840      0x5e4 ./FatFs/ff.o
                0x0000e840                put_fat
 .text.create_chain
                0x0000ee24      0x178 ./FatFs/ff.o
 .text.dir_next
                0x0000ef9c      0x3a0 ./FatFs/ff.o
 .text.dir_find
                0x0000f33c      0x694 ./FatFs/ff.o
 .text.follow_path
                0x0000f9d0      0x674 ./FatFs/ff.o
 .text.dir_remove
                0x00010044      0x18c ./FatFs/ff.o
 .text.dir_read
                0x000101d0      0x4f0 ./FatFs/ff.o
 .text.gen_numname
                0x000106c0      0x218 ./FatFs/ff.o
                0x000106c0                gen_numname
 .text.dir_register
                0x000108d8      0xa80 ./FatFs/ff.o
 .text.f_mount  0x00011358       0x30 ./FatFs/ff.o
                0x00011358                f_mount
 .text.f_open   0x00011388      0x47c ./FatFs/ff.o
                0x00011388                f_open
 .text.f_read   0x00011804      0x3d0 ./FatFs/ff.o
                0x00011804                f_read
 .text.f_write  0x00011bd4      0x450 ./FatFs/ff.o
                0x00011bd4                f_write
 .text.f_sync   0x00012024      0x1dc ./FatFs/ff.o
                0x00012024                f_sync
 .text.f_close  0x00012200       0x10 ./FatFs/ff.o
                0x00012200                f_close
 .text.f_chdrive
                0x00012210       0x18 ./FatFs/ff.o
                0x00012210                f_chdrive
 .text.f_chdir  0x00012228       0x70 ./FatFs/ff.o
                0x00012228                f_chdir
 .text.f_getcwd
                0x00012298      0x294 ./FatFs/ff.o
                0x00012298                f_getcwd
 .text.f_lseek  0x0001252c      0x1c8 ./FatFs/ff.o
                0x0001252c                f_lseek
 .text.f_opendir
                0x000126f4       0x70 ./FatFs/ff.o
                0x000126f4                f_opendir
 .text.f_readdir
                0x00012764       0x74 ./FatFs/ff.o
                0x00012764                f_readdir
 .text.f_truncate
                0x000127d8      0x170 ./FatFs/ff.o
                0x000127d8                f_truncate
 .text.f_unlink
                0x00012948      0x12c ./FatFs/ff.o
                0x00012948                f_unlink
 .text.f_mkdir  0x00012a74      0x444 ./FatFs/ff.o
                0x00012a74                f_mkdir
 .text.SystemInit
                0x00012eb8       0xdc /home/nlv14991/workspaceLPC/STE-LPC1768-/CMSISv1p30_LPC17xx/Debug/libCMSISv1p30_LPC17xx.a(system_LPC17xx.o)
                0x00012eb8                SystemInit
 .text          0x00012f94      0x46c /home/nlv14991/workspaceLPC/STE-LPC1768-/FreeRTOS_Library/Debug/libFreeRTOS_Library.a(queue.o)
                0x00013076                xQueueCreate
                0x000130e0                xQueueCreateCountingSemaphore
                0x000130f0                xQueueGenericSend
                0x000131d0                xQueueCreateMutex
                0x00013212                xQueueGenericSendFromISR
                0x00013264                xQueueGenericReceive
                0x00013370                xQueueReceiveFromISR
                0x000133bc                uxQueueMessagesWaiting
                0x000133ce                uxQueueMessagesWaitingFromISR
                0x000133d2                vQueueDelete
                0x000133e6                xQueueIsQueueEmptyFromISR
                0x000133f2                xQueueIsQueueFullFromISR
 .text          0x00013400      0x9c4 /home/nlv14991/workspaceLPC/STE-LPC1768-/FreeRTOS_Library/Debug/libFreeRTOS_Library.a(tasks.o)
                0x00013400                xTaskGenericCreate
                0x00013590                vTaskDelete
                0x000135fc                uxTaskPriorityGet
                0x00013618                vTaskPrioritySet
                0x000136ac                xTaskIsTaskSuspended
                0x000136d4                vTaskResume
                0x00013738                xTaskResumeFromISR
                0x0001379c                vTaskStartScheduler
                0x000137e8                vTaskEndScheduler
                0x00013800                vTaskSuspendAll
                0x00013814                xTaskGetTickCount
                0x0001382c                xTaskGetTickCountFromISR
                0x00013838                uxTaskGetNumberOfTasks
                0x00013844                vTaskIncrementTick
                0x000138f8                xTaskResumeAll
                0x00013a14                vTaskDelay
                0x00013a60                vTaskDelayUntil
                0x00013ad4                vTaskSwitchContext
                0x00013b68                vTaskSuspend
                0x00013bd0                vTaskPlaceOnEventList
                0x00013c28                xTaskRemoveFromEventList
                0x00013c88                vTaskSetTimeOutState
                0x00013c9c                xTaskCheckForTimeOut
                0x00013cf8                vTaskMissedYield
                0x00013d08                xTaskGetCurrentTaskHandle
                0x00013d14                vTaskPriorityInherit
                0x00013d78                vTaskPriorityDisinherit
 .text          0x00013dc4      0x110 /home/nlv14991/workspaceLPC/STE-LPC1768-/FreeRTOS_Library/Debug/libFreeRTOS_Library.a(heap_2.o)
                0x00013dc4                pvPortMalloc
                0x00013e80                vPortFree
                0x00013ec4                xPortGetFreeHeapSize
                0x00013ed0                vPortInitialiseBlocks
 .text          0x00013ed4      0x134 /home/nlv14991/workspaceLPC/STE-LPC1768-/FreeRTOS_Library/Debug/libFreeRTOS_Library.a(port.o)
                0x00013ed4                pxPortInitialiseStack
                0x00013ef4                vPortSVCHandler
                0x00013f14                vPortStartFirstTask
                0x00013f20                xPortStartScheduler
                0x00013f60                vPortEndScheduler
                0x00013f62                vPortYieldFromISR
                0x00013f70                vPortEnterCritical
                0x00013f88                vPortExitCritical
                0x00013fa0                xPortPendSVHandler
                0x00013fdc                xPortSysTickHandler
 .text          0x00014008       0x88 /home/nlv14991/workspaceLPC/STE-LPC1768-/FreeRTOS_Library/Debug/libFreeRTOS_Library.a(list.o)
                0x00014008                vListInitialise
                0x0001401e                vListInitialiseItem
                0x00014024                vListInsertEnd
                0x0001403e                vListInsert
                0x00014070                vListRemove
 .text.fp_round
                0x00014090       0x56 /usr/local/lpcxpresso_4.2.3_255/lpcxpresso/tools/bin/../lib/gcc/arm-none-eabi/4.5.1/../../../../arm-none-eabi/lib/thumb2/libcr_c.a(fpprintf.o)
 .text.lose_trailing_zeros
                0x000140e6       0x1e /usr/local/lpcxpresso_4.2.3_255/lpcxpresso/tools/bin/../lib/gcc/arm-none-eabi/4.5.1/../../../../arm-none-eabi/lib/thumb2/libcr_c.a(fpprintf.o)
 .text.pr_dec.clone.0
                0x00014104       0x24 /usr/local/lpcxpresso_4.2.3_255/lpcxpresso/tools/bin/../lib/gcc/arm-none-eabi/4.5.1/../../../../arm-none-eabi/lib/thumb2/libcr_c.a(fpprintf.o)
 .text.sprintf  0x00014128       0x70 /usr/local/lpcxpresso_4.2.3_255/lpcxpresso/tools/bin/../lib/gcc/arm-none-eabi/4.5.1/../../../../arm-none-eabi/lib/thumb2/libcr_c.a(fpprintf.o)
                0x00014128                sprintf
 .text.fp_display
                0x00014198      0x918 /usr/local/lpcxpresso_4.2.3_255/lpcxpresso/tools/bin/../lib/gcc/arm-none-eabi/4.5.1/../../../../arm-none-eabi/lib/thumb2/libcr_c.a(fpprintf.o)
 .text.snprintf
                0x00014ab0       0x6c /usr/local/lpcxpresso_4.2.3_255/lpcxpresso/tools/bin/../lib/gcc/arm-none-eabi/4.5.1/../../../../arm-none-eabi/lib/thumb2/libcr_c.a(fpprintf.o)
                0x00014ab0                snprintf
 .text.vsprintf
                0x00014b1c       0x5c /usr/local/lpcxpresso_4.2.3_255/lpcxpresso/tools/bin/../lib/gcc/arm-none-eabi/4.5.1/../../../../arm-none-eabi/lib/thumb2/libcr_c.a(fpprintf.o)
                0x00014b1c                vsprintf
 .text.memcmp   0x00014b78       0x46 /usr/local/lpcxpresso_4.2.3_255/lpcxpresso/tools/bin/../lib/gcc/arm-none-eabi/4.5.1/../../../../arm-none-eabi/lib/thumb2/libcr_c.a(memcmp.o)
                0x00014b78                memcmp
 *fill*         0x00014bbe        0x2 00
 .text.__vfprintf
                0x00014bc0      0xc3c /usr/local/lpcxpresso_4.2.3_255/lpcxpresso/tools/bin/../lib/gcc/arm-none-eabi/4.5.1/../../../../arm-none-eabi/lib/thumb2/libcr_c.a(printf.o)
                0x00014bc0                __vfprintf
 .text.ch_val   0x000157fc       0x38 /usr/local/lpcxpresso_4.2.3_255/lpcxpresso/tools/bin/../lib/gcc/arm-none-eabi/4.5.1/../../../../arm-none-eabi/lib/thumb2/libcr_c.a(scanf.o)
 .text.cr_rd_int
                0x00015834      0x1a8 /usr/local/lpcxpresso_4.2.3_255/lpcxpresso/tools/bin/../lib/gcc/arm-none-eabi/4.5.1/../../../../arm-none-eabi/lib/thumb2/libcr_c.a(scanf.o)
 *fill*         0x000159dc        0x4 00
 .text.vfscanf  0x000159e0      0x980 /usr/local/lpcxpresso_4.2.3_255/lpcxpresso/tools/bin/../lib/gcc/arm-none-eabi/4.5.1/../../../../arm-none-eabi/lib/thumb2/libcr_c.a(scanf.o)
                0x000159e0                vfscanf
 .text.sscanf   0x00016360       0x4c /usr/local/lpcxpresso_4.2.3_255/lpcxpresso/tools/bin/../lib/gcc/arm-none-eabi/4.5.1/../../../../arm-none-eabi/lib/thumb2/libcr_c.a(scanf.o)
                0x00016360                sscanf
 .text.strcat   0x000163ac       0x1c /usr/local/lpcxpresso_4.2.3_255/lpcxpresso/tools/bin/../lib/gcc/arm-none-eabi/4.5.1/../../../../arm-none-eabi/lib/thumb2/libcr_c.a(strcat.o)
                0x000163ac                strcat
 .text.strchr   0x000163c8       0x18 /usr/local/lpcxpresso_4.2.3_255/lpcxpresso/tools/bin/../lib/gcc/arm-none-eabi/4.5.1/../../../../arm-none-eabi/lib/thumb2/libcr_c.a(strchr.o)
                0x000163c8                strchr
 .text.strcmp   0x000163e0       0x46 /usr/local/lpcxpresso_4.2.3_255/lpcxpresso/tools/bin/../lib/gcc/arm-none-eabi/4.5.1/../../../../arm-none-eabi/lib/thumb2/libcr_c.a(strcmp.o)
                0x000163e0                strcmp
 .text.strcpy   0x00016426       0x42 /usr/local/lpcxpresso_4.2.3_255/lpcxpresso/tools/bin/../lib/gcc/arm-none-eabi/4.5.1/../../../../arm-none-eabi/lib/thumb2/libcr_c.a(strcpy.o)
                0x00016426                strcpy
 .text.strlen   0x00016468       0x4e /usr/local/lpcxpresso_4.2.3_255/lpcxpresso/tools/bin/../lib/gcc/arm-none-eabi/4.5.1/../../../../arm-none-eabi/lib/thumb2/libcr_c.a(strlen.o)
                0x00016468                strlen
 .text.strncmp  0x000164b6       0x58 /usr/local/lpcxpresso_4.2.3_255/lpcxpresso/tools/bin/../lib/gcc/arm-none-eabi/4.5.1/../../../../arm-none-eabi/lib/thumb2/libcr_c.a(strncmp.o)
                0x000164b6                strncmp
 .text.strncpy  0x0001650e       0x58 /usr/local/lpcxpresso_4.2.3_255/lpcxpresso/tools/bin/../lib/gcc/arm-none-eabi/4.5.1/../../../../arm-none-eabi/lib/thumb2/libcr_c.a(strncpy.o)
                0x0001650e                strncpy
 .text.strrchr  0x00016566       0x24 /usr/local/lpcxpresso_4.2.3_255/lpcxpresso/tools/bin/../lib/gcc/arm-none-eabi/4.5.1/../../../../arm-none-eabi/lib/thumb2/libcr_c.a(strrchr.o)
                0x00016566                strrchr
 .text.strstr   0x0001658a       0x20 /usr/local/lpcxpresso_4.2.3_255/lpcxpresso/tools/bin/../lib/gcc/arm-none-eabi/4.5.1/../../../../arm-none-eabi/lib/thumb2/libcr_c.a(strstr.o)
                0x0001658a                strstr
 .text.ungetc   0x000165aa       0x3a /usr/local/lpcxpresso_4.2.3_255/lpcxpresso/tools/bin/../lib/gcc/arm-none-eabi/4.5.1/../../../../arm-none-eabi/lib/thumb2/libcr_c.a(ungetc.o)
                0x000165aa                ungetc
 .text.memcpy   0x000165e4        0x4 /usr/local/lpcxpresso_4.2.3_255/lpcxpresso/tools/bin/../lib/gcc/arm-none-eabi/4.5.1/../../../../arm-none-eabi/lib/thumb2/libcr_c.a(memcpy.o)
                0x000165e4                memcpy
 .text.memset   0x000165e8        0x4 /usr/local/lpcxpresso_4.2.3_255/lpcxpresso/tools/bin/../lib/gcc/arm-none-eabi/4.5.1/../../../../arm-none-eabi/lib/thumb2/libcr_c.a(memset.o)
                0x000165e8                memset
 .text._Csys_read_
                0x000165ec       0x22 /usr/local/lpcxpresso_4.2.3_255/lpcxpresso/tools/bin/../lib/gcc/arm-none-eabi/4.5.1/../../../../arm-none-eabi/lib/thumb2/libcr_c.a(__fillbuf.o)
                0x000165ec                _Csys_read_
 *fill*         0x0001660e        0x2 00
 .text.__filbuf
                0x00016610      0x190 /usr/local/lpcxpresso_4.2.3_255/lpcxpresso/tools/bin/../lib/gcc/arm-none-eabi/4.5.1/../../../../arm-none-eabi/lib/thumb2/libcr_c.a(__fillbuf.o)
                0x00016610                __filbuf
 .text._deferredlazyseek
                0x000167a0       0x44 /usr/local/lpcxpresso_4.2.3_255/lpcxpresso/tools/bin/../lib/gcc/arm-none-eabi/4.5.1/../../../../arm-none-eabi/lib/thumb2/libcr_c.a(_deferredlazyseek.o)
                0x000167a0                _deferredlazyseek
 .text.__flsbuf
                0x000167e4      0x15e /usr/local/lpcxpresso_4.2.3_255/lpcxpresso/tools/bin/../lib/gcc/arm-none-eabi/4.5.1/../../../../arm-none-eabi/lib/thumb2/libcr_c.a(_deferredlazyseek.o)
                0x000167e4                __flsbuf
 .text._fflush  0x00016942       0x58 /usr/local/lpcxpresso_4.2.3_255/lpcxpresso/tools/bin/../lib/gcc/arm-none-eabi/4.5.1/../../../../arm-none-eabi/lib/thumb2/libcr_c.a(_fflush.o)
                0x00016942                _fflush
 .text._frexpl  0x0001699a       0x62 /usr/local/lpcxpresso_4.2.3_255/lpcxpresso/tools/bin/../lib/gcc/arm-none-eabi/4.5.1/../../../../arm-none-eabi/lib/thumb2/libcr_c.a(_frexpl.o)
                0x0001699a                _frexpl
 .text._ldexpl  0x000169fc       0x50 /usr/local/lpcxpresso_4.2.3_255/lpcxpresso/tools/bin/../lib/gcc/arm-none-eabi/4.5.1/../../../../arm-none-eabi/lib/thumb2/libcr_c.a(_ldexpl.o)
                0x000169fc                _ldexpl
 .text._Cwritebuf
                0x00016a4c       0x88 /usr/local/lpcxpresso_4.2.3_255/lpcxpresso/tools/bin/../lib/gcc/arm-none-eabi/4.5.1/../../../../arm-none-eabi/lib/thumb2/libcr_c.a(_writebuf.o)
                0x00016a4c                _Cwritebuf
 .text.malloc   0x00016ad4       0xd0 /usr/local/lpcxpresso_4.2.3_255/lpcxpresso/tools/bin/../lib/gcc/arm-none-eabi/4.5.1/../../../../arm-none-eabi/lib/thumb2/libcr_c.a(alloc.o)
                0x00016ad4                malloc
 .text._Csys_alloc
                0x00016ba4       0x20 /usr/local/lpcxpresso_4.2.3_255/lpcxpresso/tools/bin/../lib/gcc/arm-none-eabi/4.5.1/../../../../arm-none-eabi/lib/thumb2/libcr_c.a(alloc.o)
                0x00016ba4                _Csys_alloc
 .text.fseek    0x00016bc4      0x110 /usr/local/lpcxpresso_4.2.3_255/lpcxpresso/tools/bin/../lib/gcc/arm-none-eabi/4.5.1/../../../../arm-none-eabi/lib/thumb2/libcr_c.a(fseek.o)
                0x00016bc4                fseek
 .text.ftell    0x00016cd4       0x50 /usr/local/lpcxpresso_4.2.3_255/lpcxpresso/tools/bin/../lib/gcc/arm-none-eabi/4.5.1/../../../../arm-none-eabi/lib/thumb2/libcr_c.a(ftell.o)
                0x00016cd4                ftell
 .text.__aeabi_dmul
                0x00016d24      0x128 /usr/local/lpcxpresso_4.2.3_255/lpcxpresso/tools/bin/../lib/gcc/arm-none-eabi/4.5.1/thumb2/libcr_eabihelpers.a(double.o)
                0x00016d24                __aeabi_dmul
 .text.__aeabi_ddiv
                0x00016e4c      0x144 /usr/local/lpcxpresso_4.2.3_255/lpcxpresso/tools/bin/../lib/gcc/arm-none-eabi/4.5.1/thumb2/libcr_eabihelpers.a(double.o)
                0x00016e4c                __aeabi_ddiv
 .text.__aeabi_dsub
                0x00016f90      0x1d8 /usr/local/lpcxpresso_4.2.3_255/lpcxpresso/tools/bin/../lib/gcc/arm-none-eabi/4.5.1/thumb2/libcr_eabihelpers.a(double.o)
                0x00016f90                __aeabi_dsub
 .text.__aeabi_dadd
                0x00017168      0x13c /usr/local/lpcxpresso_4.2.3_255/lpcxpresso/tools/bin/../lib/gcc/arm-none-eabi/4.5.1/thumb2/libcr_eabihelpers.a(double.o)
                0x00017168                __aeabi_dadd
 .text.__aeabi_d2f
                0x000172a4       0x54 /usr/local/lpcxpresso_4.2.3_255/lpcxpresso/tools/bin/../lib/gcc/arm-none-eabi/4.5.1/thumb2/libcr_eabihelpers.a(double.o)
                0x000172a4                __aeabi_d2f
 .text.__aeabi_d2iz
                0x000172f8       0x3e /usr/local/lpcxpresso_4.2.3_255/lpcxpresso/tools/bin/../lib/gcc/arm-none-eabi/4.5.1/thumb2/libcr_eabihelpers.a(double.o)
                0x000172f8                __aeabi_d2iz
 .text.__bhs_ui2d
                0x00017336       0x50 /usr/local/lpcxpresso_4.2.3_255/lpcxpresso/tools/bin/../lib/gcc/arm-none-eabi/4.5.1/thumb2/libcr_eabihelpers.a(double.o)
                0x00017336                __bhs_ui2d
 .text.__aeabi_i2d
                0x00017386       0x10 /usr/local/lpcxpresso_4.2.3_255/lpcxpresso/tools/bin/../lib/gcc/arm-none-eabi/4.5.1/thumb2/libcr_eabihelpers.a(double.o)
                0x00017386                __aeabi_i2d
 .text.__aeabi_dcmpeq
                0x00017396       0x36 /usr/local/lpcxpresso_4.2.3_255/lpcxpresso/tools/bin/../lib/gcc/arm-none-eabi/4.5.1/thumb2/libcr_eabihelpers.a(double.o)
                0x00017396                __aeabi_dcmpeq
 .text.__aeabi_dcmplt
                0x000173cc       0x5a /usr/local/lpcxpresso_4.2.3_255/lpcxpresso/tools/bin/../lib/gcc/arm-none-eabi/4.5.1/thumb2/libcr_eabihelpers.a(double.o)
                0x000173cc                __aeabi_dcmplt
 .text.__aeabi_dcmple
                0x00017426       0x5a /usr/local/lpcxpresso_4.2.3_255/lpcxpresso/tools/bin/../lib/gcc/arm-none-eabi/4.5.1/thumb2/libcr_eabihelpers.a(double.o)
                0x00017426                __aeabi_dcmple
 .text.__aeabi_dcmpge
                0x00017480       0x5a /usr/local/lpcxpresso_4.2.3_255/lpcxpresso/tools/bin/../lib/gcc/arm-none-eabi/4.5.1/thumb2/libcr_eabihelpers.a(double.o)
                0x00017480                __aeabi_dcmpge
 .text.__aeabi_memcpy
                0x000174da       0x26 /usr/local/lpcxpresso_4.2.3_255/lpcxpresso/tools/bin/../lib/gcc/arm-none-eabi/4.5.1/thumb2/libcr_eabihelpers.a(memcpy.o)
                0x000174da                __aeabi_memcpy
                0x000174da                __aeabi_memcpy4
                0x000174da                __aeabi_memcpy8
 .text.__aeabi_memset_lowlevel
                0x00017500       0x24 /usr/local/lpcxpresso_4.2.3_255/lpcxpresso/tools/bin/../lib/gcc/arm-none-eabi/4.5.1/thumb2/libcr_eabihelpers.a(memcpy.o)
                0x00017500                __aeabi_lowlevel_memset
 .text.__sys_appexit
                0x00017524        0x2 /usr/local/lpcxpresso_4.2.3_255/lpcxpresso/tools/bin/../lib/gcc/arm-none-eabi/4.5.1/../../../../arm-none-eabi/lib/thumb2/libcr_nohost.a(__sys_appexit.o)
                0x00017524                __exit
                0x00017524                __sys_appexit
 .text.__sys_flen
                0x00017526        0x6 /usr/local/lpcxpresso_4.2.3_255/lpcxpresso/tools/bin/../lib/gcc/arm-none-eabi/4.5.1/../../../../arm-none-eabi/lib/thumb2/libcr_nohost.a(__sys_flen.o)
                0x00017526                __sys_flen
 .text.__sys_istty
                0x0001752c        0x6 /usr/local/lpcxpresso_4.2.3_255/lpcxpresso/tools/bin/../lib/gcc/arm-none-eabi/4.5.1/../../../../arm-none-eabi/lib/thumb2/libcr_nohost.a(__sys_istty.o)
                0x0001752c                __sys_istty
 .text.__sys_read
                0x00017532        0x4 /usr/local/lpcxpresso_4.2.3_255/lpcxpresso/tools/bin/../lib/gcc/arm-none-eabi/4.5.1/../../../../arm-none-eabi/lib/thumb2/libcr_nohost.a(__sys_read.o)
                0x00017532                __sys_read
 .text.__sys_readc
                0x00017536        0x6 /usr/local/lpcxpresso_4.2.3_255/lpcxpresso/tools/bin/../lib/gcc/arm-none-eabi/4.5.1/../../../../arm-none-eabi/lib/thumb2/libcr_nohost.a(__sys_readc.o)
                0x00017536                __readc
                0x00017536                __sys_readc
 .text.__sys_seek
                0x0001753c        0x6 /usr/local/lpcxpresso_4.2.3_255/lpcxpresso/tools/bin/../lib/gcc/arm-none-eabi/4.5.1/../../../../arm-none-eabi/lib/thumb2/libcr_nohost.a(__sys_seek.o)
                0x0001753c                __sys_seek
 .text.__sys_write
                0x00017542        0x4 /usr/local/lpcxpresso_4.2.3_255/lpcxpresso/tools/bin/../lib/gcc/arm-none-eabi/4.5.1/../../../../arm-none-eabi/lib/thumb2/libcr_nohost.a(__sys_write.o)
                0x00017542                __write
                0x00017542                __sys_write
 *fill*         0x00017546        0x2 00
 .text._sbrk    0x00017548       0x40 /usr/local/lpcxpresso_4.2.3_255/lpcxpresso/tools/bin/../lib/gcc/arm-none-eabi/4.5.1/../../../../arm-none-eabi/lib/thumb2/libcr_nohost.a(_cr_sbrk.o)
                0x00017548                _sbrk
 .text.__check_heap_overflow
                0x00017588       0x2c /usr/local/lpcxpresso_4.2.3_255/lpcxpresso/tools/bin/../lib/gcc/arm-none-eabi/4.5.1/../../../../arm-none-eabi/lib/thumb2/libcr_nohost.a(_cr_check_heap.o)
                0x00017588                __check_heap_overflow
 *(.rodata .rodata.*)
 .rodata        0x000175b4       0x10 ./LedBlinky.o
                0x000175b4                led_mask
 .rodata.str1.4
                0x000175c4       0x75 ./cr_startup_lpc17.o
                                 0x78 (size before relaxing)
 *fill*         0x00017639        0x3 00
 .rodata.str1.4
                0x0001763c       0x3f ./main.o
                                 0x40 (size before relaxing)
 *fill*         0x0001767b        0x1 00
 .rodata        0x0001767c      0x288 ./webserver/http-strings.o
                0x0001767c                http_http
                0x00017684                http_200
                0x0001768c                http_301
                0x00017694                http_302
                0x0001769c                http_get
                0x000176a4                http_10
                0x000176b0                http_11
                0x000176bc                http_content_type
                0x000176cc                http_texthtml
                0x000176d8                http_location
                0x000176e4                http_host
                0x000176ec                http_crnl
                0x000176f0                http_index_html
                0x000176fc                http_404_html
                0x00017708                http_referer
                0x00017714                http_header_200
                0x00017768                http_header_404
                0x000177c4                http_content_type_plain
                0x000177e4                http_content_type_html
                0x00017800                http_content_type_css
                0x0001781c                http_content_type_text
                0x00017838                http_content_type_png
                0x00017854                http_content_type_gif
                0x00017870                http_content_type_jpg
                0x00017890                http_content_type_binary
                0x000178bc                http_html
                0x000178c4                http_shtml
                0x000178cc                http_htm
                0x000178d4                http_css
                0x000178dc                http_png
                0x000178e4                http_gif
                0x000178ec                http_jpg
                0x000178f4                http_text
                0x000178fc                http_txt
 .rodata        0x00017904       0xc0 ./webserver/httpd-cgi.o
 .rodata.str1.4
                0x000179c4      0x183 ./webserver/httpd-cgi.o
                                0x184 (size before relaxing)
 *fill*         0x00017b47        0x1 00
 .rodata        0x00017b48     0x1578 ./webserver/httpd-fs.o
                0x00017b48                file_tcp_shtml
                0x00017b5c                file_404_html
                0x00017b70                file_index_html
                0x00017b84                file_index_shtml
                0x00017b98                file_io_shtml
                0x00017bac                file_runtime_shtml
                0x00017bc0                file_stats_shtml
 .rodata.str1.4
                0x000190c0       0xdf ./webserver/uIP_Task.o
                                 0xe0 (size before relaxing)
 *fill*         0x0001919f        0x1 00
 .rodata        0x000191a0        0x8 ./webserver/uip_arp.o
 .rodata        0x000191a8       0xe8 ./uip_ftp/Connections.o
                0x000191d8                Cmd_dictionary
 .rodata.str1.4
                0x00019290      0xa9c ./uip_ftp/Connections.o
 .rodata.str1.4
                0x00019d2c      0x1cc ./uip_ftp/FTPD.o
                                0x1e0 (size before relaxing)
 .rodata        0x00019ef8       0x3c ./driver_source/lpc17xx_gpio.o
 .rodata.str1.4
                0x00019f34       0x1f ./driver_source/lpc17xx_i2c.o
                                 0x20 (size before relaxing)
 *fill*         0x00019f53        0x1 00
 .rodata.str1.4
                0x00019f54       0x1f ./driver_source/lpc17xx_rtc.o
                                 0x20 (size before relaxing)
 *fill*         0x00019f73        0x1 00
 .rodata.str1.4
                0x00019f74       0x1f ./driver_source/lpc17xx_spi.o
                                 0x20 (size before relaxing)
 *fill*         0x00019f93        0x1 00
 .rodata        0x00019f94        0x8 ./driver_source/lpc17xx_uart.o
 .rodata.str1.4
                0x00019f9c       0x20 ./driver_source/lpc17xx_uart.o
 .rodata        0x00019fbc        0x8 ./UsbHost/MassStorage/usbhost_ms.o
 .rodata.str1.4
                0x00019fc4       0x5f ./UsbHost/MassStorage/usbhost_ms.o
                                 0x60 (size before relaxing)
 *fill*         0x0001a023        0x1 00
 .rodata.str1.4
                0x0001a024       0xce ./UsbHost/Main/usbhost_main.o
                                 0xd4 (size before relaxing)
 *fill*         0x0001a0f2        0x2 00
 .rodata        0x0001a0f4       0x10 ./UsbHost/Host/usbhost_lpc17xx.o
 .rodata.str1.4
                0x0001a104       0x9f ./UsbHost/Host/usbhost_lpc17xx.o
                                 0xc4 (size before relaxing)
 *fill*         0x0001a1a3        0x1 00
 .rodata        0x0001a1a4     0xeab0 ./FatFs/option/cc932.o
 .rodata.str1.4
                0x00028c54       0x48 ./FatFs/ff.o
 .rodata        0x00028c9c       0x14 /home/nlv14991/workspaceLPC/STE-LPC1768-/FreeRTOS_Library/Debug/libFreeRTOS_Library.a(tasks.o)
 .rodata.str1.1
                0x00028cb0        0x5 /home/nlv14991/workspaceLPC/STE-LPC1768-/FreeRTOS_Library/Debug/libFreeRTOS_Library.a(tasks.o)
 .rodata.str1.1
                0x00028cb5       0x34 /usr/local/lpcxpresso_4.2.3_255/lpcxpresso/tools/bin/../lib/gcc/arm-none-eabi/4.5.1/../../../../arm-none-eabi/lib/thumb2/libcr_c.a(fpprintf.o)
                                 0x35 (size before relaxing)
 .rodata.str1.1
                0x00028ce9       0x31 /usr/local/lpcxpresso_4.2.3_255/lpcxpresso/tools/bin/../lib/gcc/arm-none-eabi/4.5.1/../../../../arm-none-eabi/lib/thumb2/libcr_c.a(printf.o)
                                 0x38 (size before relaxing)
 *fill*         0x00028d1a        0x6 00
 .rodata.__huge_vall
                0x00028d20        0x8 /usr/local/lpcxpresso_4.2.3_255/lpcxpresso/tools/bin/../lib/gcc/arm-none-eabi/4.5.1/../../../../arm-none-eabi/lib/thumb2/libcr_c.a(_hugeval.o)
                0x00028d20                __huge_vall
 .rodata.str1.1
                0x00028d28       0x18 /usr/local/lpcxpresso_4.2.3_255/lpcxpresso/tools/bin/../lib/gcc/arm-none-eabi/4.5.1/../../../../arm-none-eabi/lib/thumb2/libcr_c.a(alloc.o)
 .rodata.__ctype
                0x00028d40      0x180 /usr/local/lpcxpresso_4.2.3_255/lpcxpresso/tools/bin/../lib/gcc/arm-none-eabi/4.5.1/../../../../arm-none-eabi/lib/thumb2/libcr_c.a(ctype.o)
                0x00028d40                __ctype
                0x00028ec0                . = ALIGN (0x4)

.glue_7         0x00028ec0        0x0
 .glue_7        0x00000000        0x0 linker stubs

.glue_7t        0x00028ec0        0x0
 .glue_7t       0x00000000        0x0 linker stubs

.vfp11_veneer   0x00028ec0        0x0
 .vfp11_veneer  0x00000000        0x0 linker stubs

.v4_bx          0x00028ec0        0x0
 .v4_bx         0x00000000        0x0 linker stubs

.ARM.extab
 *(.ARM.extab* .gnu.linkonce.armextab.*)
                0x00028ec0                __exidx_start = .

.ARM.exidx
 *(.ARM.exidx* .gnu.linkonce.armexidx.*)
                0x00028ec0                __exidx_end = .
                0x00028ec0                _etext = .

.data_RAM2      0x2007c000        0x0 load address 0x00028ec0
 FILL mask 0xff
 *(.data.$RAM2*)
 *(.data.$RamAHB32*)
                0x2007c000                . = ALIGN (0x4)

.uninit_RESERVED
 *(.bss.$RESERVED*)

.data           0x10000000       0xa4 load address 0x00028ec0
 FILL mask 0xff
                0x10000000                _data = .
 *(vtable)
 *(.data*)
 .data          0x10000000       0x70 ./uart_fullmodem_test.o
                0x10000000                menu1
                0x10000010                menu2
                0x10000058                menu3
 .data          0x10000070       0x20 ./webserver/httpd-cgi.o
 .data          0x10000090        0x1 ./driver_source/lpc17xx_sd.o
 .data          0x10000091        0x1 ./UsbHost/Host/usb_ms_diskio.o
 *fill*         0x10000092        0x2 00
 .data          0x10000094        0x4 /home/nlv14991/workspaceLPC/STE-LPC1768-/CMSISv1p30_LPC17xx/Debug/libCMSISv1p30_LPC17xx.a(system_LPC17xx.o)
                0x10000094                SystemCoreClock
 .data          0x10000098        0x4 /home/nlv14991/workspaceLPC/STE-LPC1768-/FreeRTOS_Library/Debug/libFreeRTOS_Library.a(port.o)
 .data.posinf.1879
                0x1000009c        0x4 /usr/local/lpcxpresso_4.2.3_255/lpcxpresso/tools/bin/../lib/gcc/arm-none-eabi/4.5.1/../../../../arm-none-eabi/lib/thumb2/libcr_c.a(scanf.o)
 .data.neginf.1880
                0x100000a0        0x4 /usr/local/lpcxpresso_4.2.3_255/lpcxpresso/tools/bin/../lib/gcc/arm-none-eabi/4.5.1/../../../../arm-none-eabi/lib/thumb2/libcr_c.a(scanf.o)
                0x100000a4                . = ALIGN (0x4)
                0x100000a4                _edata = .

.bss_RAM2       0x2007c000        0x0
 *(.bss.$RAM2*)
 *(.bss.$RamAHB32*)
                0x2007c000                . = ALIGN (0x4)

.bss            0x100000a8     0x6118
                0x100000a8                _bss = .
 *(.bss*)
 .bss           0x100000a8        0x8 ./webserver/emac.o
 .bss           0x100000b0       0x84 ./webserver/httpd-cgi.o
                0x100000b0                lRefreshCount
 .bss           0x10000134       0x10 ./webserver/httpd-fs.o
 .bss           0x10000144        0x4 ./webserver/uIP_Task.o
                0x10000144                xEMACSemaphore
 .bss           0x10000148       0x18 ./webserver/uip.o
                0x10000158                uip_ethaddr
 .bss           0x10000160       0x68 ./webserver/uip_arp.o
 .bss           0x100001c8      0xc20 ./uip_ftp/Connections.o
 .bss           0x10000de8       0x20 ./driver_source/lpc17xx_gpdma.o
 .bss           0x10000e08       0x24 ./driver_source/lpc17xx_i2c.o
 .bss           0x10000e2c        0x8 ./driver_source/lpc17xx_i2s.o
 .bss           0x10000e34       0x40 ./driver_source/lpc17xx_sd.o
 .bss           0x10000e74        0xc ./driver_source/lpc17xx_spi.o
 .bss           0x10000e80       0x18 ./driver_source/lpc17xx_ssp.o
 .bss           0x10000e98       0x44 ./driver_source/lpc17xx_uart.o
                0x10000e98                pfnModemCbs
                0x10000e9c                uartCbsDat
 .bss           0x10000edc       0x2c ./UsbHost/Uart/usbhost_uart.o
 .bss           0x10000f08      0x200 ./UsbHost/Main/usbhost_main.o
 .bss           0x10001108        0x3 ./UsbHost/Host/usb_ms_diskio.o
 *fill*         0x1000110b        0x1 00
 .bss           0x1000110c        0xc ./UsbHost/Host/usbhost_lpc17xx.o
                0x1000110c                HOST_RhscIntr
                0x10001110                HOST_TDControlStatus
                0x10001114                HOST_WdhIntr
 .bss           0x10001118      0x214 ./FatFs/ff.o
 .bss           0x1000132c      0x100 /home/nlv14991/workspaceLPC/STE-LPC1768-/FreeRTOS_Library/Debug/libFreeRTOS_Library.a(tasks.o)
                0x10001330                pxCurrentTCB
 *fill*         0x1000142c        0x4 00
 .bss           0x10001430     0x2820 /home/nlv14991/workspaceLPC/STE-LPC1768-/FreeRTOS_Library/Debug/libFreeRTOS_Library.a(heap_2.o)
 .bss.errno     0x10003c50        0x4 /usr/local/lpcxpresso_4.2.3_255/lpcxpresso/tools/bin/../lib/gcc/arm-none-eabi/4.5.1/../../../../arm-none-eabi/lib/thumb2/libcr_c.a(errno.o)
                0x10003c50                errno
 *(COMMON)
 COMMON         0x10003c54        0x4 ./LedBlinky.o
                0x10003c54                SysTickCnt
 COMMON         0x10003c58       0x51 ./lcd_i2c.o
                0x10003c58                transferMCfg
                0x10003c84                master_test
                0x10003c88                Master_Buf
 *fill*         0x10003ca9        0x3 00
 COMMON         0x10003cac        0x4 ./main.o
                0x10003cac                xCountingSemaphore
 COMMON         0x10003cb0      0x218 ./uart_fullmodem_test.o
                0x10003cb0                rb
                0x10003ec0                TxIntStat
                0x10003ec4                RTS_State
 COMMON         0x10003ec8        0x4 ./webserver/emac.o
                0x10003ec8                uip_buf
 COMMON         0x10003ecc        0x8 ./webserver/httpd-cgi.o
                0x10003ecc                ulString
                0x10003ed0                pcStatus
 COMMON         0x10003ed4      0x8c2 ./webserver/uip.o
                0x10003ed4                uip_len
                0x10003ed8                uip_sappdata
                0x10003edc                uip_acc32
                0x10003ee0                uip_flags
                0x10003ee4                uip_appdata
                0x10003ee8                uip_conn
                0x10003eec                uip_conns
                0x1000470c                uip_listenports
                0x1000475c                uip_draddr
                0x10004760                uip_stat
                0x1000478c                uip_netmask
                0x10004790                uip_hostaddr
                0x10004794                uip_slen
 *fill*         0x10004796        0x2 00
 COMMON         0x10004798      0xb3c ./uip_ftp/FTPD.o
                0x10004798                driveAttached
                0x1000479c                ftpd_state
 COMMON         0x100052d4      0x1b8 ./uip_ftp/ftp_main.o
                0x100052d4                tcp_appdata
 COMMON         0x1000548c      0x218 ./UsbHost/Uart/usbhost_uart.o
                0x1000548c                RTS_State_usb
                0x10005490                TxIntStat_usb
                0x10005494                rb_usb
 COMMON         0x100056a4        0x4 ./UsbHost/MassStorage/usbhost_ms.o
                0x100056a4                MS_BlkSize
 COMMON         0x100056a8      0xae4 ./UsbHost/Main/usbhost_main.o
                0x100056a8                File1
                0x100058cc                USBFs
                0x10005f68                File2
 COMMON         0x1000618c       0x2c ./UsbHost/Host/usbhost_lpc17xx.o
                0x1000618c                TDBufNonVol
                0x10006190                FATBuffer
                0x10006194                Hcca
                0x10006198                TDTail
                0x1000619c                EDBulkOut
                0x100061a0                UserBuffer
                0x100061a4                gUSBConnected
                0x100061a8                TDBuffer
                0x100061ac                EDBulkIn
                0x100061b0                EDCtrl
                0x100061b4                TDHead
 COMMON         0x100061b8        0x8 /usr/local/lpcxpresso_4.2.3_255/lpcxpresso/tools/bin/../lib/gcc/arm-none-eabi/4.5.1/../../../../arm-none-eabi/lib/thumb2/libcr_c.a(__init_alloc.o)
                0x100061b8                __heaps
                0x100061bc                __end_of_heap
                0x100061c0                . = ALIGN (0x4)
                0x100061c0                _ebss = .
                0x100061c0                PROVIDE (end, .)
                0x100061c0                PROVIDE (_pvHeapStart, .)
                0x10008000                PROVIDE (_vStackTop, (__top_RamLoc32 - 0x0))
OUTPUT(example_driver.axf elf32-littlearm)

.debug_abbrev   0x00000000     0x8269
 .debug_abbrev  0x00000000      0x276 ./LedBlinky.o
 .debug_abbrev  0x00000276      0x211 ./cr_startup_lpc17.o
 .debug_abbrev  0x00000487      0x2b6 ./lcd_i2c.o
 .debug_abbrev  0x0000073d      0x1a5 ./main.o
 .debug_abbrev  0x000008e2      0x3a2 ./uart_fullmodem_test.o
 .debug_abbrev  0x00000c84      0x2df ./webserver/emac.o
 .debug_abbrev  0x00000f63       0x4b ./webserver/http-strings.o
 .debug_abbrev  0x00000fae      0x26f ./webserver/httpd-cgi.o
 .debug_abbrev  0x0000121d      0x1a2 ./webserver/httpd-fs.o
 .debug_abbrev  0x000013bf      0x292 ./webserver/httpd.o
 .debug_abbrev  0x00001651      0x2c1 ./webserver/psock.o
 .debug_abbrev  0x00001912       0xee ./webserver/timer.o
 .debug_abbrev  0x00001a00      0x348 ./webserver/uIP_Task.o
 .debug_abbrev  0x00001d48      0x384 ./webserver/uip.o
 .debug_abbrev  0x000020cc      0x196 ./webserver/uip_arp.o
 .debug_abbrev  0x00002262      0x3a4 ./uip_ftp/Connections.o
 .debug_abbrev  0x00002606      0x242 ./uip_ftp/FTPD.o
 .debug_abbrev  0x00002848       0x3b ./uip_ftp/FTP_Strings.o
 .debug_abbrev  0x00002883      0x2fa ./uip_ftp/ftp_main.o
 .debug_abbrev  0x00002b7d      0x165 ./driver_source/lpc17xx_adc.o
 .debug_abbrev  0x00002ce2      0x228 ./driver_source/lpc17xx_can.o
 .debug_abbrev  0x00002f0a      0x1de ./driver_source/lpc17xx_clkpwr.o
 .debug_abbrev  0x000030e8      0x14e ./driver_source/lpc17xx_dac.o
 .debug_abbrev  0x00003236      0x377 ./driver_source/lpc17xx_emac.o
 .debug_abbrev  0x000035ad      0x1f7 ./driver_source/lpc17xx_gpdma.o
 .debug_abbrev  0x000037a4      0x1f9 ./driver_source/lpc17xx_gpio.o
 .debug_abbrev  0x0000399d      0x375 ./driver_source/lpc17xx_i2c.o
 .debug_abbrev  0x00003d12      0x263 ./driver_source/lpc17xx_i2s.o
 .debug_abbrev  0x00003f75       0x6a ./driver_source/lpc17xx_libcfg_default.o
 .debug_abbrev  0x00003fdf      0x189 ./driver_source/lpc17xx_mcpwm.o
 .debug_abbrev  0x00004168       0xf9 ./driver_source/lpc17xx_nvic.o
 .debug_abbrev  0x00004261      0x1af ./driver_source/lpc17xx_pinsel.o
 .debug_abbrev  0x00004410      0x1ad ./driver_source/lpc17xx_pwm.o
 .debug_abbrev  0x000045bd      0x1f6 ./driver_source/lpc17xx_qei.o
 .debug_abbrev  0x000047b3      0x120 ./driver_source/lpc17xx_rit.o
 .debug_abbrev  0x000048d3      0x191 ./driver_source/lpc17xx_rtc.o
 .debug_abbrev  0x00004a64      0x383 ./driver_source/lpc17xx_sd.o
 .debug_abbrev  0x00004de7      0x2e7 ./driver_source/lpc17xx_spi.o
 .debug_abbrev  0x000050ce      0x2e4 ./driver_source/lpc17xx_ssp.o
 .debug_abbrev  0x000053b2      0x26e ./driver_source/lpc17xx_timer.o
 .debug_abbrev  0x00005620      0x40a ./driver_source/lpc17xx_uart.o
 .debug_abbrev  0x00005a2a      0x1e0 ./driver_source/lpc17xx_wdt.o
 .debug_abbrev  0x00005c0a      0x34d ./UsbHost/Uart/usbhost_uart.o
 .debug_abbrev  0x00005f57      0x210 ./UsbHost/MassStorage/usbhost_ms.o
 .debug_abbrev  0x00006167      0x161 ./UsbHost/Main/usbhost_main.o
 .debug_abbrev  0x000062c8      0x229 ./UsbHost/Host/usb_ms_diskio.o
 .debug_abbrev  0x000064f1      0x418 ./UsbHost/Host/usbhost_lpc17xx.o
 .debug_abbrev  0x00006909      0x2f8 ./LPCUSB/USB_CDC.o
 .debug_abbrev  0x00006c01      0x1d0 ./LPCUSB/usbcontrol.o
 .debug_abbrev  0x00006dd1      0x367 ./LPCUSB/usbhw_lpc.o
 .debug_abbrev  0x00007138       0xc5 ./LPCUSB/usbinit.o
 .debug_abbrev  0x000071fd      0x22e ./LPCUSB/usbstdreq.o
 .debug_abbrev  0x0000742b       0xd4 ./FatFs/option/cc932.o
 .debug_abbrev  0x000074ff       0x2c ./FatFs/option/syncobj.o
 .debug_abbrev  0x0000752b       0x2c ./FatFs/option/syscall.o
 .debug_abbrev  0x00007557      0x12a ./FatFs/diskio.o
 .debug_abbrev  0x00007681      0x2f1 ./FatFs/ff.o
 .debug_abbrev  0x00007972       0xe3 /home/nlv14991/workspaceLPC/STE-LPC1768-/CMSISv1p30_LPC17xx/Debug/libCMSISv1p30_LPC17xx.a(system_LPC17xx.o)
 .debug_abbrev  0x00007a55      0x1b3 /home/nlv14991/workspaceLPC/STE-LPC1768-/FreeRTOS_Library/Debug/libFreeRTOS_Library.a(queue.o)
 .debug_abbrev  0x00007c08      0x29c /home/nlv14991/workspaceLPC/STE-LPC1768-/FreeRTOS_Library/Debug/libFreeRTOS_Library.a(tasks.o)
 .debug_abbrev  0x00007ea4      0x1b4 /home/nlv14991/workspaceLPC/STE-LPC1768-/FreeRTOS_Library/Debug/libFreeRTOS_Library.a(heap_2.o)
 .debug_abbrev  0x00008058      0x128 /home/nlv14991/workspaceLPC/STE-LPC1768-/FreeRTOS_Library/Debug/libFreeRTOS_Library.a(port.o)
 .debug_abbrev  0x00008180       0xe9 /home/nlv14991/workspaceLPC/STE-LPC1768-/FreeRTOS_Library/Debug/libFreeRTOS_Library.a(list.o)

.debug_info     0x00000000    0x28594
 .debug_info    0x00000000      0x741 ./LedBlinky.o
 .debug_info    0x00000741      0x924 ./cr_startup_lpc17.o
 .debug_info    0x00001065      0x62e ./lcd_i2c.o
 .debug_info    0x00001693      0x4c3 ./main.o
 .debug_info    0x00001b56     0x1190 ./uart_fullmodem_test.o
 .debug_info    0x00002ce6      0xf3d ./webserver/emac.o
 .debug_info    0x00003c23      0x446 ./webserver/http-strings.o
 .debug_info    0x00004069      0xd74 ./webserver/httpd-cgi.o
 .debug_info    0x00004ddd      0x586 ./webserver/httpd-fs.o
 .debug_info    0x00005363      0xb5d ./webserver/httpd.o
 .debug_info    0x00005ec0      0xa44 ./webserver/psock.o
 .debug_info    0x00006904      0x17b ./webserver/timer.o
 .debug_info    0x00006a7f     0x1400 ./webserver/uIP_Task.o
 .debug_info    0x00007e7f     0x1479 ./webserver/uip.o
 .debug_info    0x000092f8      0x506 ./webserver/uip_arp.o
 .debug_info    0x000097fe     0x194a ./uip_ftp/Connections.o
 .debug_info    0x0000b148      0xb68 ./uip_ftp/FTPD.o
 .debug_info    0x0000bcb0      0x169 ./uip_ftp/FTP_Strings.o
 .debug_info    0x0000be19     0x1960 ./uip_ftp/ftp_main.o
 .debug_info    0x0000d779      0x637 ./driver_source/lpc17xx_adc.o
 .debug_info    0x0000ddb0     0x12cd ./driver_source/lpc17xx_can.o
 .debug_info    0x0000f07d      0x6d0 ./driver_source/lpc17xx_clkpwr.o
 .debug_info    0x0000f74d      0x2cd ./driver_source/lpc17xx_dac.o
 .debug_info    0x0000fa1a     0x11ab ./driver_source/lpc17xx_emac.o
 .debug_info    0x00010bc5      0xcb4 ./driver_source/lpc17xx_gpdma.o
 .debug_info    0x00011879      0xcf1 ./driver_source/lpc17xx_gpio.o
 .debug_info    0x0001256a     0x121c ./driver_source/lpc17xx_i2c.o
 .debug_info    0x00013786      0xa4d ./driver_source/lpc17xx_i2s.o
 .debug_info    0x000141d3       0xca ./driver_source/lpc17xx_libcfg_default.o
 .debug_info    0x0001429d      0x7fc ./driver_source/lpc17xx_mcpwm.o
 .debug_info    0x00014a99      0x3fb ./driver_source/lpc17xx_nvic.o
 .debug_info    0x00014e94      0x608 ./driver_source/lpc17xx_pinsel.o
 .debug_info    0x0001549c      0x83a ./driver_source/lpc17xx_pwm.o
 .debug_info    0x00015cd6      0x85b ./driver_source/lpc17xx_qei.o
 .debug_info    0x00016531      0x325 ./driver_source/lpc17xx_rit.o
 .debug_info    0x00016856      0xa4e ./driver_source/lpc17xx_rtc.o
 .debug_info    0x000172a4      0xdc2 ./driver_source/lpc17xx_sd.o
 .debug_info    0x00018066      0x968 ./driver_source/lpc17xx_spi.o
 .debug_info    0x000189ce      0xb79 ./driver_source/lpc17xx_ssp.o
 .debug_info    0x00019547      0x932 ./driver_source/lpc17xx_timer.o
 .debug_info    0x00019e79     0x1889 ./driver_source/lpc17xx_uart.o
 .debug_info    0x0001b702      0x45e ./driver_source/lpc17xx_wdt.o
 .debug_info    0x0001bb60     0x1112 ./UsbHost/Uart/usbhost_uart.o
 .debug_info    0x0001cc72      0x5ca ./UsbHost/MassStorage/usbhost_ms.o
 .debug_info    0x0001d23c      0x622 ./UsbHost/Main/usbhost_main.o
 .debug_info    0x0001d85e      0xa50 ./UsbHost/Host/usb_ms_diskio.o
 .debug_info    0x0001e2ae     0x2055 ./UsbHost/Host/usbhost_lpc17xx.o
 .debug_info    0x00020303      0xd60 ./LPCUSB/USB_CDC.o
 .debug_info    0x00021063      0x430 ./LPCUSB/usbcontrol.o
 .debug_info    0x00021493     0x14cc ./LPCUSB/usbhw_lpc.o
 .debug_info    0x0002295f      0x131 ./LPCUSB/usbinit.o
 .debug_info    0x00022a90      0x57d ./LPCUSB/usbstdreq.o
 .debug_info    0x0002300d      0x1d4 ./FatFs/option/cc932.o
 .debug_info    0x000231e1       0x62 ./FatFs/option/syncobj.o
 .debug_info    0x00023243       0x77 ./FatFs/option/syscall.o
 .debug_info    0x000232ba      0x369 ./FatFs/diskio.o
 .debug_info    0x00023623     0x2dcc ./FatFs/ff.o
 .debug_info    0x000263ef      0x356 /home/nlv14991/workspaceLPC/STE-LPC1768-/CMSISv1p30_LPC17xx/Debug/libCMSISv1p30_LPC17xx.a(system_LPC17xx.o)
 .debug_info    0x00026745      0x814 /home/nlv14991/workspaceLPC/STE-LPC1768-/FreeRTOS_Library/Debug/libFreeRTOS_Library.a(queue.o)
 .debug_info    0x00026f59      0xe69 /home/nlv14991/workspaceLPC/STE-LPC1768-/FreeRTOS_Library/Debug/libFreeRTOS_Library.a(tasks.o)
 .debug_info    0x00027dc2      0x2e7 /home/nlv14991/workspaceLPC/STE-LPC1768-/FreeRTOS_Library/Debug/libFreeRTOS_Library.a(heap_2.o)
 .debug_info    0x000280a9      0x224 /home/nlv14991/workspaceLPC/STE-LPC1768-/FreeRTOS_Library/Debug/libFreeRTOS_Library.a(port.o)
 .debug_info    0x000282cd      0x2c7 /home/nlv14991/workspaceLPC/STE-LPC1768-/FreeRTOS_Library/Debug/libFreeRTOS_Library.a(list.o)

.debug_line     0x00000000    0x1e46c
 .debug_line    0x00000000      0x3d9 ./LedBlinky.o
 .debug_line    0x000003d9      0x3eb ./cr_startup_lpc17.o
 .debug_line    0x000007c4      0x5d3 ./lcd_i2c.o
 .debug_line    0x00000d97      0x48e ./main.o
 .debug_line    0x00001225      0x6c1 ./uart_fullmodem_test.o
 .debug_line    0x000018e6      0x819 ./webserver/emac.o
 .debug_line    0x000020ff       0x3c ./webserver/http-strings.o
 .debug_line    0x0000213b      0x90b ./webserver/httpd-cgi.o
 .debug_line    0x00002a46      0x33e ./webserver/httpd-fs.o
 .debug_line    0x00002d84      0x849 ./webserver/httpd.o
 .debug_line    0x000035cd      0x8dc ./webserver/psock.o
 .debug_line    0x00003ea9      0x3fc ./webserver/timer.o
 .debug_line    0x000042a5      0xace ./webserver/uIP_Task.o
 .debug_line    0x00004d73     0x12b3 ./webserver/uip.o
 .debug_line    0x00006026      0x812 ./webserver/uip_arp.o
 .debug_line    0x00006838     0x130e ./uip_ftp/Connections.o
 .debug_line    0x00007b46      0xafd ./uip_ftp/FTPD.o
 .debug_line    0x00008643       0x39 ./uip_ftp/FTP_Strings.o
 .debug_line    0x0000867c      0xc41 ./uip_ftp/ftp_main.o
 .debug_line    0x000092bd      0x508 ./driver_source/lpc17xx_adc.o
 .debug_line    0x000097c5     0x1346 ./driver_source/lpc17xx_can.o
 .debug_line    0x0000ab0b      0x422 ./driver_source/lpc17xx_clkpwr.o
 .debug_line    0x0000af2d      0x3d6 ./driver_source/lpc17xx_dac.o
 .debug_line    0x0000b303      0x8fb ./driver_source/lpc17xx_emac.o
 .debug_line    0x0000bbfe      0x4a4 ./driver_source/lpc17xx_gpdma.o
 .debug_line    0x0000c0a2      0x4e0 ./driver_source/lpc17xx_gpio.o
 .debug_line    0x0000c582      0x9ed ./driver_source/lpc17xx_i2c.o
 .debug_line    0x0000cf6f      0x74f ./driver_source/lpc17xx_i2s.o
 .debug_line    0x0000d6be      0x2be ./driver_source/lpc17xx_libcfg_default.o
 .debug_line    0x0000d97c      0x5e8 ./driver_source/lpc17xx_mcpwm.o
 .debug_line    0x0000df64      0x386 ./driver_source/lpc17xx_nvic.o
 .debug_line    0x0000e2ea      0x3d4 ./driver_source/lpc17xx_pinsel.o
 .debug_line    0x0000e6be      0x65d ./driver_source/lpc17xx_pwm.o
 .debug_line    0x0000ed1b      0x65f ./driver_source/lpc17xx_qei.o
 .debug_line    0x0000f37a      0x447 ./driver_source/lpc17xx_rit.o
 .debug_line    0x0000f7c1      0x72c ./driver_source/lpc17xx_rtc.o
 .debug_line    0x0000feed      0x7ef ./driver_source/lpc17xx_sd.o
 .debug_line    0x000106dc      0x678 ./driver_source/lpc17xx_spi.o
 .debug_line    0x00010d54      0xa28 ./driver_source/lpc17xx_ssp.o
 .debug_line    0x0001177c      0x653 ./driver_source/lpc17xx_timer.o
 .debug_line    0x00011dcf     0x11e7 ./driver_source/lpc17xx_uart.o
 .debug_line    0x00012fb6      0x4c2 ./driver_source/lpc17xx_wdt.o
 .debug_line    0x00013478      0xb60 ./UsbHost/Uart/usbhost_uart.o
 .debug_line    0x00013fd8      0xa77 ./UsbHost/MassStorage/usbhost_ms.o
 .debug_line    0x00014a4f      0x936 ./UsbHost/Main/usbhost_main.o
 .debug_line    0x00015385      0x9b4 ./UsbHost/Host/usb_ms_diskio.o
 .debug_line    0x00015d39      0xe9c ./UsbHost/Host/usbhost_lpc17xx.o
 .debug_line    0x00016bd5      0x99c ./LPCUSB/USB_CDC.o
 .debug_line    0x00017571      0x77f ./LPCUSB/usbcontrol.o
 .debug_line    0x00017cf0      0xa97 ./LPCUSB/usbhw_lpc.o
 .debug_line    0x00018787      0x6fd ./LPCUSB/usbinit.o
 .debug_line    0x00018e84      0x82a ./LPCUSB/usbstdreq.o
 .debug_line    0x000196ae       0xcf ./FatFs/option/cc932.o
 .debug_line    0x0001977d       0x6e ./FatFs/option/syncobj.o
 .debug_line    0x000197eb      0x5d2 ./FatFs/option/syscall.o
 .debug_line    0x00019dbd      0x91f ./FatFs/diskio.o
 .debug_line    0x0001a6dc     0x1c65 ./FatFs/ff.o
 .debug_line    0x0001c341      0x3f5 /home/nlv14991/workspaceLPC/STE-LPC1768-/CMSISv1p30_LPC17xx/Debug/libCMSISv1p30_LPC17xx.a(system_LPC17xx.o)
 .debug_line    0x0001c736      0x64d /home/nlv14991/workspaceLPC/STE-LPC1768-/FreeRTOS_Library/Debug/libFreeRTOS_Library.a(queue.o)
 .debug_line    0x0001cd83      0x808 /home/nlv14991/workspaceLPC/STE-LPC1768-/FreeRTOS_Library/Debug/libFreeRTOS_Library.a(tasks.o)
 .debug_line    0x0001d58b      0x513 /home/nlv14991/workspaceLPC/STE-LPC1768-/FreeRTOS_Library/Debug/libFreeRTOS_Library.a(heap_2.o)
 .debug_line    0x0001da9e      0x4e4 /home/nlv14991/workspaceLPC/STE-LPC1768-/FreeRTOS_Library/Debug/libFreeRTOS_Library.a(port.o)
 .debug_line    0x0001df82      0x4ea /home/nlv14991/workspaceLPC/STE-LPC1768-/FreeRTOS_Library/Debug/libFreeRTOS_Library.a(list.o)

.debug_macinfo  0x00000000   0x225d2b
 .debug_macinfo
                0x00000000     0x6925 ./LedBlinky.o
 .debug_macinfo
                0x00006925     0x7f9c ./cr_startup_lpc17.o
 .debug_macinfo
                0x0000e8c1     0x8fa4 ./lcd_i2c.o
 .debug_macinfo
                0x00017865     0x9cf4 ./main.o
 .debug_macinfo
                0x00021559     0x85f0 ./uart_fullmodem_test.o
 .debug_macinfo
                0x00029b49     0xb422 ./webserver/emac.o
 .debug_macinfo
                0x00034f6b     0x1704 ./webserver/http-strings.o
 .debug_macinfo
                0x0003666f     0xcc10 ./webserver/httpd-cgi.o
 .debug_macinfo
                0x0004327f     0x3e03 ./webserver/httpd-fs.o
 .debug_macinfo
                0x00047082     0x5ea7 ./webserver/httpd.o
 .debug_macinfo
                0x0004cf29     0x6d16 ./webserver/psock.o
 .debug_macinfo
                0x00053c3f     0x88bc ./webserver/timer.o
 .debug_macinfo
                0x0005c4fb    0x1125c ./webserver/uIP_Task.o
 .debug_macinfo
                0x0006d757     0xc062 ./webserver/uip.o
 .debug_macinfo
                0x000797b9     0x5f3e ./webserver/uip_arp.o
 .debug_macinfo
                0x0007f6f7     0xce52 ./uip_ftp/Connections.o
 .debug_macinfo
                0x0008c549     0xcd74 ./uip_ftp/FTPD.o
 .debug_macinfo
                0x000992bd     0x1704 ./uip_ftp/FTP_Strings.o
 .debug_macinfo
                0x0009a9c1    0x1116a ./uip_ftp/ftp_main.o
 .debug_macinfo
                0x000abb2b     0x8423 ./driver_source/lpc17xx_adc.o
 .debug_macinfo
                0x000b3f4e     0x9842 ./driver_source/lpc17xx_can.o
 .debug_macinfo
                0x000bd790     0x79ee ./driver_source/lpc17xx_clkpwr.o
 .debug_macinfo
                0x000c517e     0x7d50 ./driver_source/lpc17xx_dac.o
 .debug_macinfo
                0x000ccece     0x999f ./driver_source/lpc17xx_emac.o
 .debug_macinfo
                0x000d686d     0x9057 ./driver_source/lpc17xx_gpdma.o
 .debug_macinfo
                0x000df8c4     0x6aad ./driver_source/lpc17xx_gpio.o
 .debug_macinfo
                0x000e6371     0x89cd ./driver_source/lpc17xx_i2c.o
 .debug_macinfo
                0x000eed3e     0x8e71 ./driver_source/lpc17xx_i2s.o
 .debug_macinfo
                0x000f7baf     0x238d ./driver_source/lpc17xx_libcfg_default.o
 .debug_macinfo
                0x000f9f3c     0x85d7 ./driver_source/lpc17xx_mcpwm.o
 .debug_macinfo
                0x00102513     0x66e4 ./driver_source/lpc17xx_nvic.o
 .debug_macinfo
                0x00108bf7     0x6bc8 ./driver_source/lpc17xx_pinsel.o
 .debug_macinfo
                0x0010f7bf     0x847c ./driver_source/lpc17xx_pwm.o
 .debug_macinfo
                0x00117c3b     0x9415 ./driver_source/lpc17xx_qei.o
 .debug_macinfo
                0x00121050     0x7c79 ./driver_source/lpc17xx_rit.o
 .debug_macinfo
                0x00128cc9     0x846d ./driver_source/lpc17xx_rtc.o
 .debug_macinfo
                0x00131136     0x7593 ./driver_source/lpc17xx_sd.o
 .debug_macinfo
                0x001386c9     0x8603 ./driver_source/lpc17xx_spi.o
 .debug_macinfo
                0x00140ccc     0x8cc5 ./driver_source/lpc17xx_ssp.o
 .debug_macinfo
                0x00149991     0x88c2 ./driver_source/lpc17xx_timer.o
 .debug_macinfo
                0x00152253     0xb772 ./driver_source/lpc17xx_uart.o
 .debug_macinfo
                0x0015d9c5     0x83b3 ./driver_source/lpc17xx_wdt.o
 .debug_macinfo
                0x00165d78     0xbf95 ./UsbHost/Uart/usbhost_uart.o
 .debug_macinfo
                0x00171d0d     0x9eb0 ./UsbHost/MassStorage/usbhost_ms.o
 .debug_macinfo
                0x0017bbbd     0xb12d ./UsbHost/Main/usbhost_main.o
 .debug_macinfo
                0x00186cea     0xb135 ./UsbHost/Host/usb_ms_diskio.o
 .debug_macinfo
                0x00191e1f     0x9eb0 ./UsbHost/Host/usbhost_lpc17xx.o
 .debug_macinfo
                0x0019bccf     0xdc97 ./LPCUSB/USB_CDC.o
 .debug_macinfo
                0x001a9966     0xb2c0 ./LPCUSB/usbcontrol.o
 .debug_macinfo
                0x001b4c26     0xb88c ./LPCUSB/usbhw_lpc.o
 .debug_macinfo
                0x001c04b2     0xb294 ./LPCUSB/usbinit.o
 .debug_macinfo
                0x001cb746     0xb388 ./LPCUSB/usbstdreq.o
 .debug_macinfo
                0x001d6ace     0x1d31 ./FatFs/option/cc932.o
 .debug_macinfo
                0x001d87ff     0x1d21 ./FatFs/option/syncobj.o
 .debug_macinfo
                0x001da520     0x3fd6 ./FatFs/option/syscall.o
 .debug_macinfo
                0x001de4f6     0xa47e ./FatFs/diskio.o
 .debug_macinfo
                0x001e8974     0x3088 ./FatFs/ff.o
 .debug_macinfo
                0x001eb9fc     0x7879 /home/nlv14991/workspaceLPC/STE-LPC1768-/CMSISv1p30_LPC17xx/Debug/libCMSISv1p30_LPC17xx.a(system_LPC17xx.o)
 .debug_macinfo
                0x001f3275     0xa66a /home/nlv14991/workspaceLPC/STE-LPC1768-/FreeRTOS_Library/Debug/libFreeRTOS_Library.a(queue.o)
 .debug_macinfo
                0x001fd8df     0xa908 /home/nlv14991/workspaceLPC/STE-LPC1768-/FreeRTOS_Library/Debug/libFreeRTOS_Library.a(tasks.o)
 .debug_macinfo
                0x002081e7     0xa14b /home/nlv14991/workspaceLPC/STE-LPC1768-/FreeRTOS_Library/Debug/libFreeRTOS_Library.a(heap_2.o)
 .debug_macinfo
                0x00212332     0x9f88 /home/nlv14991/workspaceLPC/STE-LPC1768-/FreeRTOS_Library/Debug/libFreeRTOS_Library.a(port.o)
 .debug_macinfo
                0x0021c2ba     0x9a71 /home/nlv14991/workspaceLPC/STE-LPC1768-/FreeRTOS_Library/Debug/libFreeRTOS_Library.a(list.o)

.debug_loc      0x00000000    0x2022c
 .debug_loc     0x00000000      0x1e3 ./LedBlinky.o
 .debug_loc     0x000001e3      0x194 ./cr_startup_lpc17.o
 .debug_loc     0x00000377      0x204 ./lcd_i2c.o
 .debug_loc     0x0000057b       0x9f ./main.o
 .debug_loc     0x0000061a      0x8e2 ./uart_fullmodem_test.o
 .debug_loc     0x00000efc      0xe79 ./webserver/emac.o
 .debug_loc     0x00001d75      0x60f ./webserver/httpd-cgi.o
 .debug_loc     0x00002384      0x232 ./webserver/httpd-fs.o
 .debug_loc     0x000025b6      0x46f ./webserver/httpd.o
 .debug_loc     0x00002a25      0x604 ./webserver/psock.o
 .debug_loc     0x00003029       0xcd ./webserver/timer.o
 .debug_loc     0x000030f6      0x207 ./webserver/uIP_Task.o
 .debug_loc     0x000032fd     0x1494 ./webserver/uip.o
 .debug_loc     0x00004791      0x4ca ./webserver/uip_arp.o
 .debug_loc     0x00004c5b     0x13c5 ./uip_ftp/Connections.o
 .debug_loc     0x00006020      0x149 ./uip_ftp/FTPD.o
 .debug_loc     0x00006169      0x258 ./uip_ftp/ftp_main.o
 .debug_loc     0x000063c1      0x530 ./driver_source/lpc17xx_adc.o
 .debug_loc     0x000068f1     0x24d4 ./driver_source/lpc17xx_can.o
 .debug_loc     0x00008dc5      0x188 ./driver_source/lpc17xx_clkpwr.o
 .debug_loc     0x00008f4d      0x1c1 ./driver_source/lpc17xx_dac.o
 .debug_loc     0x0000910e      0xae9 ./driver_source/lpc17xx_emac.o
 .debug_loc     0x00009bf7      0x279 ./driver_source/lpc17xx_gpdma.o
 .debug_loc     0x00009e70      0x579 ./driver_source/lpc17xx_gpio.o
 .debug_loc     0x0000a3e9     0x117c ./driver_source/lpc17xx_i2c.o
 .debug_loc     0x0000b565      0x974 ./driver_source/lpc17xx_i2s.o
 .debug_loc     0x0000bed9      0x33d ./driver_source/lpc17xx_mcpwm.o
 .debug_loc     0x0000c216       0x63 ./driver_source/lpc17xx_nvic.o
 .debug_loc     0x0000c279      0x350 ./driver_source/lpc17xx_pinsel.o
 .debug_loc     0x0000c5c9      0x4ea ./driver_source/lpc17xx_pwm.o
 .debug_loc     0x0000cab3      0x6e3 ./driver_source/lpc17xx_qei.o
 .debug_loc     0x0000d196      0x21d ./driver_source/lpc17xx_rit.o
 .debug_loc     0x0000d3b3      0x859 ./driver_source/lpc17xx_rtc.o
 .debug_loc     0x0000dc0c     0x112b ./driver_source/lpc17xx_sd.o
 .debug_loc     0x0000ed37      0x952 ./driver_source/lpc17xx_spi.o
 .debug_loc     0x0000f689      0xd53 ./driver_source/lpc17xx_ssp.o
 .debug_loc     0x000103dc      0x6fa ./driver_source/lpc17xx_timer.o
 .debug_loc     0x00010ad6     0x2b2e ./driver_source/lpc17xx_uart.o
 .debug_loc     0x00013604      0x441 ./driver_source/lpc17xx_wdt.o
 .debug_loc     0x00013a45      0x4f9 ./UsbHost/Uart/usbhost_uart.o
 .debug_loc     0x00013f3e      0x63e ./UsbHost/MassStorage/usbhost_ms.o
 .debug_loc     0x0001457c       0x95 ./UsbHost/Main/usbhost_main.o
 .debug_loc     0x00014611      0x2ce ./UsbHost/Host/usb_ms_diskio.o
 .debug_loc     0x000148df      0xd3d ./UsbHost/Host/usbhost_lpc17xx.o
 .debug_loc     0x0001561c      0x317 ./LPCUSB/USB_CDC.o
 .debug_loc     0x00015933      0x1b5 ./LPCUSB/usbcontrol.o
 .debug_loc     0x00015ae8      0x5f4 ./LPCUSB/usbhw_lpc.o
 .debug_loc     0x000160dc       0x20 ./LPCUSB/usbinit.o
 .debug_loc     0x000160fc      0x5f1 ./LPCUSB/usbstdreq.o
 .debug_loc     0x000166ed      0x2c5 ./FatFs/option/cc932.o
 .debug_loc     0x000169b2      0x28a ./FatFs/diskio.o
 .debug_loc     0x00016c3c     0x820a ./FatFs/ff.o
 .debug_loc     0x0001ee46       0x20 /home/nlv14991/workspaceLPC/STE-LPC1768-/CMSISv1p30_LPC17xx/Debug/libCMSISv1p30_LPC17xx.a(system_LPC17xx.o)
 .debug_loc     0x0001ee66      0x6c5 /home/nlv14991/workspaceLPC/STE-LPC1768-/FreeRTOS_Library/Debug/libFreeRTOS_Library.a(queue.o)
 .debug_loc     0x0001f52b      0x9d2 /home/nlv14991/workspaceLPC/STE-LPC1768-/FreeRTOS_Library/Debug/libFreeRTOS_Library.a(tasks.o)
 .debug_loc     0x0001fefd      0x21f /home/nlv14991/workspaceLPC/STE-LPC1768-/FreeRTOS_Library/Debug/libFreeRTOS_Library.a(heap_2.o)
 .debug_loc     0x0002011c       0x9d /home/nlv14991/workspaceLPC/STE-LPC1768-/FreeRTOS_Library/Debug/libFreeRTOS_Library.a(port.o)
 .debug_loc     0x000201b9       0x73 /home/nlv14991/workspaceLPC/STE-LPC1768-/FreeRTOS_Library/Debug/libFreeRTOS_Library.a(list.o)

.debug_pubnames
                0x00000000     0x39fe
 .debug_pubnames
                0x00000000       0x67 ./LedBlinky.o
 .debug_pubnames
                0x00000067      0x105 ./cr_startup_lpc17.o
 .debug_pubnames
                0x0000016c       0xb1 ./lcd_i2c.o
 .debug_pubnames
                0x0000021d       0xc5 ./main.o
 .debug_pubnames
                0x000002e2       0xeb ./uart_fullmodem_test.o
 .debug_pubnames
                0x000003cd       0x62 ./webserver/emac.o
 .debug_pubnames
                0x0000042f      0x271 ./webserver/http-strings.o
 .debug_pubnames
                0x000006a0       0x4c ./webserver/httpd-cgi.o
 .debug_pubnames
                0x000006ec       0xd5 ./webserver/httpd-fs.o
 .debug_pubnames
                0x000007c1       0x48 ./webserver/httpd.o
 .debug_pubnames
                0x00000809       0xa7 ./webserver/psock.o
 .debug_pubnames
                0x000008b0       0x54 ./webserver/timer.o
 .debug_pubnames
                0x00000904       0x72 ./webserver/uIP_Task.o
 .debug_pubnames
                0x00000976      0x1aa ./webserver/uip.o
 .debug_pubnames
                0x00000b20       0x68 ./webserver/uip_arp.o
 .debug_pubnames
                0x00000b88      0x1c8 ./uip_ftp/Connections.o
 .debug_pubnames
                0x00000d50       0x52 ./uip_ftp/FTPD.o
 .debug_pubnames
                0x00000da2       0xde ./uip_ftp/FTP_Strings.o
 .debug_pubnames
                0x00000e80       0x54 ./uip_ftp/ftp_main.o
 .debug_pubnames
                0x00000ed4      0x110 ./driver_source/lpc17xx_adc.o
 .debug_pubnames
                0x00000fe4      0x21a ./driver_source/lpc17xx_can.o
 .debug_pubnames
                0x000011fe       0xbb ./driver_source/lpc17xx_clkpwr.o
 .debug_pubnames
                0x000012b9       0x7a ./driver_source/lpc17xx_dac.o
 .debug_pubnames
                0x00001333      0x225 ./driver_source/lpc17xx_emac.o
 .debug_pubnames
                0x00001558       0xa7 ./driver_source/lpc17xx_gpdma.o
 .debug_pubnames
                0x000015ff      0x196 ./driver_source/lpc17xx_gpio.o
 .debug_pubnames
                0x00001795      0x165 ./driver_source/lpc17xx_i2c.o
 .debug_pubnames
                0x000018fa      0x157 ./driver_source/lpc17xx_i2s.o
 .debug_pubnames
                0x00001a51       0x23 ./driver_source/lpc17xx_libcfg_default.o
 .debug_pubnames
                0x00001a74      0x13b ./driver_source/lpc17xx_mcpwm.o
 .debug_pubnames
                0x00001baf       0x46 ./driver_source/lpc17xx_nvic.o
 .debug_pubnames
                0x00001bf5       0xa6 ./driver_source/lpc17xx_pinsel.o
 .debug_pubnames
                0x00001c9b      0x127 ./driver_source/lpc17xx_pwm.o
 .debug_pubnames
                0x00001dc2      0x1aa ./driver_source/lpc17xx_qei.o
 .debug_pubnames
                0x00001f6c       0x97 ./driver_source/lpc17xx_rit.o
 .debug_pubnames
                0x00002003      0x1ab ./driver_source/lpc17xx_rtc.o
 .debug_pubnames
                0x000021ae       0xe3 ./driver_source/lpc17xx_sd.o
 .debug_pubnames
                0x00002291      0x11a ./driver_source/lpc17xx_spi.o
 .debug_pubnames
                0x000023ab      0x17f ./driver_source/lpc17xx_ssp.o
 .debug_pubnames
                0x0000252a      0x157 ./driver_source/lpc17xx_timer.o
 .debug_pubnames
                0x00002681      0x311 ./driver_source/lpc17xx_uart.o
 .debug_pubnames
                0x00002992       0xaa ./driver_source/lpc17xx_wdt.o
 .debug_pubnames
                0x00002a3c      0x111 ./UsbHost/Uart/usbhost_uart.o
 .debug_pubnames
                0x00002b4d       0xd7 ./UsbHost/MassStorage/usbhost_ms.o
 .debug_pubnames
                0x00002c24       0x54 ./UsbHost/Main/usbhost_main.o
 .debug_pubnames
                0x00002c78       0xc6 ./UsbHost/Host/usb_ms_diskio.o
 .debug_pubnames
                0x00002d3e      0x239 ./UsbHost/Host/usbhost_lpc17xx.o
 .debug_pubnames
                0x00002f77       0x61 ./LPCUSB/USB_CDC.o
 .debug_pubnames
                0x00002fd8       0x4d ./LPCUSB/usbcontrol.o
 .debug_pubnames
                0x00003025      0x132 ./LPCUSB/usbhw_lpc.o
 .debug_pubnames
                0x00003157       0x1e ./LPCUSB/usbinit.o
 .debug_pubnames
                0x00003175       0x7f ./LPCUSB/usbstdreq.o
 .debug_pubnames
                0x000031f4       0x31 ./FatFs/option/cc932.o
 .debug_pubnames
                0x00003225       0x74 ./FatFs/diskio.o
 .debug_pubnames
                0x00003299      0x160 ./FatFs/ff.o
 .debug_pubnames
                0x000033f9       0x4f /home/nlv14991/workspaceLPC/STE-LPC1768-/CMSISv1p30_LPC17xx/Debug/libCMSISv1p30_LPC17xx.a(system_LPC17xx.o)
 .debug_pubnames
                0x00003448      0x149 /home/nlv14991/workspaceLPC/STE-LPC1768-/FreeRTOS_Library/Debug/libFreeRTOS_Library.a(queue.o)
 .debug_pubnames
                0x00003591      0x28b /home/nlv14991/workspaceLPC/STE-LPC1768-/FreeRTOS_Library/Debug/libFreeRTOS_Library.a(tasks.o)
 .debug_pubnames
                0x0000381c       0x64 /home/nlv14991/workspaceLPC/STE-LPC1768-/FreeRTOS_Library/Debug/libFreeRTOS_Library.a(heap_2.o)
 .debug_pubnames
                0x00003880      0x10d /home/nlv14991/workspaceLPC/STE-LPC1768-/FreeRTOS_Library/Debug/libFreeRTOS_Library.a(port.o)
 .debug_pubnames
                0x0000398d       0x71 /home/nlv14991/workspaceLPC/STE-LPC1768-/FreeRTOS_Library/Debug/libFreeRTOS_Library.a(list.o)

.debug_pubtypes
                0x00000000     0x2dd0
 .debug_pubtypes
                0x00000000       0x6e ./LedBlinky.o
 .debug_pubtypes
                0x0000006e       0x63 ./cr_startup_lpc17.o
 .debug_pubtypes
                0x000000d1       0x68 ./lcd_i2c.o
 .debug_pubtypes
                0x00000139       0x86 ./main.o
 .debug_pubtypes
                0x000001bf      0x165 ./uart_fullmodem_test.o
 .debug_pubtypes
                0x00000324       0x95 ./webserver/emac.o
 .debug_pubtypes
                0x000003b9      0x123 ./webserver/httpd-cgi.o
 .debug_pubtypes
                0x000004dc       0x84 ./webserver/httpd-fs.o
 .debug_pubtypes
                0x00000560       0xcf ./webserver/httpd.o
 .debug_pubtypes
                0x0000062f       0xcf ./webserver/psock.o
 .debug_pubtypes
                0x000006fe       0x2d ./webserver/timer.o
 .debug_pubtypes
                0x0000072b      0x1c1 ./webserver/uIP_Task.o
 .debug_pubtypes
                0x000008ec      0x123 ./webserver/uip.o
 .debug_pubtypes
                0x00000a0f       0xaa ./webserver/uip_arp.o
 .debug_pubtypes
                0x00000ab9      0x1a6 ./uip_ftp/Connections.o
 .debug_pubtypes
                0x00000c5f      0x161 ./uip_ftp/FTPD.o
 .debug_pubtypes
                0x00000dc0      0x265 ./uip_ftp/ftp_main.o
 .debug_pubtypes
                0x00001025       0x84 ./driver_source/lpc17xx_adc.o
 .debug_pubtypes
                0x000010a9      0x1e2 ./driver_source/lpc17xx_can.o
 .debug_pubtypes
                0x0000128b       0x5f ./driver_source/lpc17xx_clkpwr.o
 .debug_pubtypes
                0x000012ea       0x67 ./driver_source/lpc17xx_dac.o
 .debug_pubtypes
                0x00001351      0x10c ./driver_source/lpc17xx_emac.o
 .debug_pubtypes
                0x0000145d      0x143 ./driver_source/lpc17xx_gpdma.o
 .debug_pubtypes
                0x000015a0       0x7d ./driver_source/lpc17xx_gpio.o
 .debug_pubtypes
                0x0000161d      0x108 ./driver_source/lpc17xx_i2c.o
 .debug_pubtypes
                0x00001725       0xc6 ./driver_source/lpc17xx_i2s.o
 .debug_pubtypes
                0x000017eb       0x2b ./driver_source/lpc17xx_libcfg_default.o
 .debug_pubtypes
                0x00001816       0xa7 ./driver_source/lpc17xx_mcpwm.o
 .debug_pubtypes
                0x000018bd       0x46 ./driver_source/lpc17xx_nvic.o
 .debug_pubtypes
                0x00001903       0x6a ./driver_source/lpc17xx_pinsel.o
 .debug_pubtypes
                0x0000196d       0xca ./driver_source/lpc17xx_pwm.o
 .debug_pubtypes
                0x00001a37       0xab ./driver_source/lpc17xx_qei.o
 .debug_pubtypes
                0x00001ae2       0x71 ./driver_source/lpc17xx_rit.o
 .debug_pubtypes
                0x00001b53       0x80 ./driver_source/lpc17xx_rtc.o
 .debug_pubtypes
                0x00001bd3       0xdb ./driver_source/lpc17xx_sd.o
 .debug_pubtypes
                0x00001cae       0xd6 ./driver_source/lpc17xx_spi.o
 .debug_pubtypes
                0x00001d84       0xd6 ./driver_source/lpc17xx_ssp.o
 .debug_pubtypes
                0x00001e5a       0xcb ./driver_source/lpc17xx_timer.o
 .debug_pubtypes
                0x00001f25      0x296 ./driver_source/lpc17xx_uart.o
 .debug_pubtypes
                0x000021bb       0x5e ./driver_source/lpc17xx_wdt.o
 .debug_pubtypes
                0x00002219      0x1b0 ./UsbHost/Uart/usbhost_uart.o
 .debug_pubtypes
                0x000023c9       0x80 ./UsbHost/MassStorage/usbhost_ms.o
 .debug_pubtypes
                0x00002449       0xcc ./UsbHost/Main/usbhost_main.o
 .debug_pubtypes
                0x00002515       0xff ./UsbHost/Host/usb_ms_diskio.o
 .debug_pubtypes
                0x00002614      0x10d ./UsbHost/Host/usbhost_lpc17xx.o
 .debug_pubtypes
                0x00002721       0xd4 ./LPCUSB/USB_CDC.o
 .debug_pubtypes
                0x000027f5       0x5a ./LPCUSB/usbcontrol.o
 .debug_pubtypes
                0x0000284f       0xaf ./LPCUSB/usbhw_lpc.o
 .debug_pubtypes
                0x000028fe       0x34 ./LPCUSB/usbinit.o
 .debug_pubtypes
                0x00002932       0x5a ./LPCUSB/usbstdreq.o
 .debug_pubtypes
                0x0000298c       0x25 ./FatFs/option/cc932.o
 .debug_pubtypes
                0x000029b1       0x12 ./FatFs/option/syncobj.o
 .debug_pubtypes
                0x000029c3       0x12 ./FatFs/option/syscall.o
 .debug_pubtypes
                0x000029d5       0x52 ./FatFs/diskio.o
 .debug_pubtypes
                0x00002a27       0x9e ./FatFs/ff.o
 .debug_pubtypes
                0x00002ac5       0x32 /home/nlv14991/workspaceLPC/STE-LPC1768-/CMSISv1p30_LPC17xx/Debug/libCMSISv1p30_LPC17xx.a(system_LPC17xx.o)
 .debug_pubtypes
                0x00002af7       0xd4 /home/nlv14991/workspaceLPC/STE-LPC1768-/FreeRTOS_Library/Debug/libFreeRTOS_Library.a(queue.o)
 .debug_pubtypes
                0x00002bcb      0x10c /home/nlv14991/workspaceLPC/STE-LPC1768-/FreeRTOS_Library/Debug/libFreeRTOS_Library.a(tasks.o)
 .debug_pubtypes
                0x00002cd7       0x4c /home/nlv14991/workspaceLPC/STE-LPC1768-/FreeRTOS_Library/Debug/libFreeRTOS_Library.a(heap_2.o)
 .debug_pubtypes
                0x00002d23       0x33 /home/nlv14991/workspaceLPC/STE-LPC1768-/FreeRTOS_Library/Debug/libFreeRTOS_Library.a(port.o)
 .debug_pubtypes
                0x00002d56       0x7a /home/nlv14991/workspaceLPC/STE-LPC1768-/FreeRTOS_Library/Debug/libFreeRTOS_Library.a(list.o)

.debug_aranges  0x00000000     0x17e8
 .debug_aranges
                0x00000000       0x38 ./LedBlinky.o
 .debug_aranges
                0x00000038       0x78 ./cr_startup_lpc17.o
 .debug_aranges
                0x000000b0       0x50 ./lcd_i2c.o
 .debug_aranges
                0x00000100       0x48 ./main.o
 .debug_aranges
                0x00000148       0x60 ./uart_fullmodem_test.o
 .debug_aranges
                0x000001a8       0x38 ./webserver/emac.o
 .debug_aranges
                0x000001e0       0x98 ./webserver/httpd-cgi.o
 .debug_aranges
                0x00000278       0x30 ./webserver/httpd-fs.o
 .debug_aranges
                0x000002a8       0x50 ./webserver/httpd.o
 .debug_aranges
                0x000002f8       0x58 ./webserver/psock.o
 .debug_aranges
                0x00000350       0x38 ./webserver/timer.o
 .debug_aranges
                0x00000388       0x38 ./webserver/uIP_Task.o
 .debug_aranges
                0x000003c0       0x88 ./webserver/uip.o
 .debug_aranges
                0x00000448       0x48 ./webserver/uip_arp.o
 .debug_aranges
                0x00000490      0x128 ./uip_ftp/Connections.o
 .debug_aranges
                0x000005b8       0x28 ./uip_ftp/FTPD.o
 .debug_aranges
                0x000005e0       0x30 ./uip_ftp/ftp_main.o
 .debug_aranges
                0x00000610       0x80 ./driver_source/lpc17xx_adc.o
 .debug_aranges
                0x00000690       0xa8 ./driver_source/lpc17xx_can.o
 .debug_aranges
                0x00000738       0x58 ./driver_source/lpc17xx_clkpwr.o
 .debug_aranges
                0x00000790       0x40 ./driver_source/lpc17xx_dac.o
 .debug_aranges
                0x000007d0       0xc8 ./driver_source/lpc17xx_emac.o
 .debug_aranges
                0x00000898       0x38 ./driver_source/lpc17xx_gpdma.o
 .debug_aranges
                0x000008d0       0xb0 ./driver_source/lpc17xx_gpio.o
 .debug_aranges
                0x00000980       0x98 ./driver_source/lpc17xx_i2c.o
 .debug_aranges
                0x00000a18       0xb8 ./driver_source/lpc17xx_i2s.o
 .debug_aranges
                0x00000ad0       0x20 ./driver_source/lpc17xx_libcfg_default.o
 .debug_aranges
                0x00000af0       0x90 ./driver_source/lpc17xx_mcpwm.o
 .debug_aranges
                0x00000b80       0x30 ./driver_source/lpc17xx_nvic.o
 .debug_aranges
                0x00000bb0       0x48 ./driver_source/lpc17xx_pinsel.o
 .debug_aranges
                0x00000bf8       0x88 ./driver_source/lpc17xx_pwm.o
 .debug_aranges
                0x00000c80       0xc0 ./driver_source/lpc17xx_qei.o
 .debug_aranges
                0x00000d40       0x50 ./driver_source/lpc17xx_rit.o
 .debug_aranges
                0x00000d90       0xb8 ./driver_source/lpc17xx_rtc.o
 .debug_aranges
                0x00000e48       0x70 ./driver_source/lpc17xx_sd.o
 .debug_aranges
                0x00000eb8       0x88 ./driver_source/lpc17xx_spi.o
 .debug_aranges
                0x00000f40       0xb0 ./driver_source/lpc17xx_ssp.o
 .debug_aranges
                0x00000ff0       0x90 ./driver_source/lpc17xx_timer.o
 .debug_aranges
                0x00001080      0x130 ./driver_source/lpc17xx_uart.o
 .debug_aranges
                0x000011b0       0x58 ./driver_source/lpc17xx_wdt.o
 .debug_aranges
                0x00001208       0x68 ./UsbHost/Uart/usbhost_uart.o
 .debug_aranges
                0x00001270       0x68 ./UsbHost/MassStorage/usbhost_ms.o
 .debug_aranges
                0x000012d8       0x20 ./UsbHost/Main/usbhost_main.o
 .debug_aranges
                0x000012f8       0x58 ./UsbHost/Host/usb_ms_diskio.o
 .debug_aranges
                0x00001350       0xc0 ./UsbHost/Host/usbhost_lpc17xx.o
 .debug_aranges
                0x00001410       0x60 ./LPCUSB/USB_CDC.o
 .debug_aranges
                0x00001470       0x28 ./LPCUSB/usbcontrol.o
 .debug_aranges
                0x00001498       0x88 ./LPCUSB/usbhw_lpc.o
 .debug_aranges
                0x00001520       0x28 ./LPCUSB/usbinit.o
 .debug_aranges
                0x00001548       0x38 ./LPCUSB/usbstdreq.o
 .debug_aranges
                0x00001580       0x28 ./FatFs/option/cc932.o
 .debug_aranges
                0x000015a8       0x40 ./FatFs/diskio.o
 .debug_aranges
                0x000015e8      0x138 ./FatFs/ff.o
 .debug_aranges
                0x00001720       0x28 /home/nlv14991/workspaceLPC/STE-LPC1768-/CMSISv1p30_LPC17xx/Debug/libCMSISv1p30_LPC17xx.a(system_LPC17xx.o)
 .debug_aranges
                0x00001748       0x20 /home/nlv14991/workspaceLPC/STE-LPC1768-/FreeRTOS_Library/Debug/libFreeRTOS_Library.a(queue.o)
 .debug_aranges
                0x00001768       0x20 /home/nlv14991/workspaceLPC/STE-LPC1768-/FreeRTOS_Library/Debug/libFreeRTOS_Library.a(tasks.o)
 .debug_aranges
                0x00001788       0x20 /home/nlv14991/workspaceLPC/STE-LPC1768-/FreeRTOS_Library/Debug/libFreeRTOS_Library.a(heap_2.o)
 .debug_aranges
                0x000017a8       0x20 /home/nlv14991/workspaceLPC/STE-LPC1768-/FreeRTOS_Library/Debug/libFreeRTOS_Library.a(port.o)
 .debug_aranges
                0x000017c8       0x20 /home/nlv14991/workspaceLPC/STE-LPC1768-/FreeRTOS_Library/Debug/libFreeRTOS_Library.a(list.o)

.debug_ranges   0x00000000     0x6090
 .debug_ranges  0x00000000       0x98 ./LedBlinky.o
 .debug_ranges  0x00000098       0x68 ./cr_startup_lpc17.o
 .debug_ranges  0x00000100       0x80 ./lcd_i2c.o
 .debug_ranges  0x00000180       0x38 ./main.o
 .debug_ranges  0x000001b8      0x108 ./uart_fullmodem_test.o
 .debug_ranges  0x000002c0      0x438 ./webserver/emac.o
 .debug_ranges  0x000006f8      0x168 ./webserver/httpd-cgi.o
 .debug_ranges  0x00000860       0x20 ./webserver/httpd-fs.o
 .debug_ranges  0x00000880      0x210 ./webserver/httpd.o
 .debug_ranges  0x00000a90      0x248 ./webserver/psock.o
 .debug_ranges  0x00000cd8       0x28 ./webserver/timer.o
 .debug_ranges  0x00000d00       0xc0 ./webserver/uIP_Task.o
 .debug_ranges  0x00000dc0      0x520 ./webserver/uip.o
 .debug_ranges  0x000012e0       0x38 ./webserver/uip_arp.o
 .debug_ranges  0x00001318      0x590 ./uip_ftp/Connections.o
 .debug_ranges  0x000018a8       0xb0 ./uip_ftp/FTPD.o
 .debug_ranges  0x00001958      0x100 ./uip_ftp/ftp_main.o
 .debug_ranges  0x00001a58       0x70 ./driver_source/lpc17xx_adc.o
 .debug_ranges  0x00001ac8       0xc8 ./driver_source/lpc17xx_can.o
 .debug_ranges  0x00001b90       0x78 ./driver_source/lpc17xx_clkpwr.o
 .debug_ranges  0x00001c08       0x30 ./driver_source/lpc17xx_dac.o
 .debug_ranges  0x00001c38      0x488 ./driver_source/lpc17xx_emac.o
 .debug_ranges  0x000020c0       0x28 ./driver_source/lpc17xx_gpdma.o
 .debug_ranges  0x000020e8      0x100 ./driver_source/lpc17xx_gpio.o
 .debug_ranges  0x000021e8      0x3a0 ./driver_source/lpc17xx_i2c.o
 .debug_ranges  0x00002588      0x190 ./driver_source/lpc17xx_i2s.o
 .debug_ranges  0x00002718       0x10 ./driver_source/lpc17xx_libcfg_default.o
 .debug_ranges  0x00002728       0x80 ./driver_source/lpc17xx_mcpwm.o
 .debug_ranges  0x000027a8       0x20 ./driver_source/lpc17xx_nvic.o
 .debug_ranges  0x000027c8       0xe8 ./driver_source/lpc17xx_pinsel.o
 .debug_ranges  0x000028b0       0x78 ./driver_source/lpc17xx_pwm.o
 .debug_ranges  0x00002928       0xb0 ./driver_source/lpc17xx_qei.o
 .debug_ranges  0x000029d8       0x40 ./driver_source/lpc17xx_rit.o
 .debug_ranges  0x00002a18       0xa8 ./driver_source/lpc17xx_rtc.o
 .debug_ranges  0x00002ac0      0x3b0 ./driver_source/lpc17xx_sd.o
 .debug_ranges  0x00002e70      0x1b0 ./driver_source/lpc17xx_spi.o
 .debug_ranges  0x00003020      0x3d0 ./driver_source/lpc17xx_ssp.o
 .debug_ranges  0x000033f0      0x200 ./driver_source/lpc17xx_timer.o
 .debug_ranges  0x000035f0      0x548 ./driver_source/lpc17xx_uart.o
 .debug_ranges  0x00003b38       0xa8 ./driver_source/lpc17xx_wdt.o
 .debug_ranges  0x00003be0      0x188 ./UsbHost/Uart/usbhost_uart.o
 .debug_ranges  0x00003d68      0x148 ./UsbHost/MassStorage/usbhost_ms.o
 .debug_ranges  0x00003eb0       0x10 ./UsbHost/Main/usbhost_main.o
 .debug_ranges  0x00003ec0       0x48 ./UsbHost/Host/usb_ms_diskio.o
 .debug_ranges  0x00003f08      0x6f0 ./UsbHost/Host/usbhost_lpc17xx.o
 .debug_ranges  0x000045f8       0xc0 ./LPCUSB/USB_CDC.o
 .debug_ranges  0x000046b8       0xf8 ./LPCUSB/usbcontrol.o
 .debug_ranges  0x000047b0      0x5a8 ./LPCUSB/usbhw_lpc.o
 .debug_ranges  0x00004d58       0x18 ./LPCUSB/usbinit.o
 .debug_ranges  0x00004d70      0x1c8 ./LPCUSB/usbstdreq.o
 .debug_ranges  0x00004f38       0x18 ./FatFs/option/cc932.o
 .debug_ranges  0x00004f50       0x90 ./FatFs/diskio.o
 .debug_ranges  0x00004fe0      0xfe8 ./FatFs/ff.o
 .debug_ranges  0x00005fc8       0x18 /home/nlv14991/workspaceLPC/STE-LPC1768-/CMSISv1p30_LPC17xx/Debug/libCMSISv1p30_LPC17xx.a(system_LPC17xx.o)
 .debug_ranges  0x00005fe0       0x98 /home/nlv14991/workspaceLPC/STE-LPC1768-/FreeRTOS_Library/Debug/libFreeRTOS_Library.a(tasks.o)
 .debug_ranges  0x00006078       0x18 /home/nlv14991/workspaceLPC/STE-LPC1768-/FreeRTOS_Library/Debug/libFreeRTOS_Library.a(heap_2.o)

.debug_str      0x00000000     0x89e3
 .debug_str     0x00000000      0x40a ./LedBlinky.o
                                0x47b (size before relaxing)
 .debug_str     0x0000040a      0x254 ./cr_startup_lpc17.o
                                0x3f4 (size before relaxing)
 .debug_str     0x0000065e      0x247 ./lcd_i2c.o
                                0x378 (size before relaxing)
 .debug_str     0x000008a5       0xf8 ./main.o
                                0x4b0 (size before relaxing)
 .debug_str     0x0000099d      0x4b4 ./uart_fullmodem_test.o
                                0x9d0 (size before relaxing)
 .debug_str     0x00000e51      0x4de ./webserver/emac.o
                                0x6aa (size before relaxing)
 .debug_str     0x0000132f      0x1f3 ./webserver/http-strings.o
                                0x258 (size before relaxing)
 .debug_str     0x00001522      0x376 ./webserver/httpd-cgi.o
                                0x4f6 (size before relaxing)
 .debug_str     0x00001898      0x16e ./webserver/httpd-fs.o
                                0x28e (size before relaxing)
 .debug_str     0x00001a06      0x108 ./webserver/httpd.o
                                0x495 (size before relaxing)
 .debug_str     0x00001b0e      0x109 ./webserver/psock.o
                                0x382 (size before relaxing)
 .debug_str     0x00001c17       0x5d ./webserver/timer.o
                                0x14d (size before relaxing)
 .debug_str     0x00001c74       0xe8 ./webserver/uIP_Task.o
                                0x970 (size before relaxing)
 .debug_str     0x00001d5c      0x28c ./webserver/uip.o
                                0x632 (size before relaxing)
 .debug_str     0x00001fe8      0x114 ./webserver/uip_arp.o
                                0x2e1 (size before relaxing)
 .debug_str     0x000020fc      0x5c6 ./uip_ftp/Connections.o
                                0x8b3 (size before relaxing)
 .debug_str     0x000026c2       0x73 ./uip_ftp/FTPD.o
                                0x588 (size before relaxing)
 .debug_str     0x00002735       0xa1 ./uip_ftp/FTP_Strings.o
                                 0xf9 (size before relaxing)
 .debug_str     0x000027d6       0x73 ./uip_ftp/ftp_main.o
                                0xbc8 (size before relaxing)
 .debug_str     0x00002849      0x364 ./driver_source/lpc17xx_adc.o
                                0x4b6 (size before relaxing)
 .debug_str     0x00002bad      0x877 ./driver_source/lpc17xx_can.o
                                0x9ef (size before relaxing)
 .debug_str     0x00003424       0xd5 ./driver_source/lpc17xx_clkpwr.o
                                0x386 (size before relaxing)
 .debug_str     0x000034f9      0x138 ./driver_source/lpc17xx_dac.o
                                0x23b (size before relaxing)
 .debug_str     0x00003631      0x36e ./driver_source/lpc17xx_emac.o
                                0x705 (size before relaxing)
 .debug_str     0x0000399f      0x33d ./driver_source/lpc17xx_gpdma.o
                                0x5db (size before relaxing)
 .debug_str     0x00003cdc      0x31b ./driver_source/lpc17xx_gpio.o
                                0x455 (size before relaxing)
 .debug_str     0x00003ff7      0x2e0 ./driver_source/lpc17xx_i2c.o
                                0x80d (size before relaxing)
 .debug_str     0x000042d7      0x23c ./driver_source/lpc17xx_i2s.o
                                0x461 (size before relaxing)
 .debug_str     0x00004513       0x3c ./driver_source/lpc17xx_libcfg_default.o
                                0x12e (size before relaxing)
 .debug_str     0x0000454f      0x3fd ./driver_source/lpc17xx_mcpwm.o
                                0x53d (size before relaxing)
 .debug_str     0x0000494c       0x48 ./driver_source/lpc17xx_nvic.o
                                0x1fa (size before relaxing)
 .debug_str     0x00004994      0x10b ./driver_source/lpc17xx_pinsel.o
                                0x38a (size before relaxing)
 .debug_str     0x00004a9f      0x423 ./driver_source/lpc17xx_pwm.o
                                0x5b1 (size before relaxing)
 .debug_str     0x00004ec2      0x35b ./driver_source/lpc17xx_qei.o
                                0x4bf (size before relaxing)
 .debug_str     0x0000521d       0xe3 ./driver_source/lpc17xx_rit.o
                                0x22c (size before relaxing)
 .debug_str     0x00005300      0x3ad ./driver_source/lpc17xx_rtc.o
                                0x58e (size before relaxing)
 .debug_str     0x000056ad      0x26d ./driver_source/lpc17xx_sd.o
                                0x51e (size before relaxing)
 .debug_str     0x0000591a      0x1c8 ./driver_source/lpc17xx_spi.o
                                0x3fd (size before relaxing)
 .debug_str     0x00005ae2      0x224 ./driver_source/lpc17xx_ssp.o
                                0x468 (size before relaxing)
 .debug_str     0x00005d06      0x312 ./driver_source/lpc17xx_timer.o
                                0x573 (size before relaxing)
 .debug_str     0x00006018      0x741 ./driver_source/lpc17xx_uart.o
                                0xe5b (size before relaxing)
 .debug_str     0x00006759      0x168 ./driver_source/lpc17xx_wdt.o
                                0x2b5 (size before relaxing)
 .debug_str     0x000068c1      0x124 ./UsbHost/Uart/usbhost_uart.o
                                0xa44 (size before relaxing)
 .debug_str     0x000069e5      0x1f0 ./UsbHost/MassStorage/usbhost_ms.o
                                0x30b (size before relaxing)
 .debug_str     0x00006bd5       0x63 ./UsbHost/Main/usbhost_main.o
                                0x300 (size before relaxing)
 .debug_str     0x00006c38       0xd5 ./UsbHost/Host/usb_ms_diskio.o
                                0x5bd (size before relaxing)
 .debug_str     0x00006d0d      0x5f6 ./UsbHost/Host/usbhost_lpc17xx.o
                                0xc92 (size before relaxing)
 .debug_str     0x00007303      0x145 ./LPCUSB/USB_CDC.o
                                0x64a (size before relaxing)
 .debug_str     0x00007448       0xc8 ./LPCUSB/usbcontrol.o
                                0x23f (size before relaxing)
 .debug_str     0x00007510      0x23e ./LPCUSB/usbhw_lpc.o
                                0x968 (size before relaxing)
 .debug_str     0x0000774e       0x43 ./LPCUSB/usbinit.o
                                0x14d (size before relaxing)
 .debug_str     0x00007791      0x164 ./LPCUSB/usbstdreq.o
                                0x2e6 (size before relaxing)
 .debug_str     0x000078f5       0x55 ./FatFs/option/cc932.o
                                0x10b (size before relaxing)
 .debug_str     0x0000794a       0x1a ./FatFs/option/syncobj.o
                                 0xc5 (size before relaxing)
 .debug_str     0x00007964       0x1a ./FatFs/option/syscall.o
                                 0xf6 (size before relaxing)
 .debug_str     0x0000797e       0x12 ./FatFs/diskio.o
                                0x21c (size before relaxing)
 .debug_str     0x00007990      0x2bd ./FatFs/ff.o
                                0x66e (size before relaxing)
 .debug_str     0x00007c4d       0x82 /home/nlv14991/workspaceLPC/STE-LPC1768-/CMSISv1p30_LPC17xx/Debug/libCMSISv1p30_LPC17xx.a(system_LPC17xx.o)
                                0x257 (size before relaxing)
 .debug_str     0x00007ccf      0x400 /home/nlv14991/workspaceLPC/STE-LPC1768-/FreeRTOS_Library/Debug/libFreeRTOS_Library.a(queue.o)
                                0x4ec (size before relaxing)
 .debug_str     0x000080cf      0x618 /home/nlv14991/workspaceLPC/STE-LPC1768-/FreeRTOS_Library/Debug/libFreeRTOS_Library.a(tasks.o)
                                0x885 (size before relaxing)
 .debug_str     0x000086e7      0x150 /home/nlv14991/workspaceLPC/STE-LPC1768-/FreeRTOS_Library/Debug/libFreeRTOS_Library.a(heap_2.o)
                                0x258 (size before relaxing)
 .debug_str     0x00008837      0x11a /home/nlv14991/workspaceLPC/STE-LPC1768-/FreeRTOS_Library/Debug/libFreeRTOS_Library.a(port.o)
                                0x231 (size before relaxing)
 .debug_str     0x00008951       0x92 /home/nlv14991/workspaceLPC/STE-LPC1768-/FreeRTOS_Library/Debug/libFreeRTOS_Library.a(list.o)
                                0x21f (size before relaxing)

.comment        0x00000000      0x1ad
 .comment       0x00000000       0x2a ./LedBlinky.o
                                 0x2b (size before relaxing)
 .comment       0x00000000       0x2b ./cr_startup_lpc17.o
 .comment       0x00000000       0x2b ./lcd_i2c.o
 .comment       0x00000000       0x2b ./main.o
 .comment       0x00000000       0x2b ./uart_fullmodem_test.o
 .comment       0x00000000       0x2b ./webserver/emac.o
 .comment       0x00000000       0x2b ./webserver/http-strings.o
 .comment       0x00000000       0x2b ./webserver/httpd-cgi.o
 .comment       0x00000000       0x2b ./webserver/httpd-fs.o
 .comment       0x00000000       0x2b ./webserver/httpd.o
 .comment       0x00000000       0x2b ./webserver/psock.o
 .comment       0x00000000       0x2b ./webserver/timer.o
 .comment       0x00000000       0x2b ./webserver/uIP_Task.o
 .comment       0x00000000       0x2b ./webserver/uip.o
 .comment       0x00000000       0x2b ./webserver/uip_arp.o
 .comment       0x00000000       0x2b ./uip_ftp/Connections.o
 .comment       0x00000000       0x2b ./uip_ftp/FTPD.o
 .comment       0x00000000       0x2b ./uip_ftp/FTP_Strings.o
 .comment       0x00000000       0x2b ./uip_ftp/ftp_main.o
 .comment       0x00000000       0x2b ./driver_source/lpc17xx_adc.o
 .comment       0x00000000       0x2b ./driver_source/lpc17xx_can.o
 .comment       0x00000000       0x2b ./driver_source/lpc17xx_clkpwr.o
 .comment       0x00000000       0x2b ./driver_source/lpc17xx_dac.o
 .comment       0x00000000       0x2b ./driver_source/lpc17xx_emac.o
 .comment       0x00000000       0x2b ./driver_source/lpc17xx_gpdma.o
 .comment       0x00000000       0x2b ./driver_source/lpc17xx_gpio.o
 .comment       0x00000000       0x2b ./driver_source/lpc17xx_i2c.o
 .comment       0x00000000       0x2b ./driver_source/lpc17xx_i2s.o
 .comment       0x00000000       0x2b ./driver_source/lpc17xx_libcfg_default.o
 .comment       0x00000000       0x2b ./driver_source/lpc17xx_mcpwm.o
 .comment       0x00000000       0x2b ./driver_source/lpc17xx_nvic.o
 .comment       0x00000000       0x2b ./driver_source/lpc17xx_pinsel.o
 .comment       0x00000000       0x2b ./driver_source/lpc17xx_pwm.o
 .comment       0x00000000       0x2b ./driver_source/lpc17xx_qei.o
 .comment       0x00000000       0x2b ./driver_source/lpc17xx_rit.o
 .comment       0x00000000       0x2b ./driver_source/lpc17xx_rtc.o
 .comment       0x00000000       0x2b ./driver_source/lpc17xx_sd.o
 .comment       0x00000000       0x2b ./driver_source/lpc17xx_spi.o
 .comment       0x00000000       0x2b ./driver_source/lpc17xx_ssp.o
 .comment       0x00000000       0x2b ./driver_source/lpc17xx_timer.o
 .comment       0x00000000       0x2b ./driver_source/lpc17xx_uart.o
 .comment       0x00000000       0x2b ./driver_source/lpc17xx_wdt.o
 .comment       0x00000000       0x2b ./UsbHost/Uart/usbhost_uart.o
 .comment       0x00000000       0x2b ./UsbHost/MassStorage/usbhost_ms.o
 .comment       0x00000000       0x2b ./UsbHost/Main/usbhost_main.o
 .comment       0x00000000       0x2b ./UsbHost/Host/usb_ms_diskio.o
 .comment       0x00000000       0x2b ./UsbHost/Host/usbhost_lpc17xx.o
 .comment       0x00000000       0x2b ./LPCUSB/USB_CDC.o
 .comment       0x00000000       0x2b ./LPCUSB/usbcontrol.o
 .comment       0x00000000       0x2b ./LPCUSB/usbhw_lpc.o
 .comment       0x00000000       0x2b ./LPCUSB/usbinit.o
 .comment       0x00000000       0x2b ./LPCUSB/usbstdreq.o
 .comment       0x00000000       0x2b ./FatFs/option/cc932.o
 .comment       0x00000000       0x2b ./FatFs/option/syncobj.o
 .comment       0x00000000       0x2b ./FatFs/option/syscall.o
 .comment       0x00000000       0x2b ./FatFs/diskio.o
 .comment       0x00000000       0x2b ./FatFs/ff.o
 .comment       0x00000000       0x2b /home/nlv14991/workspaceLPC/STE-LPC1768-/CMSISv1p30_LPC17xx/Debug/libCMSISv1p30_LPC17xx.a(system_LPC17xx.o)
 .comment       0x00000000       0x2b /home/nlv14991/workspaceLPC/STE-LPC1768-/FreeRTOS_Library/Debug/libFreeRTOS_Library.a(queue.o)
 .comment       0x00000000       0x2b /home/nlv14991/workspaceLPC/STE-LPC1768-/FreeRTOS_Library/Debug/libFreeRTOS_Library.a(tasks.o)
 .comment       0x00000000       0x2b /home/nlv14991/workspaceLPC/STE-LPC1768-/FreeRTOS_Library/Debug/libFreeRTOS_Library.a(heap_2.o)
 .comment       0x00000000       0x2b /home/nlv14991/workspaceLPC/STE-LPC1768-/FreeRTOS_Library/Debug/libFreeRTOS_Library.a(port.o)
 .comment       0x00000000       0x2b /home/nlv14991/workspaceLPC/STE-LPC1768-/FreeRTOS_Library/Debug/libFreeRTOS_Library.a(list.o)
 .comment       0x00000000       0x2b /usr/local/lpcxpresso_4.2.3_255/lpcxpresso/tools/bin/../lib/gcc/arm-none-eabi/4.5.1/../../../../arm-none-eabi/lib/thumb2/libcr_c.a(fpprintf.o)
 .comment       0x00000000       0x2b /usr/local/lpcxpresso_4.2.3_255/lpcxpresso/tools/bin/../lib/gcc/arm-none-eabi/4.5.1/../../../../arm-none-eabi/lib/thumb2/libcr_c.a(memcmp.o)
 .comment       0x00000000       0x2b /usr/local/lpcxpresso_4.2.3_255/lpcxpresso/tools/bin/../lib/gcc/arm-none-eabi/4.5.1/../../../../arm-none-eabi/lib/thumb2/libcr_c.a(printf.o)
 .comment       0x00000000       0x2b /usr/local/lpcxpresso_4.2.3_255/lpcxpresso/tools/bin/../lib/gcc/arm-none-eabi/4.5.1/../../../../arm-none-eabi/lib/thumb2/libcr_c.a(scanf.o)
 .comment       0x00000000       0x2b /usr/local/lpcxpresso_4.2.3_255/lpcxpresso/tools/bin/../lib/gcc/arm-none-eabi/4.5.1/../../../../arm-none-eabi/lib/thumb2/libcr_c.a(stdio.o)
 .comment       0x00000000       0x2b /usr/local/lpcxpresso_4.2.3_255/lpcxpresso/tools/bin/../lib/gcc/arm-none-eabi/4.5.1/../../../../arm-none-eabi/lib/thumb2/libcr_c.a(strcat.o)
 .comment       0x00000000       0x2b /usr/local/lpcxpresso_4.2.3_255/lpcxpresso/tools/bin/../lib/gcc/arm-none-eabi/4.5.1/../../../../arm-none-eabi/lib/thumb2/libcr_c.a(strchr.o)
 .comment       0x00000000       0x2b /usr/local/lpcxpresso_4.2.3_255/lpcxpresso/tools/bin/../lib/gcc/arm-none-eabi/4.5.1/../../../../arm-none-eabi/lib/thumb2/libcr_c.a(strcmp.o)
 .comment       0x00000000       0x2b /usr/local/lpcxpresso_4.2.3_255/lpcxpresso/tools/bin/../lib/gcc/arm-none-eabi/4.5.1/../../../../arm-none-eabi/lib/thumb2/libcr_c.a(strcpy.o)
 .comment       0x00000000       0x2b /usr/local/lpcxpresso_4.2.3_255/lpcxpresso/tools/bin/../lib/gcc/arm-none-eabi/4.5.1/../../../../arm-none-eabi/lib/thumb2/libcr_c.a(strlen.o)
 .comment       0x00000000       0x2b /usr/local/lpcxpresso_4.2.3_255/lpcxpresso/tools/bin/../lib/gcc/arm-none-eabi/4.5.1/../../../../arm-none-eabi/lib/thumb2/libcr_c.a(strncmp.o)
 .comment       0x00000000       0x2b /usr/local/lpcxpresso_4.2.3_255/lpcxpresso/tools/bin/../lib/gcc/arm-none-eabi/4.5.1/../../../../arm-none-eabi/lib/thumb2/libcr_c.a(strncpy.o)
 .comment       0x00000000       0x2b /usr/local/lpcxpresso_4.2.3_255/lpcxpresso/tools/bin/../lib/gcc/arm-none-eabi/4.5.1/../../../../arm-none-eabi/lib/thumb2/libcr_c.a(strrchr.o)
 .comment       0x00000000       0x2b /usr/local/lpcxpresso_4.2.3_255/lpcxpresso/tools/bin/../lib/gcc/arm-none-eabi/4.5.1/../../../../arm-none-eabi/lib/thumb2/libcr_c.a(strstr.o)
 .comment       0x00000000       0x2b /usr/local/lpcxpresso_4.2.3_255/lpcxpresso/tools/bin/../lib/gcc/arm-none-eabi/4.5.1/../../../../arm-none-eabi/lib/thumb2/libcr_c.a(ungetc.o)
 .comment       0x00000000       0x2b /usr/local/lpcxpresso_4.2.3_255/lpcxpresso/tools/bin/../lib/gcc/arm-none-eabi/4.5.1/../../../../arm-none-eabi/lib/thumb2/libcr_c.a(memcpy.o)
 .comment       0x00000000       0x2b /usr/local/lpcxpresso_4.2.3_255/lpcxpresso/tools/bin/../lib/gcc/arm-none-eabi/4.5.1/../../../../arm-none-eabi/lib/thumb2/libcr_c.a(memset.o)
 .comment       0x00000000       0x2b /usr/local/lpcxpresso_4.2.3_255/lpcxpresso/tools/bin/../lib/gcc/arm-none-eabi/4.5.1/../../../../arm-none-eabi/lib/thumb2/libcr_c.a(__fillbuf.o)
 .comment       0x00000000       0x2b /usr/local/lpcxpresso_4.2.3_255/lpcxpresso/tools/bin/../lib/gcc/arm-none-eabi/4.5.1/../../../../arm-none-eabi/lib/thumb2/libcr_c.a(_deferredlazyseek.o)
 .comment       0x00000000       0x2b /usr/local/lpcxpresso_4.2.3_255/lpcxpresso/tools/bin/../lib/gcc/arm-none-eabi/4.5.1/../../../../arm-none-eabi/lib/thumb2/libcr_c.a(_fflush.o)
 .comment       0x00000000       0x2b /usr/local/lpcxpresso_4.2.3_255/lpcxpresso/tools/bin/../lib/gcc/arm-none-eabi/4.5.1/../../../../arm-none-eabi/lib/thumb2/libcr_c.a(_frexpl.o)
 .comment       0x00000000       0x2b /usr/local/lpcxpresso_4.2.3_255/lpcxpresso/tools/bin/../lib/gcc/arm-none-eabi/4.5.1/../../../../arm-none-eabi/lib/thumb2/libcr_c.a(_hugeval.o)
 .comment       0x00000000       0x2b /usr/local/lpcxpresso_4.2.3_255/lpcxpresso/tools/bin/../lib/gcc/arm-none-eabi/4.5.1/../../../../arm-none-eabi/lib/thumb2/libcr_c.a(_ldexpl.o)
 .comment       0x00000000       0x2b /usr/local/lpcxpresso_4.2.3_255/lpcxpresso/tools/bin/../lib/gcc/arm-none-eabi/4.5.1/../../../../arm-none-eabi/lib/thumb2/libcr_c.a(_writebuf.o)
 .comment       0x00000000       0x2b /usr/local/lpcxpresso_4.2.3_255/lpcxpresso/tools/bin/../lib/gcc/arm-none-eabi/4.5.1/../../../../arm-none-eabi/lib/thumb2/libcr_c.a(alloc.o)
 .comment       0x00000000       0x2b /usr/local/lpcxpresso_4.2.3_255/lpcxpresso/tools/bin/../lib/gcc/arm-none-eabi/4.5.1/../../../../arm-none-eabi/lib/thumb2/libcr_c.a(ctype.o)
 .comment       0x00000000       0x2b /usr/local/lpcxpresso_4.2.3_255/lpcxpresso/tools/bin/../lib/gcc/arm-none-eabi/4.5.1/../../../../arm-none-eabi/lib/thumb2/libcr_c.a(errno.o)
 .comment       0x00000000       0x2b /usr/local/lpcxpresso_4.2.3_255/lpcxpresso/tools/bin/../lib/gcc/arm-none-eabi/4.5.1/../../../../arm-none-eabi/lib/thumb2/libcr_c.a(fseek.o)
 .comment       0x00000000       0x2b /usr/local/lpcxpresso_4.2.3_255/lpcxpresso/tools/bin/../lib/gcc/arm-none-eabi/4.5.1/../../../../arm-none-eabi/lib/thumb2/libcr_c.a(ftell.o)
 .comment       0x00000000       0x2b /usr/local/lpcxpresso_4.2.3_255/lpcxpresso/tools/bin/../lib/gcc/arm-none-eabi/4.5.1/../../../../arm-none-eabi/lib/thumb2/libcr_c.a(__init_alloc.o)
 .comment       0x00000000       0x2b /usr/local/lpcxpresso_4.2.3_255/lpcxpresso/tools/bin/../lib/gcc/arm-none-eabi/4.5.1/thumb2/libcr_eabihelpers.a(double.o)
 .comment       0x0000002a       0x2b /usr/local/lpcxpresso_4.2.3_255/lpcxpresso/tools/bin/../lib/gcc/arm-none-eabi/4.5.1/../../../../arm-none-eabi/lib/thumb2/libcr_nohost.a(__sys_appexit.o)
 .comment       0x00000055       0x2b /usr/local/lpcxpresso_4.2.3_255/lpcxpresso/tools/bin/../lib/gcc/arm-none-eabi/4.5.1/../../../../arm-none-eabi/lib/thumb2/libcr_nohost.a(__sys_flen.o)
 .comment       0x00000080       0x2b /usr/local/lpcxpresso_4.2.3_255/lpcxpresso/tools/bin/../lib/gcc/arm-none-eabi/4.5.1/../../../../arm-none-eabi/lib/thumb2/libcr_nohost.a(__sys_istty.o)
 .comment       0x000000ab       0x2b /usr/local/lpcxpresso_4.2.3_255/lpcxpresso/tools/bin/../lib/gcc/arm-none-eabi/4.5.1/../../../../arm-none-eabi/lib/thumb2/libcr_nohost.a(__sys_read.o)
 .comment       0x000000d6       0x2b /usr/local/lpcxpresso_4.2.3_255/lpcxpresso/tools/bin/../lib/gcc/arm-none-eabi/4.5.1/../../../../arm-none-eabi/lib/thumb2/libcr_nohost.a(__sys_readc.o)
 .comment       0x00000101       0x2b /usr/local/lpcxpresso_4.2.3_255/lpcxpresso/tools/bin/../lib/gcc/arm-none-eabi/4.5.1/../../../../arm-none-eabi/lib/thumb2/libcr_nohost.a(__sys_seek.o)
 .comment       0x0000012c       0x2b /usr/local/lpcxpresso_4.2.3_255/lpcxpresso/tools/bin/../lib/gcc/arm-none-eabi/4.5.1/../../../../arm-none-eabi/lib/thumb2/libcr_nohost.a(__sys_write.o)
 .comment       0x00000157       0x2b /usr/local/lpcxpresso_4.2.3_255/lpcxpresso/tools/bin/../lib/gcc/arm-none-eabi/4.5.1/../../../../arm-none-eabi/lib/thumb2/libcr_nohost.a(_cr_sbrk.o)
 .comment       0x00000182       0x2b /usr/local/lpcxpresso_4.2.3_255/lpcxpresso/tools/bin/../lib/gcc/arm-none-eabi/4.5.1/../../../../arm-none-eabi/lib/thumb2/libcr_nohost.a(_cr_check_heap.o)

.ARM.attributes
                0x00000000       0x2f
 .ARM.attributes
                0x00000000       0x31 ./LedBlinky.o
 .ARM.attributes
                0x00000031       0x31 ./cr_startup_lpc17.o
 .ARM.attributes
                0x00000062       0x31 ./lcd_i2c.o
 .ARM.attributes
                0x00000093       0x31 ./main.o
 .ARM.attributes
                0x000000c4       0x31 ./uart_fullmodem_test.o
 .ARM.attributes
                0x000000f5       0x31 ./webserver/emac.o
 .ARM.attributes
                0x00000126       0x31 ./webserver/http-strings.o
 .ARM.attributes
                0x00000157       0x31 ./webserver/httpd-cgi.o
 .ARM.attributes
                0x00000188       0x31 ./webserver/httpd-fs.o
 .ARM.attributes
                0x000001b9       0x31 ./webserver/httpd.o
 .ARM.attributes
                0x000001ea       0x31 ./webserver/psock.o
 .ARM.attributes
                0x0000021b       0x31 ./webserver/timer.o
 .ARM.attributes
                0x0000024c       0x31 ./webserver/uIP_Task.o
 .ARM.attributes
                0x0000027d       0x31 ./webserver/uip.o
 .ARM.attributes
                0x000002ae       0x31 ./webserver/uip_arp.o
 .ARM.attributes
                0x000002df       0x31 ./uip_ftp/Connections.o
 .ARM.attributes
                0x00000310       0x31 ./uip_ftp/FTPD.o
 .ARM.attributes
                0x00000341       0x31 ./uip_ftp/FTP_Strings.o
 .ARM.attributes
                0x00000372       0x31 ./uip_ftp/ftp_main.o
 .ARM.attributes
                0x000003a3       0x31 ./driver_source/lpc17xx_adc.o
 .ARM.attributes
                0x000003d4       0x31 ./driver_source/lpc17xx_can.o
 .ARM.attributes
                0x00000405       0x31 ./driver_source/lpc17xx_clkpwr.o
 .ARM.attributes
                0x00000436       0x31 ./driver_source/lpc17xx_dac.o
 .ARM.attributes
                0x00000467       0x31 ./driver_source/lpc17xx_emac.o
 .ARM.attributes
                0x00000498       0x31 ./driver_source/lpc17xx_gpdma.o
 .ARM.attributes
                0x000004c9       0x31 ./driver_source/lpc17xx_gpio.o
 .ARM.attributes
                0x000004fa       0x31 ./driver_source/lpc17xx_i2c.o
 .ARM.attributes
                0x0000052b       0x31 ./driver_source/lpc17xx_i2s.o
 .ARM.attributes
                0x0000055c       0x31 ./driver_source/lpc17xx_libcfg_default.o
 .ARM.attributes
                0x0000058d       0x31 ./driver_source/lpc17xx_mcpwm.o
 .ARM.attributes
                0x000005be       0x31 ./driver_source/lpc17xx_nvic.o
 .ARM.attributes
                0x000005ef       0x31 ./driver_source/lpc17xx_pinsel.o
 .ARM.attributes
                0x00000620       0x31 ./driver_source/lpc17xx_pwm.o
 .ARM.attributes
                0x00000651       0x31 ./driver_source/lpc17xx_qei.o
 .ARM.attributes
                0x00000682       0x31 ./driver_source/lpc17xx_rit.o
 .ARM.attributes
                0x000006b3       0x31 ./driver_source/lpc17xx_rtc.o
 .ARM.attributes
                0x000006e4       0x31 ./driver_source/lpc17xx_sd.o
 .ARM.attributes
                0x00000715       0x31 ./driver_source/lpc17xx_spi.o
 .ARM.attributes
                0x00000746       0x31 ./driver_source/lpc17xx_ssp.o
 .ARM.attributes
                0x00000777       0x31 ./driver_source/lpc17xx_timer.o
 .ARM.attributes
                0x000007a8       0x31 ./driver_source/lpc17xx_uart.o
 .ARM.attributes
                0x000007d9       0x31 ./driver_source/lpc17xx_wdt.o
 .ARM.attributes
                0x0000080a       0x31 ./UsbHost/Uart/usbhost_uart.o
 .ARM.attributes
                0x0000083b       0x31 ./UsbHost/MassStorage/usbhost_ms.o
 .ARM.attributes
                0x0000086c       0x31 ./UsbHost/Main/usbhost_main.o
 .ARM.attributes
                0x0000089d       0x31 ./UsbHost/Host/usb_ms_diskio.o
 .ARM.attributes
                0x000008ce       0x31 ./UsbHost/Host/usbhost_lpc17xx.o
 .ARM.attributes
                0x000008ff       0x31 ./LPCUSB/USB_CDC.o
 .ARM.attributes
                0x00000930       0x31 ./LPCUSB/usbcontrol.o
 .ARM.attributes
                0x00000961       0x31 ./LPCUSB/usbhw_lpc.o
 .ARM.attributes
                0x00000992       0x31 ./LPCUSB/usbinit.o
 .ARM.attributes
                0x000009c3       0x31 ./LPCUSB/usbstdreq.o
 .ARM.attributes
                0x000009f4       0x31 ./FatFs/option/cc932.o
 .ARM.attributes
                0x00000a25       0x31 ./FatFs/option/syncobj.o
 .ARM.attributes
                0x00000a56       0x31 ./FatFs/option/syscall.o
 .ARM.attributes
                0x00000a87       0x31 ./FatFs/diskio.o
 .ARM.attributes
                0x00000ab8       0x31 ./FatFs/ff.o
 .ARM.attributes
                0x00000ae9       0x31 /home/nlv14991/workspaceLPC/STE-LPC1768-/CMSISv1p30_LPC17xx/Debug/libCMSISv1p30_LPC17xx.a(system_LPC17xx.o)
 .ARM.attributes
                0x00000b1a       0x31 /home/nlv14991/workspaceLPC/STE-LPC1768-/FreeRTOS_Library/Debug/libFreeRTOS_Library.a(queue.o)
 .ARM.attributes
                0x00000b4b       0x31 /home/nlv14991/workspaceLPC/STE-LPC1768-/FreeRTOS_Library/Debug/libFreeRTOS_Library.a(tasks.o)
 .ARM.attributes
                0x00000b7c       0x31 /home/nlv14991/workspaceLPC/STE-LPC1768-/FreeRTOS_Library/Debug/libFreeRTOS_Library.a(heap_2.o)
 .ARM.attributes
                0x00000bad       0x31 /home/nlv14991/workspaceLPC/STE-LPC1768-/FreeRTOS_Library/Debug/libFreeRTOS_Library.a(port.o)
 .ARM.attributes
                0x00000bde       0x31 /home/nlv14991/workspaceLPC/STE-LPC1768-/FreeRTOS_Library/Debug/libFreeRTOS_Library.a(list.o)
 .ARM.attributes
                0x00000c0f       0x31 /usr/local/lpcxpresso_4.2.3_255/lpcxpresso/tools/bin/../lib/gcc/arm-none-eabi/4.5.1/../../../../arm-none-eabi/lib/thumb2/libcr_c.a(fpprintf.o)
 .ARM.attributes
                0x00000c40       0x31 /usr/local/lpcxpresso_4.2.3_255/lpcxpresso/tools/bin/../lib/gcc/arm-none-eabi/4.5.1/../../../../arm-none-eabi/lib/thumb2/libcr_c.a(memcmp.o)
 .ARM.attributes
                0x00000c71       0x31 /usr/local/lpcxpresso_4.2.3_255/lpcxpresso/tools/bin/../lib/gcc/arm-none-eabi/4.5.1/../../../../arm-none-eabi/lib/thumb2/libcr_c.a(printf.o)
 .ARM.attributes
                0x00000ca2       0x31 /usr/local/lpcxpresso_4.2.3_255/lpcxpresso/tools/bin/../lib/gcc/arm-none-eabi/4.5.1/../../../../arm-none-eabi/lib/thumb2/libcr_c.a(scanf.o)
 .ARM.attributes
                0x00000cd3       0x31 /usr/local/lpcxpresso_4.2.3_255/lpcxpresso/tools/bin/../lib/gcc/arm-none-eabi/4.5.1/../../../../arm-none-eabi/lib/thumb2/libcr_c.a(stdio.o)
 .ARM.attributes
                0x00000d04       0x31 /usr/local/lpcxpresso_4.2.3_255/lpcxpresso/tools/bin/../lib/gcc/arm-none-eabi/4.5.1/../../../../arm-none-eabi/lib/thumb2/libcr_c.a(strcat.o)
 .ARM.attributes
                0x00000d35       0x31 /usr/local/lpcxpresso_4.2.3_255/lpcxpresso/tools/bin/../lib/gcc/arm-none-eabi/4.5.1/../../../../arm-none-eabi/lib/thumb2/libcr_c.a(strchr.o)
 .ARM.attributes
                0x00000d66       0x31 /usr/local/lpcxpresso_4.2.3_255/lpcxpresso/tools/bin/../lib/gcc/arm-none-eabi/4.5.1/../../../../arm-none-eabi/lib/thumb2/libcr_c.a(strcmp.o)
 .ARM.attributes
                0x00000d97       0x31 /usr/local/lpcxpresso_4.2.3_255/lpcxpresso/tools/bin/../lib/gcc/arm-none-eabi/4.5.1/../../../../arm-none-eabi/lib/thumb2/libcr_c.a(strcpy.o)
 .ARM.attributes
                0x00000dc8       0x31 /usr/local/lpcxpresso_4.2.3_255/lpcxpresso/tools/bin/../lib/gcc/arm-none-eabi/4.5.1/../../../../arm-none-eabi/lib/thumb2/libcr_c.a(strlen.o)
 .ARM.attributes
                0x00000df9       0x31 /usr/local/lpcxpresso_4.2.3_255/lpcxpresso/tools/bin/../lib/gcc/arm-none-eabi/4.5.1/../../../../arm-none-eabi/lib/thumb2/libcr_c.a(strncmp.o)
 .ARM.attributes
                0x00000e2a       0x31 /usr/local/lpcxpresso_4.2.3_255/lpcxpresso/tools/bin/../lib/gcc/arm-none-eabi/4.5.1/../../../../arm-none-eabi/lib/thumb2/libcr_c.a(strncpy.o)
 .ARM.attributes
                0x00000e5b       0x31 /usr/local/lpcxpresso_4.2.3_255/lpcxpresso/tools/bin/../lib/gcc/arm-none-eabi/4.5.1/../../../../arm-none-eabi/lib/thumb2/libcr_c.a(strrchr.o)
 .ARM.attributes
                0x00000e8c       0x31 /usr/local/lpcxpresso_4.2.3_255/lpcxpresso/tools/bin/../lib/gcc/arm-none-eabi/4.5.1/../../../../arm-none-eabi/lib/thumb2/libcr_c.a(strstr.o)
 .ARM.attributes
                0x00000ebd       0x31 /usr/local/lpcxpresso_4.2.3_255/lpcxpresso/tools/bin/../lib/gcc/arm-none-eabi/4.5.1/../../../../arm-none-eabi/lib/thumb2/libcr_c.a(ungetc.o)
 .ARM.attributes
                0x00000eee       0x31 /usr/local/lpcxpresso_4.2.3_255/lpcxpresso/tools/bin/../lib/gcc/arm-none-eabi/4.5.1/../../../../arm-none-eabi/lib/thumb2/libcr_c.a(memcpy.o)
 .ARM.attributes
                0x00000f1f       0x31 /usr/local/lpcxpresso_4.2.3_255/lpcxpresso/tools/bin/../lib/gcc/arm-none-eabi/4.5.1/../../../../arm-none-eabi/lib/thumb2/libcr_c.a(memset.o)
 .ARM.attributes
                0x00000f50       0x31 /usr/local/lpcxpresso_4.2.3_255/lpcxpresso/tools/bin/../lib/gcc/arm-none-eabi/4.5.1/../../../../arm-none-eabi/lib/thumb2/libcr_c.a(__fillbuf.o)
 .ARM.attributes
                0x00000f81       0x31 /usr/local/lpcxpresso_4.2.3_255/lpcxpresso/tools/bin/../lib/gcc/arm-none-eabi/4.5.1/../../../../arm-none-eabi/lib/thumb2/libcr_c.a(_deferredlazyseek.o)
 .ARM.attributes
                0x00000fb2       0x31 /usr/local/lpcxpresso_4.2.3_255/lpcxpresso/tools/bin/../lib/gcc/arm-none-eabi/4.5.1/../../../../arm-none-eabi/lib/thumb2/libcr_c.a(_fflush.o)
 .ARM.attributes
                0x00000fe3       0x31 /usr/local/lpcxpresso_4.2.3_255/lpcxpresso/tools/bin/../lib/gcc/arm-none-eabi/4.5.1/../../../../arm-none-eabi/lib/thumb2/libcr_c.a(_frexpl.o)
 .ARM.attributes
                0x00001014       0x31 /usr/local/lpcxpresso_4.2.3_255/lpcxpresso/tools/bin/../lib/gcc/arm-none-eabi/4.5.1/../../../../arm-none-eabi/lib/thumb2/libcr_c.a(_hugeval.o)
 .ARM.attributes
                0x00001045       0x31 /usr/local/lpcxpresso_4.2.3_255/lpcxpresso/tools/bin/../lib/gcc/arm-none-eabi/4.5.1/../../../../arm-none-eabi/lib/thumb2/libcr_c.a(_ldexpl.o)
 .ARM.attributes
                0x00001076       0x31 /usr/local/lpcxpresso_4.2.3_255/lpcxpresso/tools/bin/../lib/gcc/arm-none-eabi/4.5.1/../../../../arm-none-eabi/lib/thumb2/libcr_c.a(_writebuf.o)
 .ARM.attributes
                0x000010a7       0x31 /usr/local/lpcxpresso_4.2.3_255/lpcxpresso/tools/bin/../lib/gcc/arm-none-eabi/4.5.1/../../../../arm-none-eabi/lib/thumb2/libcr_c.a(alloc.o)
 .ARM.attributes
                0x000010d8       0x31 /usr/local/lpcxpresso_4.2.3_255/lpcxpresso/tools/bin/../lib/gcc/arm-none-eabi/4.5.1/../../../../arm-none-eabi/lib/thumb2/libcr_c.a(ctype.o)
 .ARM.attributes
                0x00001109       0x31 /usr/local/lpcxpresso_4.2.3_255/lpcxpresso/tools/bin/../lib/gcc/arm-none-eabi/4.5.1/../../../../arm-none-eabi/lib/thumb2/libcr_c.a(errno.o)
 .ARM.attributes
                0x0000113a       0x31 /usr/local/lpcxpresso_4.2.3_255/lpcxpresso/tools/bin/../lib/gcc/arm-none-eabi/4.5.1/../../../../arm-none-eabi/lib/thumb2/libcr_c.a(fseek.o)
 .ARM.attributes
                0x0000116b       0x31 /usr/local/lpcxpresso_4.2.3_255/lpcxpresso/tools/bin/../lib/gcc/arm-none-eabi/4.5.1/../../../../arm-none-eabi/lib/thumb2/libcr_c.a(ftell.o)
 .ARM.attributes
                0x0000119c       0x31 /usr/local/lpcxpresso_4.2.3_255/lpcxpresso/tools/bin/../lib/gcc/arm-none-eabi/4.5.1/../../../../arm-none-eabi/lib/thumb2/libcr_c.a(__init_alloc.o)
 .ARM.attributes
                0x000011cd       0x21 /usr/local/lpcxpresso_4.2.3_255/lpcxpresso/tools/bin/../lib/gcc/arm-none-eabi/4.5.1/thumb2/libcr_eabihelpers.a(division.o)
 .ARM.attributes
                0x000011ee       0x31 /usr/local/lpcxpresso_4.2.3_255/lpcxpresso/tools/bin/../lib/gcc/arm-none-eabi/4.5.1/thumb2/libcr_eabihelpers.a(double.o)
 .ARM.attributes
                0x0000121f       0x21 /usr/local/lpcxpresso_4.2.3_255/lpcxpresso/tools/bin/../lib/gcc/arm-none-eabi/4.5.1/thumb2/libcr_eabihelpers.a(memcpy.o)
 .ARM.attributes
                0x00001240       0x31 /usr/local/lpcxpresso_4.2.3_255/lpcxpresso/tools/bin/../lib/gcc/arm-none-eabi/4.5.1/../../../../arm-none-eabi/lib/thumb2/libcr_nohost.a(__sys_appexit.o)
 .ARM.attributes
                0x00001271       0x31 /usr/local/lpcxpresso_4.2.3_255/lpcxpresso/tools/bin/../lib/gcc/arm-none-eabi/4.5.1/../../../../arm-none-eabi/lib/thumb2/libcr_nohost.a(__sys_flen.o)
 .ARM.attributes
                0x000012a2       0x31 /usr/local/lpcxpresso_4.2.3_255/lpcxpresso/tools/bin/../lib/gcc/arm-none-eabi/4.5.1/../../../../arm-none-eabi/lib/thumb2/libcr_nohost.a(__sys_istty.o)
 .ARM.attributes
                0x000012d3       0x31 /usr/local/lpcxpresso_4.2.3_255/lpcxpresso/tools/bin/../lib/gcc/arm-none-eabi/4.5.1/../../../../arm-none-eabi/lib/thumb2/libcr_nohost.a(__sys_read.o)
 .ARM.attributes
                0x00001304       0x31 /usr/local/lpcxpresso_4.2.3_255/lpcxpresso/tools/bin/../lib/gcc/arm-none-eabi/4.5.1/../../../../arm-none-eabi/lib/thumb2/libcr_nohost.a(__sys_readc.o)
 .ARM.attributes
                0x00001335       0x31 /usr/local/lpcxpresso_4.2.3_255/lpcxpresso/tools/bin/../lib/gcc/arm-none-eabi/4.5.1/../../../../arm-none-eabi/lib/thumb2/libcr_nohost.a(__sys_seek.o)
 .ARM.attributes
                0x00001366       0x31 /usr/local/lpcxpresso_4.2.3_255/lpcxpresso/tools/bin/../lib/gcc/arm-none-eabi/4.5.1/../../../../arm-none-eabi/lib/thumb2/libcr_nohost.a(__sys_write.o)
 .ARM.attributes
                0x00001397       0x31 /usr/local/lpcxpresso_4.2.3_255/lpcxpresso/tools/bin/../lib/gcc/arm-none-eabi/4.5.1/../../../../arm-none-eabi/lib/thumb2/libcr_nohost.a(_cr_sbrk.o)
 .ARM.attributes
                0x000013c8       0x31 /usr/local/lpcxpresso_4.2.3_255/lpcxpresso/tools/bin/../lib/gcc/arm-none-eabi/4.5.1/../../../../arm-none-eabi/lib/thumb2/libcr_nohost.a(_cr_check_heap.o)

.debug_frame    0x00000000     0x45cc
 .debug_frame   0x00000000       0x70 ./LedBlinky.o
 .debug_frame   0x00000070      0x104 ./cr_startup_lpc17.o
 .debug_frame   0x00000174       0xec ./lcd_i2c.o
 .debug_frame   0x00000260       0x98 ./main.o
 .debug_frame   0x000002f8      0x118 ./uart_fullmodem_test.o
 .debug_frame   0x00000410       0x9c ./webserver/emac.o
 .debug_frame   0x000004ac      0x1b0 ./webserver/httpd-cgi.o
 .debug_frame   0x0000065c       0x58 ./webserver/httpd-fs.o
 .debug_frame   0x000006b4       0xc0 ./webserver/httpd.o
 .debug_frame   0x00000774       0xd8 ./webserver/psock.o
 .debug_frame   0x0000084c       0x68 ./webserver/timer.o
 .debug_frame   0x000008b4       0x84 ./webserver/uIP_Task.o
 .debug_frame   0x00000938      0x194 ./webserver/uip.o
 .debug_frame   0x00000acc       0xbc ./webserver/uip_arp.o
 .debug_frame   0x00000b88      0x3e8 ./uip_ftp/Connections.o
 .debug_frame   0x00000f70       0x4c ./uip_ftp/FTPD.o
 .debug_frame   0x00000fbc       0x70 ./uip_ftp/ftp_main.o
 .debug_frame   0x0000102c      0x168 ./driver_source/lpc17xx_adc.o
 .debug_frame   0x00001194      0x264 ./driver_source/lpc17xx_can.o
 .debug_frame   0x000013f8       0x90 ./driver_source/lpc17xx_clkpwr.o
 .debug_frame   0x00001488       0x94 ./driver_source/lpc17xx_dac.o
 .debug_frame   0x0000151c      0x1f4 ./driver_source/lpc17xx_emac.o
 .debug_frame   0x00001710       0x7c ./driver_source/lpc17xx_gpdma.o
 .debug_frame   0x0000178c      0x160 ./driver_source/lpc17xx_gpio.o
 .debug_frame   0x000018ec      0x1c0 ./driver_source/lpc17xx_i2c.o
 .debug_frame   0x00001aac      0x238 ./driver_source/lpc17xx_i2s.o
 .debug_frame   0x00001ce4       0x20 ./driver_source/lpc17xx_libcfg_default.o
 .debug_frame   0x00001d04      0x12c ./driver_source/lpc17xx_mcpwm.o
 .debug_frame   0x00001e30       0x58 ./driver_source/lpc17xx_nvic.o
 .debug_frame   0x00001e88       0x90 ./driver_source/lpc17xx_pinsel.o
 .debug_frame   0x00001f18      0x18c ./driver_source/lpc17xx_pwm.o
 .debug_frame   0x000020a4      0x23c ./driver_source/lpc17xx_qei.o
 .debug_frame   0x000022e0       0xc8 ./driver_source/lpc17xx_rit.o
 .debug_frame   0x000023a8      0x228 ./driver_source/lpc17xx_rtc.o
 .debug_frame   0x000025d0      0x11c ./driver_source/lpc17xx_sd.o
 .debug_frame   0x000026ec      0x18c ./driver_source/lpc17xx_spi.o
 .debug_frame   0x00002878      0x220 ./driver_source/lpc17xx_ssp.o
 .debug_frame   0x00002a98      0x188 ./driver_source/lpc17xx_timer.o
 .debug_frame   0x00002c20      0x398 ./driver_source/lpc17xx_uart.o
 .debug_frame   0x00002fb8       0xc0 ./driver_source/lpc17xx_wdt.o
 .debug_frame   0x00003078      0x14c ./UsbHost/Uart/usbhost_uart.o
 .debug_frame   0x000031c4      0x178 ./UsbHost/MassStorage/usbhost_ms.o
 .debug_frame   0x0000333c       0x30 ./UsbHost/Main/usbhost_main.o
 .debug_frame   0x0000336c       0xc0 ./UsbHost/Host/usb_ms_diskio.o
 .debug_frame   0x0000342c      0x240 ./UsbHost/Host/usbhost_lpc17xx.o
 .debug_frame   0x0000366c      0x104 ./LPCUSB/USB_CDC.o
 .debug_frame   0x00003770       0x3c ./LPCUSB/usbcontrol.o
 .debug_frame   0x000037ac      0x134 ./LPCUSB/usbhw_lpc.o
 .debug_frame   0x000038e0       0x38 ./LPCUSB/usbinit.o
 .debug_frame   0x00003918       0x70 ./LPCUSB/usbstdreq.o
 .debug_frame   0x00003988       0x3c ./FatFs/option/cc932.o
 .debug_frame   0x000039c4       0x8c ./FatFs/diskio.o
 .debug_frame   0x00003a50      0x534 ./FatFs/ff.o
 .debug_frame   0x00003f84       0x38 /home/nlv14991/workspaceLPC/STE-LPC1768-/CMSISv1p30_LPC17xx/Debug/libCMSISv1p30_LPC17xx.a(system_LPC17xx.o)
 .debug_frame   0x00003fbc      0x19c /home/nlv14991/workspaceLPC/STE-LPC1768-/FreeRTOS_Library/Debug/libFreeRTOS_Library.a(queue.o)
 .debug_frame   0x00004158      0x2dc /home/nlv14991/workspaceLPC/STE-LPC1768-/FreeRTOS_Library/Debug/libFreeRTOS_Library.a(tasks.o)
 .debug_frame   0x00004434       0x68 /home/nlv14991/workspaceLPC/STE-LPC1768-/FreeRTOS_Library/Debug/libFreeRTOS_Library.a(heap_2.o)
 .debug_frame   0x0000449c       0xc8 /home/nlv14991/workspaceLPC/STE-LPC1768-/FreeRTOS_Library/Debug/libFreeRTOS_Library.a(port.o)
 .debug_frame   0x00004564       0x68 /home/nlv14991/workspaceLPC/STE-LPC1768-/FreeRTOS_Library/Debug/libFreeRTOS_Library.a(list.o)
